ARM GAS  /tmp/cc7sVS4t.s 			page 1


   1              		.cpu cortex-m0plus
   2              		.arch armv6s-m
   3              		.fpu softvfp
   4              		.eabi_attribute 20, 1
   5              		.eabi_attribute 21, 1
   6              		.eabi_attribute 23, 3
   7              		.eabi_attribute 24, 1
   8              		.eabi_attribute 25, 1
   9              		.eabi_attribute 26, 1
  10              		.eabi_attribute 30, 4
  11              		.eabi_attribute 34, 0
  12              		.eabi_attribute 18, 4
  13              		.file	"i2c.c"
  14              		.text
  15              	.Ltext0:
  16              		.cfi_sections	.debug_frame
  17              		.file 1 "Core/Src/i2c.c"
  18              		.section	.text.MX_I2C2_Init,"ax",%progbits
  19              		.align	1
  20              		.global	MX_I2C2_Init
  21              		.syntax unified
  22              		.code	16
  23              		.thumb_func
  25              	MX_I2C2_Init:
  26              	.LFB420:
   1:Core/Src/i2c.c **** /* USER CODE BEGIN Header */
   2:Core/Src/i2c.c **** /**
   3:Core/Src/i2c.c ****   ******************************************************************************
   4:Core/Src/i2c.c ****   * @file    i2c.c
   5:Core/Src/i2c.c ****   * @brief   This file provides code for the configuration
   6:Core/Src/i2c.c ****   *          of the I2C instances.
   7:Core/Src/i2c.c ****   ******************************************************************************
   8:Core/Src/i2c.c ****   * @attention
   9:Core/Src/i2c.c ****   *
  10:Core/Src/i2c.c ****   * Copyright (c) 2023 STMicroelectronics.
  11:Core/Src/i2c.c ****   * All rights reserved.
  12:Core/Src/i2c.c ****   *
  13:Core/Src/i2c.c ****   * This software is licensed under terms that can be found in the LICENSE file
  14:Core/Src/i2c.c ****   * in the root directory of this software component.
  15:Core/Src/i2c.c ****   * If no LICENSE file comes with this software, it is provided AS-IS.
  16:Core/Src/i2c.c ****   *
  17:Core/Src/i2c.c ****   ******************************************************************************
  18:Core/Src/i2c.c ****   */
  19:Core/Src/i2c.c **** /* USER CODE END Header */
  20:Core/Src/i2c.c **** /* Includes ------------------------------------------------------------------*/
  21:Core/Src/i2c.c **** #include "i2c.h"
  22:Core/Src/i2c.c **** 
  23:Core/Src/i2c.c **** /* USER CODE BEGIN 0 */
  24:Core/Src/i2c.c **** 
  25:Core/Src/i2c.c **** /* USER CODE END 0 */
  26:Core/Src/i2c.c **** 
  27:Core/Src/i2c.c **** I2C_HandleTypeDef hi2c2;
  28:Core/Src/i2c.c **** 
  29:Core/Src/i2c.c **** /* I2C2 init function */
  30:Core/Src/i2c.c **** void MX_I2C2_Init(void)
  31:Core/Src/i2c.c **** {
  27              		.loc 1 31 1 view -0
ARM GAS  /tmp/cc7sVS4t.s 			page 2


  28              		.cfi_startproc
  29              		@ args = 0, pretend = 0, frame = 0
  30              		@ frame_needed = 0, uses_anonymous_args = 0
  32:Core/Src/i2c.c **** 
  33:Core/Src/i2c.c ****   /* USER CODE BEGIN I2C2_Init 0 */
  34:Core/Src/i2c.c **** 
  35:Core/Src/i2c.c ****   /* USER CODE END I2C2_Init 0 */
  36:Core/Src/i2c.c **** 
  37:Core/Src/i2c.c ****   /* USER CODE BEGIN I2C2_Init 1 */
  38:Core/Src/i2c.c **** 
  39:Core/Src/i2c.c ****   /* USER CODE END I2C2_Init 1 */
  40:Core/Src/i2c.c ****   hi2c2.Instance = I2C2;
  31              		.loc 1 40 3 view .LVU1
  31:Core/Src/i2c.c **** 
  32              		.loc 1 31 1 is_stmt 0 view .LVU2
  33 0000 10B5     		push	{r4, lr}
  34              	.LCFI0:
  35              		.cfi_def_cfa_offset 8
  36              		.cfi_offset 4, -8
  37              		.cfi_offset 14, -4
  38              		.loc 1 40 18 view .LVU3
  39 0002 134B     		ldr	r3, .L14
  40 0004 134C     		ldr	r4, .L14+4
  41:Core/Src/i2c.c ****   hi2c2.Init.Timing = 0x10707DBC;
  42:Core/Src/i2c.c ****   hi2c2.Init.OwnAddress1 = 0;
  43:Core/Src/i2c.c ****   hi2c2.Init.AddressingMode = I2C_ADDRESSINGMODE_7BIT;
  41              		.loc 1 43 29 view .LVU4
  42 0006 0122     		movs	r2, #1
  40:Core/Src/i2c.c ****   hi2c2.Init.Timing = 0x10707DBC;
  43              		.loc 1 40 18 view .LVU5
  44 0008 2360     		str	r3, [r4]
  41:Core/Src/i2c.c ****   hi2c2.Init.Timing = 0x10707DBC;
  45              		.loc 1 41 3 is_stmt 1 view .LVU6
  41:Core/Src/i2c.c ****   hi2c2.Init.Timing = 0x10707DBC;
  46              		.loc 1 41 21 is_stmt 0 view .LVU7
  47 000a 134B     		ldr	r3, .L14+8
  44:Core/Src/i2c.c ****   hi2c2.Init.DualAddressMode = I2C_DUALADDRESS_DISABLE;
  45:Core/Src/i2c.c ****   hi2c2.Init.OwnAddress2 = 0;
  46:Core/Src/i2c.c ****   hi2c2.Init.OwnAddress2Masks = I2C_OA2_NOMASK;
  47:Core/Src/i2c.c ****   hi2c2.Init.GeneralCallMode = I2C_GENERALCALL_DISABLE;
  48:Core/Src/i2c.c ****   hi2c2.Init.NoStretchMode = I2C_NOSTRETCH_DISABLE;
  49:Core/Src/i2c.c ****   if (HAL_I2C_Init(&hi2c2) != HAL_OK)
  48              		.loc 1 49 7 view .LVU8
  49 000c 2000     		movs	r0, r4
  41:Core/Src/i2c.c ****   hi2c2.Init.OwnAddress1 = 0;
  50              		.loc 1 41 21 view .LVU9
  51 000e 6360     		str	r3, [r4, #4]
  42:Core/Src/i2c.c ****   hi2c2.Init.AddressingMode = I2C_ADDRESSINGMODE_7BIT;
  52              		.loc 1 42 3 is_stmt 1 view .LVU10
  42:Core/Src/i2c.c ****   hi2c2.Init.AddressingMode = I2C_ADDRESSINGMODE_7BIT;
  53              		.loc 1 42 26 is_stmt 0 view .LVU11
  54 0010 0023     		movs	r3, #0
  43:Core/Src/i2c.c ****   hi2c2.Init.DualAddressMode = I2C_DUALADDRESS_DISABLE;
  55              		.loc 1 43 29 view .LVU12
  56 0012 E260     		str	r2, [r4, #12]
  42:Core/Src/i2c.c ****   hi2c2.Init.AddressingMode = I2C_ADDRESSINGMODE_7BIT;
  57              		.loc 1 42 26 view .LVU13
ARM GAS  /tmp/cc7sVS4t.s 			page 3


  58 0014 A360     		str	r3, [r4, #8]
  43:Core/Src/i2c.c ****   hi2c2.Init.DualAddressMode = I2C_DUALADDRESS_DISABLE;
  59              		.loc 1 43 3 is_stmt 1 view .LVU14
  44:Core/Src/i2c.c ****   hi2c2.Init.OwnAddress2 = 0;
  60              		.loc 1 44 3 view .LVU15
  44:Core/Src/i2c.c ****   hi2c2.Init.OwnAddress2 = 0;
  61              		.loc 1 44 30 is_stmt 0 view .LVU16
  62 0016 2361     		str	r3, [r4, #16]
  45:Core/Src/i2c.c ****   hi2c2.Init.OwnAddress2Masks = I2C_OA2_NOMASK;
  63              		.loc 1 45 3 is_stmt 1 view .LVU17
  45:Core/Src/i2c.c ****   hi2c2.Init.OwnAddress2Masks = I2C_OA2_NOMASK;
  64              		.loc 1 45 26 is_stmt 0 view .LVU18
  65 0018 6361     		str	r3, [r4, #20]
  46:Core/Src/i2c.c ****   hi2c2.Init.GeneralCallMode = I2C_GENERALCALL_DISABLE;
  66              		.loc 1 46 3 is_stmt 1 view .LVU19
  46:Core/Src/i2c.c ****   hi2c2.Init.GeneralCallMode = I2C_GENERALCALL_DISABLE;
  67              		.loc 1 46 31 is_stmt 0 view .LVU20
  68 001a A361     		str	r3, [r4, #24]
  47:Core/Src/i2c.c ****   hi2c2.Init.NoStretchMode = I2C_NOSTRETCH_DISABLE;
  69              		.loc 1 47 3 is_stmt 1 view .LVU21
  47:Core/Src/i2c.c ****   hi2c2.Init.NoStretchMode = I2C_NOSTRETCH_DISABLE;
  70              		.loc 1 47 30 is_stmt 0 view .LVU22
  71 001c E361     		str	r3, [r4, #28]
  48:Core/Src/i2c.c ****   if (HAL_I2C_Init(&hi2c2) != HAL_OK)
  72              		.loc 1 48 3 is_stmt 1 view .LVU23
  48:Core/Src/i2c.c ****   if (HAL_I2C_Init(&hi2c2) != HAL_OK)
  73              		.loc 1 48 28 is_stmt 0 view .LVU24
  74 001e 2362     		str	r3, [r4, #32]
  75              		.loc 1 49 3 is_stmt 1 view .LVU25
  76              		.loc 1 49 7 is_stmt 0 view .LVU26
  77 0020 FFF7FEFF 		bl	HAL_I2C_Init
  78              	.LVL0:
  79              		.loc 1 49 6 discriminator 1 view .LVU27
  80 0024 0028     		cmp	r0, #0
  81 0026 01D0     		beq	.L2
  50:Core/Src/i2c.c ****   {
  51:Core/Src/i2c.c ****     Error_Handler();
  82              		.loc 1 51 5 is_stmt 1 view .LVU28
  83 0028 FFF7FEFF 		bl	Error_Handler
  84              	.LVL1:
  85              	.L2:
  52:Core/Src/i2c.c ****   }
  53:Core/Src/i2c.c **** 
  54:Core/Src/i2c.c ****   /** Configure Analogue filter
  55:Core/Src/i2c.c ****   */
  56:Core/Src/i2c.c ****   if (HAL_I2CEx_ConfigAnalogFilter(&hi2c2, I2C_ANALOGFILTER_ENABLE) != HAL_OK)
  86              		.loc 1 56 3 view .LVU29
  87              		.loc 1 56 7 is_stmt 0 view .LVU30
  88 002c 0021     		movs	r1, #0
  89 002e 2000     		movs	r0, r4
  90 0030 FFF7FEFF 		bl	HAL_I2CEx_ConfigAnalogFilter
  91              	.LVL2:
  92              		.loc 1 56 6 discriminator 1 view .LVU31
  93 0034 0028     		cmp	r0, #0
  94 0036 01D0     		beq	.L3
  57:Core/Src/i2c.c ****   {
  58:Core/Src/i2c.c ****     Error_Handler();
ARM GAS  /tmp/cc7sVS4t.s 			page 4


  95              		.loc 1 58 5 is_stmt 1 view .LVU32
  96 0038 FFF7FEFF 		bl	Error_Handler
  97              	.LVL3:
  98              	.L3:
  59:Core/Src/i2c.c ****   }
  60:Core/Src/i2c.c **** 
  61:Core/Src/i2c.c ****   /** Configure Digital filter
  62:Core/Src/i2c.c ****   */
  63:Core/Src/i2c.c ****   if (HAL_I2CEx_ConfigDigitalFilter(&hi2c2, 0) != HAL_OK)
  99              		.loc 1 63 3 view .LVU33
 100              		.loc 1 63 7 is_stmt 0 view .LVU34
 101 003c 0021     		movs	r1, #0
 102 003e 2000     		movs	r0, r4
 103 0040 FFF7FEFF 		bl	HAL_I2CEx_ConfigDigitalFilter
 104              	.LVL4:
 105              		.loc 1 63 6 discriminator 1 view .LVU35
 106 0044 0028     		cmp	r0, #0
 107 0046 01D0     		beq	.L1
  64:Core/Src/i2c.c ****   {
  65:Core/Src/i2c.c ****     Error_Handler();
 108              		.loc 1 65 5 is_stmt 1 view .LVU36
 109 0048 FFF7FEFF 		bl	Error_Handler
 110              	.LVL5:
 111              	.L1:
  66:Core/Src/i2c.c ****   }
  67:Core/Src/i2c.c ****   /* USER CODE BEGIN I2C2_Init 2 */
  68:Core/Src/i2c.c **** 
  69:Core/Src/i2c.c ****   /* USER CODE END I2C2_Init 2 */
  70:Core/Src/i2c.c **** 
  71:Core/Src/i2c.c **** }
 112              		.loc 1 71 1 is_stmt 0 view .LVU37
 113              		@ sp needed
 114 004c 10BD     		pop	{r4, pc}
 115              	.L15:
 116 004e C046     		.align	2
 117              	.L14:
 118 0050 00580040 		.word	1073764352
 119 0054 00000000 		.word	hi2c2
 120 0058 BC7D7010 		.word	275807676
 121              		.cfi_endproc
 122              	.LFE420:
 124              		.section	.text.HAL_I2C_MspInit,"ax",%progbits
 125              		.align	1
 126              		.global	HAL_I2C_MspInit
 127              		.syntax unified
 128              		.code	16
 129              		.thumb_func
 131              	HAL_I2C_MspInit:
 132              	.LVL6:
 133              	.LFB421:
  72:Core/Src/i2c.c **** 
  73:Core/Src/i2c.c **** void HAL_I2C_MspInit(I2C_HandleTypeDef* i2cHandle)
  74:Core/Src/i2c.c **** {
 134              		.loc 1 74 1 is_stmt 1 view -0
 135              		.cfi_startproc
 136              		@ args = 0, pretend = 0, frame = 32
 137              		@ frame_needed = 0, uses_anonymous_args = 0
ARM GAS  /tmp/cc7sVS4t.s 			page 5


  75:Core/Src/i2c.c **** 
  76:Core/Src/i2c.c ****   GPIO_InitTypeDef GPIO_InitStruct = {0};
 138              		.loc 1 76 3 view .LVU39
  74:Core/Src/i2c.c **** 
 139              		.loc 1 74 1 is_stmt 0 view .LVU40
 140 0000 10B5     		push	{r4, lr}
 141              	.LCFI1:
 142              		.cfi_def_cfa_offset 8
 143              		.cfi_offset 4, -8
 144              		.cfi_offset 14, -4
 145 0002 0400     		movs	r4, r0
 146 0004 88B0     		sub	sp, sp, #32
 147              	.LCFI2:
 148              		.cfi_def_cfa_offset 40
 149              		.loc 1 76 20 view .LVU41
 150 0006 1422     		movs	r2, #20
 151 0008 0021     		movs	r1, #0
 152 000a 03A8     		add	r0, sp, #12
 153              	.LVL7:
 154              		.loc 1 76 20 view .LVU42
 155 000c FFF7FEFF 		bl	memset
 156              	.LVL8:
  77:Core/Src/i2c.c ****   if(i2cHandle->Instance==I2C2)
 157              		.loc 1 77 3 is_stmt 1 view .LVU43
 158              		.loc 1 77 5 is_stmt 0 view .LVU44
 159 0010 114B     		ldr	r3, .L18
 160 0012 2268     		ldr	r2, [r4]
 161 0014 9A42     		cmp	r2, r3
 162 0016 1DD1     		bne	.L16
  78:Core/Src/i2c.c ****   {
  79:Core/Src/i2c.c ****   /* USER CODE BEGIN I2C2_MspInit 0 */
  80:Core/Src/i2c.c **** 
  81:Core/Src/i2c.c ****   /* USER CODE END I2C2_MspInit 0 */
  82:Core/Src/i2c.c **** 
  83:Core/Src/i2c.c ****     __HAL_RCC_GPIOA_CLK_ENABLE();
 163              		.loc 1 83 5 is_stmt 1 view .LVU45
 164              	.LBB2:
 165              		.loc 1 83 5 view .LVU46
 166              		.loc 1 83 5 view .LVU47
 167 0018 0122     		movs	r2, #1
 168 001a 104C     		ldr	r4, .L18+4
 169              	.LVL9:
 170              		.loc 1 83 5 is_stmt 0 view .LVU48
 171              	.LBE2:
  84:Core/Src/i2c.c ****     /**I2C2 GPIO Configuration
  85:Core/Src/i2c.c ****     PA11 [PA9]     ------> I2C2_SCL
  86:Core/Src/i2c.c ****     PA12 [PA10]     ------> I2C2_SDA
  87:Core/Src/i2c.c ****     */
  88:Core/Src/i2c.c ****     GPIO_InitStruct.Pin = GPIO_PIN_11|GPIO_PIN_12;
  89:Core/Src/i2c.c ****     GPIO_InitStruct.Mode = GPIO_MODE_AF_OD;
  90:Core/Src/i2c.c ****     GPIO_InitStruct.Pull = GPIO_NOPULL;
  91:Core/Src/i2c.c ****     GPIO_InitStruct.Speed = GPIO_SPEED_FREQ_LOW;
  92:Core/Src/i2c.c ****     GPIO_InitStruct.Alternate = GPIO_AF6_I2C2;
  93:Core/Src/i2c.c ****     HAL_GPIO_Init(GPIOA, &GPIO_InitStruct);
 172              		.loc 1 93 5 view .LVU49
 173 001c A020     		movs	r0, #160
 174              	.LBB3:
ARM GAS  /tmp/cc7sVS4t.s 			page 6


  83:Core/Src/i2c.c ****     /**I2C2 GPIO Configuration
 175              		.loc 1 83 5 view .LVU50
 176 001e 636B     		ldr	r3, [r4, #52]
 177              	.LBE3:
 178              		.loc 1 93 5 view .LVU51
 179 0020 03A9     		add	r1, sp, #12
 180              	.LBB4:
  83:Core/Src/i2c.c ****     /**I2C2 GPIO Configuration
 181              		.loc 1 83 5 view .LVU52
 182 0022 1343     		orrs	r3, r2
 183 0024 6363     		str	r3, [r4, #52]
  83:Core/Src/i2c.c ****     /**I2C2 GPIO Configuration
 184              		.loc 1 83 5 is_stmt 1 view .LVU53
 185 0026 636B     		ldr	r3, [r4, #52]
 186              	.LBE4:
 187              		.loc 1 93 5 is_stmt 0 view .LVU54
 188 0028 C005     		lsls	r0, r0, #23
 189              	.LBB5:
  83:Core/Src/i2c.c ****     /**I2C2 GPIO Configuration
 190              		.loc 1 83 5 view .LVU55
 191 002a 1340     		ands	r3, r2
 192 002c 0193     		str	r3, [sp, #4]
  83:Core/Src/i2c.c ****     /**I2C2 GPIO Configuration
 193              		.loc 1 83 5 is_stmt 1 view .LVU56
 194 002e 019B     		ldr	r3, [sp, #4]
 195              	.LBE5:
  83:Core/Src/i2c.c ****     /**I2C2 GPIO Configuration
 196              		.loc 1 83 5 view .LVU57
  88:Core/Src/i2c.c ****     GPIO_InitStruct.Mode = GPIO_MODE_AF_OD;
 197              		.loc 1 88 5 view .LVU58
  88:Core/Src/i2c.c ****     GPIO_InitStruct.Mode = GPIO_MODE_AF_OD;
 198              		.loc 1 88 25 is_stmt 0 view .LVU59
 199 0030 C023     		movs	r3, #192
 200 0032 5B01     		lsls	r3, r3, #5
 201 0034 0393     		str	r3, [sp, #12]
  89:Core/Src/i2c.c ****     GPIO_InitStruct.Pull = GPIO_NOPULL;
 202              		.loc 1 89 5 is_stmt 1 view .LVU60
  89:Core/Src/i2c.c ****     GPIO_InitStruct.Pull = GPIO_NOPULL;
 203              		.loc 1 89 26 is_stmt 0 view .LVU61
 204 0036 1223     		movs	r3, #18
 205 0038 0493     		str	r3, [sp, #16]
  90:Core/Src/i2c.c ****     GPIO_InitStruct.Speed = GPIO_SPEED_FREQ_LOW;
 206              		.loc 1 90 5 is_stmt 1 view .LVU62
  91:Core/Src/i2c.c ****     GPIO_InitStruct.Alternate = GPIO_AF6_I2C2;
 207              		.loc 1 91 5 view .LVU63
  92:Core/Src/i2c.c ****     HAL_GPIO_Init(GPIOA, &GPIO_InitStruct);
 208              		.loc 1 92 5 view .LVU64
  92:Core/Src/i2c.c ****     HAL_GPIO_Init(GPIOA, &GPIO_InitStruct);
 209              		.loc 1 92 31 is_stmt 0 view .LVU65
 210 003a 0C3B     		subs	r3, r3, #12
 211 003c 0793     		str	r3, [sp, #28]
 212              		.loc 1 93 5 is_stmt 1 view .LVU66
 213 003e FFF7FEFF 		bl	HAL_GPIO_Init
 214              	.LVL10:
  94:Core/Src/i2c.c **** 
  95:Core/Src/i2c.c ****     /* I2C2 clock enable */
  96:Core/Src/i2c.c ****     __HAL_RCC_I2C2_CLK_ENABLE();
ARM GAS  /tmp/cc7sVS4t.s 			page 7


 215              		.loc 1 96 5 view .LVU67
 216              	.LBB6:
 217              		.loc 1 96 5 view .LVU68
 218              		.loc 1 96 5 view .LVU69
 219 0042 8022     		movs	r2, #128
 220 0044 E36B     		ldr	r3, [r4, #60]
 221 0046 D203     		lsls	r2, r2, #15
 222 0048 1343     		orrs	r3, r2
 223 004a E363     		str	r3, [r4, #60]
 224              		.loc 1 96 5 view .LVU70
 225 004c E36B     		ldr	r3, [r4, #60]
 226 004e 1340     		ands	r3, r2
 227 0050 0293     		str	r3, [sp, #8]
 228              		.loc 1 96 5 view .LVU71
 229 0052 029B     		ldr	r3, [sp, #8]
 230              	.LBE6:
 231              		.loc 1 96 5 discriminator 1 view .LVU72
 232              	.L16:
  97:Core/Src/i2c.c ****   /* USER CODE BEGIN I2C2_MspInit 1 */
  98:Core/Src/i2c.c **** 
  99:Core/Src/i2c.c ****   /* USER CODE END I2C2_MspInit 1 */
 100:Core/Src/i2c.c ****   }
 101:Core/Src/i2c.c **** }
 233              		.loc 1 101 1 is_stmt 0 view .LVU73
 234 0054 08B0     		add	sp, sp, #32
 235              		@ sp needed
 236 0056 10BD     		pop	{r4, pc}
 237              	.L19:
 238              		.align	2
 239              	.L18:
 240 0058 00580040 		.word	1073764352
 241 005c 00100240 		.word	1073876992
 242              		.cfi_endproc
 243              	.LFE421:
 245              		.section	.text.HAL_I2C_MspDeInit,"ax",%progbits
 246              		.align	1
 247              		.global	HAL_I2C_MspDeInit
 248              		.syntax unified
 249              		.code	16
 250              		.thumb_func
 252              	HAL_I2C_MspDeInit:
 253              	.LVL11:
 254              	.LFB422:
 102:Core/Src/i2c.c **** 
 103:Core/Src/i2c.c **** void HAL_I2C_MspDeInit(I2C_HandleTypeDef* i2cHandle)
 104:Core/Src/i2c.c **** {
 255              		.loc 1 104 1 is_stmt 1 view -0
 256              		.cfi_startproc
 257              		@ args = 0, pretend = 0, frame = 0
 258              		@ frame_needed = 0, uses_anonymous_args = 0
 105:Core/Src/i2c.c **** 
 106:Core/Src/i2c.c ****   if(i2cHandle->Instance==I2C2)
 259              		.loc 1 106 3 view .LVU75
 260              		.loc 1 106 5 is_stmt 0 view .LVU76
 261 0000 0B4B     		ldr	r3, .L22
 262 0002 0268     		ldr	r2, [r0]
 104:Core/Src/i2c.c **** 
ARM GAS  /tmp/cc7sVS4t.s 			page 8


 263              		.loc 1 104 1 view .LVU77
 264 0004 10B5     		push	{r4, lr}
 265              	.LCFI3:
 266              		.cfi_def_cfa_offset 8
 267              		.cfi_offset 4, -8
 268              		.cfi_offset 14, -4
 269              		.loc 1 106 5 view .LVU78
 270 0006 9A42     		cmp	r2, r3
 271 0008 10D1     		bne	.L20
 107:Core/Src/i2c.c ****   {
 108:Core/Src/i2c.c ****   /* USER CODE BEGIN I2C2_MspDeInit 0 */
 109:Core/Src/i2c.c **** 
 110:Core/Src/i2c.c ****   /* USER CODE END I2C2_MspDeInit 0 */
 111:Core/Src/i2c.c ****     /* Peripheral clock disable */
 112:Core/Src/i2c.c ****     __HAL_RCC_I2C2_CLK_DISABLE();
 272              		.loc 1 112 5 is_stmt 1 view .LVU79
 273 000a 0A4A     		ldr	r2, .L22+4
 274 000c 0A49     		ldr	r1, .L22+8
 275 000e D36B     		ldr	r3, [r2, #60]
 113:Core/Src/i2c.c **** 
 114:Core/Src/i2c.c ****     /**I2C2 GPIO Configuration
 115:Core/Src/i2c.c ****     PA11 [PA9]     ------> I2C2_SCL
 116:Core/Src/i2c.c ****     PA12 [PA10]     ------> I2C2_SDA
 117:Core/Src/i2c.c ****     */
 118:Core/Src/i2c.c ****     HAL_GPIO_DeInit(GPIOA, GPIO_PIN_11);
 276              		.loc 1 118 5 is_stmt 0 view .LVU80
 277 0010 A020     		movs	r0, #160
 278              	.LVL12:
 112:Core/Src/i2c.c **** 
 279              		.loc 1 112 5 view .LVU81
 280 0012 0B40     		ands	r3, r1
 281              		.loc 1 118 5 view .LVU82
 282 0014 8021     		movs	r1, #128
 283 0016 C005     		lsls	r0, r0, #23
 284 0018 0901     		lsls	r1, r1, #4
 112:Core/Src/i2c.c **** 
 285              		.loc 1 112 5 view .LVU83
 286 001a D363     		str	r3, [r2, #60]
 287              		.loc 1 118 5 is_stmt 1 view .LVU84
 288 001c FFF7FEFF 		bl	HAL_GPIO_DeInit
 289              	.LVL13:
 119:Core/Src/i2c.c **** 
 120:Core/Src/i2c.c ****     HAL_GPIO_DeInit(GPIOA, GPIO_PIN_12);
 290              		.loc 1 120 5 view .LVU85
 291 0020 8021     		movs	r1, #128
 292 0022 A020     		movs	r0, #160
 293 0024 4901     		lsls	r1, r1, #5
 294 0026 C005     		lsls	r0, r0, #23
 295 0028 FFF7FEFF 		bl	HAL_GPIO_DeInit
 296              	.LVL14:
 297              	.L20:
 121:Core/Src/i2c.c **** 
 122:Core/Src/i2c.c ****   /* USER CODE BEGIN I2C2_MspDeInit 1 */
 123:Core/Src/i2c.c **** 
 124:Core/Src/i2c.c ****   /* USER CODE END I2C2_MspDeInit 1 */
 125:Core/Src/i2c.c ****   }
 126:Core/Src/i2c.c **** }
ARM GAS  /tmp/cc7sVS4t.s 			page 9


 298              		.loc 1 126 1 is_stmt 0 view .LVU86
 299              		@ sp needed
 300 002c 10BD     		pop	{r4, pc}
 301              	.L23:
 302 002e C046     		.align	2
 303              	.L22:
 304 0030 00580040 		.word	1073764352
 305 0034 00100240 		.word	1073876992
 306 0038 FFFFBFFF 		.word	-4194305
 307              		.cfi_endproc
 308              	.LFE422:
 310              		.global	hi2c2
 311              		.section	.bss.hi2c2,"aw",%nobits
 312              		.align	2
 315              	hi2c2:
 316 0000 00000000 		.space	84
 316      00000000 
 316      00000000 
 316      00000000 
 316      00000000 
 317              		.text
 318              	.Letext0:
 319              		.file 2 "/usr/arm-none-eabi/include/machine/_default_types.h"
 320              		.file 3 "/usr/arm-none-eabi/include/sys/_stdint.h"
 321              		.file 4 "Drivers/CMSIS/Device/ST/STM32G0xx/Include/stm32g030xx.h"
 322              		.file 5 "Drivers/STM32G0xx_HAL_Driver/Inc/stm32g0xx_hal_def.h"
 323              		.file 6 "Drivers/STM32G0xx_HAL_Driver/Inc/stm32g0xx_hal_gpio.h"
 324              		.file 7 "Drivers/STM32G0xx_HAL_Driver/Inc/stm32g0xx_hal_dma.h"
 325              		.file 8 "Drivers/STM32G0xx_HAL_Driver/Inc/stm32g0xx_hal_i2c.h"
 326              		.file 9 "Drivers/STM32G0xx_HAL_Driver/Inc/stm32g0xx_hal_i2c_ex.h"
 327              		.file 10 "Drivers/STM32G0xx_HAL_Driver/Inc/stm32g0xx_ll_dma.h"
 328              		.file 11 "Core/Inc/i2c.h"
 329              		.file 12 "Core/Inc/main.h"
 330              		.file 13 "<built-in>"
ARM GAS  /tmp/cc7sVS4t.s 			page 10

