ARM GAS  /tmp/cc5TwoZ8.s 			page 1


   1              		.cpu cortex-m0plus
   2              		.arch armv6s-m
   3              		.fpu softvfp
   4              		.eabi_attribute 20, 1
   5              		.eabi_attribute 21, 1
   6              		.eabi_attribute 23, 3
   7              		.eabi_attribute 24, 1
   8              		.eabi_attribute 25, 1
   9              		.eabi_attribute 26, 1
  10              		.eabi_attribute 30, 4
  11              		.eabi_attribute 34, 0
  12              		.eabi_attribute 18, 4
  13              		.file	"screen.cpp"
  14              		.text
  15              	.Ltext0:
  16              		.cfi_sections	.debug_frame
  17              		.file 1 "Core/Src/screen.cpp"
  18              		.section	.text._ZN6IO_PinC2E4GPIO,"ax",%progbits
  19              		.align	1
  20              		.global	_ZN6IO_PinC2E4GPIO
  21              		.syntax unified
  22              		.code	16
  23              		.thumb_func
  25              	_ZN6IO_PinC2E4GPIO:
  26              		.fnstart
  27              	.LVL0:
  28              	.LFB421:
   1:Core/Src/screen.cpp **** #include "screen.h"
   2:Core/Src/screen.cpp **** #include "numfonts.h"
   3:Core/Src/screen.cpp **** 
   4:Core/Src/screen.cpp **** IO_Pin::IO_Pin(GPIO gpio): _gpio(gpio) {
  29              		.loc 1 4 1 view -0
  30              		.cfi_startproc
  31              		@ args = 0, pretend = 0, frame = 8
  32              		@ frame_needed = 0, uses_anonymous_args = 0
  33              		.loc 1 4 1 is_stmt 0 view .LVU1
  34 0000 13B5     		push	{r0, r1, r4, lr}
  35              	.LCFI0:
  36              		.cfi_def_cfa_offset 16
  37              		.cfi_offset 0, -16
  38              		.cfi_offset 1, -12
  39              		.cfi_offset 4, -8
  40              		.cfi_offset 14, -4
  41              		.loc 1 4 1 view .LVU2
  42 0002 6B46     		mov	r3, sp
   5:Core/Src/screen.cpp **** 
   6:Core/Src/screen.cpp **** }
  43              		.loc 1 6 1 view .LVU3
  44              		@ sp needed
   4:Core/Src/screen.cpp **** }
  45              		.loc 1 4 1 view .LVU4
  46 0004 5A60     		str	r2, [r3, #4]
  47              	.LBB14:
   4:Core/Src/screen.cpp **** }
  48              		.loc 1 4 28 view .LVU5
  49 0006 0200     		movs	r2, r0
  50              	.LBE14:
ARM GAS  /tmp/cc5TwoZ8.s 			page 2


   4:Core/Src/screen.cpp **** }
  51              		.loc 1 4 1 view .LVU6
  52 0008 0091     		str	r1, [sp]
  53              	.LBB15:
   4:Core/Src/screen.cpp **** }
  54              		.loc 1 4 28 view .LVU7
  55 000a 12CB     		ldmia	r3!, {r1, r4}
  56 000c 12C2     		stmia	r2!, {r1, r4}
  57              	.LBE15:
  58              		.loc 1 6 1 view .LVU8
  59 000e 16BD     		pop	{r1, r2, r4, pc}
  60              		.cfi_endproc
  61              	.LFE421:
  62              		.cantunwind
  63              		.fnend
  65              		.global	_ZN6IO_PinC1E4GPIO
  66              		.thumb_set _ZN6IO_PinC1E4GPIO,_ZN6IO_PinC2E4GPIO
  67              		.section	.text._ZN6IO_PinC2EP12GPIO_TypeDeft,"ax",%progbits
  68              		.align	1
  69              		.global	_ZN6IO_PinC2EP12GPIO_TypeDeft
  70              		.syntax unified
  71              		.code	16
  72              		.thumb_func
  74              	_ZN6IO_PinC2EP12GPIO_TypeDeft:
  75              		.fnstart
  76              	.LVL1:
  77              	.LFB424:
   7:Core/Src/screen.cpp **** 
   8:Core/Src/screen.cpp **** IO_Pin::IO_Pin(GPIO_TypeDef *io, uint16_t pinNum): _gpio({io, pinNum}) {
  78              		.loc 1 8 1 is_stmt 1 view -0
  79              		.cfi_startproc
  80              		@ args = 0, pretend = 0, frame = 0
  81              		@ frame_needed = 0, uses_anonymous_args = 0
  82              		@ link register save eliminated.
  83              	.LBB16:
  84              		.loc 1 8 52 is_stmt 0 view .LVU10
  85 0000 0160     		str	r1, [r0]
  86 0002 8280     		strh	r2, [r0, #4]
  87              	.LBE16:
   9:Core/Src/screen.cpp **** 
  10:Core/Src/screen.cpp **** }
  88              		.loc 1 10 1 view .LVU11
  89              		@ sp needed
  90 0004 7047     		bx	lr
  91              		.cfi_endproc
  92              	.LFE424:
  93              		.cantunwind
  94              		.fnend
  96              		.global	_ZN6IO_PinC1EP12GPIO_TypeDeft
  97              		.thumb_set _ZN6IO_PinC1EP12GPIO_TypeDeft,_ZN6IO_PinC2EP12GPIO_TypeDeft
  98              		.section	.text._ZNK6IO_Pin3setEv,"ax",%progbits
  99              		.align	1
 100              		.global	_ZNK6IO_Pin3setEv
 101              		.syntax unified
 102              		.code	16
 103              		.thumb_func
 105              	_ZNK6IO_Pin3setEv:
ARM GAS  /tmp/cc5TwoZ8.s 			page 3


 106              		.fnstart
 107              	.LVL2:
 108              	.LFB426:
  11:Core/Src/screen.cpp **** 
  12:Core/Src/screen.cpp **** void IO_Pin::set() const {
 109              		.loc 1 12 26 is_stmt 1 view -0
 110              		.cfi_startproc
 111              		@ args = 0, pretend = 0, frame = 0
 112              		@ frame_needed = 0, uses_anonymous_args = 0
  13:Core/Src/screen.cpp **** 	HAL_GPIO_WritePin(_gpio.GPIOx, _gpio.GPIO_Pin, GPIO_PIN_SET);
 113              		.loc 1 13 2 view .LVU13
  12:Core/Src/screen.cpp **** 	HAL_GPIO_WritePin(_gpio.GPIOx, _gpio.GPIO_Pin, GPIO_PIN_SET);
 114              		.loc 1 12 26 is_stmt 0 view .LVU14
 115 0000 10B5     		push	{r4, lr}
 116              		.save {r4, lr}
 117              	.LCFI1:
 118              		.cfi_def_cfa_offset 8
 119              		.cfi_offset 4, -8
 120              		.cfi_offset 14, -4
 121              		.loc 1 13 19 view .LVU15
 122 0002 0122     		movs	r2, #1
  14:Core/Src/screen.cpp **** }
 123              		.loc 1 14 1 view .LVU16
 124              		@ sp needed
  13:Core/Src/screen.cpp **** 	HAL_GPIO_WritePin(_gpio.GPIOx, _gpio.GPIO_Pin, GPIO_PIN_SET);
 125              		.loc 1 13 19 view .LVU17
 126 0004 8188     		ldrh	r1, [r0, #4]
 127 0006 0068     		ldr	r0, [r0]
 128              	.LVL3:
  13:Core/Src/screen.cpp **** 	HAL_GPIO_WritePin(_gpio.GPIOx, _gpio.GPIO_Pin, GPIO_PIN_SET);
 129              		.loc 1 13 19 view .LVU18
 130 0008 FFF7FEFF 		bl	HAL_GPIO_WritePin
 131              	.LVL4:
 132              		.loc 1 14 1 view .LVU19
 133 000c 10BD     		pop	{r4, pc}
 134              		.cfi_endproc
 135              	.LFE426:
 136              		.fnend
 138              		.section	.text._ZNK6IO_Pin5resetEv,"ax",%progbits
 139              		.align	1
 140              		.global	_ZNK6IO_Pin5resetEv
 141              		.syntax unified
 142              		.code	16
 143              		.thumb_func
 145              	_ZNK6IO_Pin5resetEv:
 146              		.fnstart
 147              	.LVL5:
 148              	.LFB427:
  15:Core/Src/screen.cpp **** 
  16:Core/Src/screen.cpp **** void IO_Pin::reset() const {
 149              		.loc 1 16 28 is_stmt 1 view -0
 150              		.cfi_startproc
 151              		@ args = 0, pretend = 0, frame = 0
 152              		@ frame_needed = 0, uses_anonymous_args = 0
  17:Core/Src/screen.cpp **** 	HAL_GPIO_WritePin(_gpio.GPIOx, _gpio.GPIO_Pin, GPIO_PIN_RESET);
 153              		.loc 1 17 2 view .LVU21
  16:Core/Src/screen.cpp **** 	HAL_GPIO_WritePin(_gpio.GPIOx, _gpio.GPIO_Pin, GPIO_PIN_RESET);
ARM GAS  /tmp/cc5TwoZ8.s 			page 4


 154              		.loc 1 16 28 is_stmt 0 view .LVU22
 155 0000 10B5     		push	{r4, lr}
 156              		.save {r4, lr}
 157              	.LCFI2:
 158              		.cfi_def_cfa_offset 8
 159              		.cfi_offset 4, -8
 160              		.cfi_offset 14, -4
 161              		.loc 1 17 19 view .LVU23
 162 0002 0022     		movs	r2, #0
  18:Core/Src/screen.cpp **** }
 163              		.loc 1 18 1 view .LVU24
 164              		@ sp needed
  17:Core/Src/screen.cpp **** 	HAL_GPIO_WritePin(_gpio.GPIOx, _gpio.GPIO_Pin, GPIO_PIN_RESET);
 165              		.loc 1 17 19 view .LVU25
 166 0004 8188     		ldrh	r1, [r0, #4]
 167 0006 0068     		ldr	r0, [r0]
 168              	.LVL6:
  17:Core/Src/screen.cpp **** 	HAL_GPIO_WritePin(_gpio.GPIOx, _gpio.GPIO_Pin, GPIO_PIN_RESET);
 169              		.loc 1 17 19 view .LVU26
 170 0008 FFF7FEFF 		bl	HAL_GPIO_WritePin
 171              	.LVL7:
 172              		.loc 1 18 1 view .LVU27
 173 000c 10BD     		pop	{r4, pc}
 174              		.cfi_endproc
 175              	.LFE427:
 176              		.fnend
 178              		.section	.text._ZN6Screen15switchBacklightEb,"ax",%progbits
 179              		.align	1
 180              		.global	_ZN6Screen15switchBacklightEb
 181              		.syntax unified
 182              		.code	16
 183              		.thumb_func
 185              	_ZN6Screen15switchBacklightEb:
 186              		.fnstart
 187              	.LVL8:
 188              	.LFB431:
  19:Core/Src/screen.cpp **** 
  20:Core/Src/screen.cpp **** Screen::Screen(SPI_HandleTypeDef *hspi, IO_Pin cs, IO_Pin res, IO_Pin dc, IO_Pin bklt): spi(hspi), 
  21:Core/Src/screen.cpp **** 	reset();
  22:Core/Src/screen.cpp **** 	sendCommand(0x11); // Exit sleep mode.
  23:Core/Src/screen.cpp **** 
  24:Core/Src/screen.cpp **** 	HAL_Delay(120);
  25:Core/Src/screen.cpp **** 
  26:Core/Src/screen.cpp **** 	// Frame Rate Setting
  27:Core/Src/screen.cpp **** 	sendCommand(0xB1);
  28:Core/Src/screen.cpp **** 	sendData(0x01);
  29:Core/Src/screen.cpp **** 	sendData(0x2C);
  30:Core/Src/screen.cpp **** 	sendData(0x2D);
  31:Core/Src/screen.cpp **** 
  32:Core/Src/screen.cpp **** 	sendCommand(0xB2);
  33:Core/Src/screen.cpp **** 	sendData(0x01);
  34:Core/Src/screen.cpp **** 	sendData(0x2C);
  35:Core/Src/screen.cpp **** 	sendData(0x2D);
  36:Core/Src/screen.cpp **** 
  37:Core/Src/screen.cpp **** 	sendCommand(0xB3);
  38:Core/Src/screen.cpp **** 	sendData(0x01);
  39:Core/Src/screen.cpp **** 	sendData(0x2C);
ARM GAS  /tmp/cc5TwoZ8.s 			page 5


  40:Core/Src/screen.cpp **** 	sendData(0x2D);
  41:Core/Src/screen.cpp **** 	sendData(0x01);
  42:Core/Src/screen.cpp **** 	sendData(0x2C);
  43:Core/Src/screen.cpp **** 	sendData(0x2D);
  44:Core/Src/screen.cpp **** 
  45:Core/Src/screen.cpp **** 	// Column Inversion
  46:Core/Src/screen.cpp **** 	sendCommand(0xB4);
  47:Core/Src/screen.cpp **** 	sendData(0x07);
  48:Core/Src/screen.cpp **** 
  49:Core/Src/screen.cpp **** 	// Power Sequence
  50:Core/Src/screen.cpp **** 	sendCommand(0xC0);
  51:Core/Src/screen.cpp **** 	sendData(0xA2);
  52:Core/Src/screen.cpp **** 	sendData(0x02);
  53:Core/Src/screen.cpp **** 	sendData(0x84);
  54:Core/Src/screen.cpp **** 	sendCommand(0xC1);
  55:Core/Src/screen.cpp **** 	sendData(0xC5);
  56:Core/Src/screen.cpp **** 
  57:Core/Src/screen.cpp **** 	sendCommand(0xC2);
  58:Core/Src/screen.cpp **** 	sendData(0x0A);
  59:Core/Src/screen.cpp **** 	sendData(0x00);
  60:Core/Src/screen.cpp **** 
  61:Core/Src/screen.cpp **** 	sendCommand(0xC3);
  62:Core/Src/screen.cpp **** 	sendData(0x8A);
  63:Core/Src/screen.cpp **** 	sendData(0x2A);
  64:Core/Src/screen.cpp **** 	sendCommand(0xC4);
  65:Core/Src/screen.cpp **** 	sendData(0x8A);
  66:Core/Src/screen.cpp **** 	sendData(0xEE);
  67:Core/Src/screen.cpp **** 
  68:Core/Src/screen.cpp **** 	sendCommand(0xC5); //VCOM 
  69:Core/Src/screen.cpp **** 	sendData(0x0E);
  70:Core/Src/screen.cpp **** 
  71:Core/Src/screen.cpp **** 	sendCommand(0x36); //MX, MY, RGB mode 
  72:Core/Src/screen.cpp **** 	sendData(0xC8);
  73:Core/Src/screen.cpp **** 
  74:Core/Src/screen.cpp **** 	// Gamma Sequence
  75:Core/Src/screen.cpp **** 	sendCommand(0xe0);
  76:Core/Src/screen.cpp **** 	sendData(0x0f);
  77:Core/Src/screen.cpp **** 	sendData(0x1a);
  78:Core/Src/screen.cpp **** 	sendData(0x0f);
  79:Core/Src/screen.cpp **** 	sendData(0x18);
  80:Core/Src/screen.cpp **** 	sendData(0x2f);
  81:Core/Src/screen.cpp **** 	sendData(0x28);
  82:Core/Src/screen.cpp **** 	sendData(0x20);
  83:Core/Src/screen.cpp **** 	sendData(0x22);
  84:Core/Src/screen.cpp **** 	sendData(0x1f);
  85:Core/Src/screen.cpp **** 	sendData(0x1b);
  86:Core/Src/screen.cpp **** 	sendData(0x23);
  87:Core/Src/screen.cpp **** 	sendData(0x37);
  88:Core/Src/screen.cpp **** 	sendData(0x00);
  89:Core/Src/screen.cpp **** 	sendData(0x07);
  90:Core/Src/screen.cpp **** 	sendData(0x02);
  91:Core/Src/screen.cpp **** 	sendData(0x10);
  92:Core/Src/screen.cpp **** 
  93:Core/Src/screen.cpp **** 	sendCommand(0xe1);
  94:Core/Src/screen.cpp **** 	sendData(0x0f);
  95:Core/Src/screen.cpp **** 	sendData(0x1b);
  96:Core/Src/screen.cpp **** 	sendData(0x0f);
ARM GAS  /tmp/cc5TwoZ8.s 			page 6


  97:Core/Src/screen.cpp **** 	sendData(0x17);
  98:Core/Src/screen.cpp **** 	sendData(0x33);
  99:Core/Src/screen.cpp **** 	sendData(0x2c);
 100:Core/Src/screen.cpp **** 	sendData(0x29);
 101:Core/Src/screen.cpp **** 	sendData(0x2e);
 102:Core/Src/screen.cpp **** 	sendData(0x30);
 103:Core/Src/screen.cpp **** 	sendData(0x30);
 104:Core/Src/screen.cpp **** 	sendData(0x39);
 105:Core/Src/screen.cpp **** 	sendData(0x3f);
 106:Core/Src/screen.cpp **** 	sendData(0x00);
 107:Core/Src/screen.cpp **** 	sendData(0x07);
 108:Core/Src/screen.cpp **** 	sendData(0x03);
 109:Core/Src/screen.cpp **** 	sendData(0x10);
 110:Core/Src/screen.cpp **** 
 111:Core/Src/screen.cpp **** 	sendCommand(0x2a);
 112:Core/Src/screen.cpp **** 	sendData(0x00);
 113:Core/Src/screen.cpp **** 	sendData(0x00);
 114:Core/Src/screen.cpp **** 	sendData(0x00);
 115:Core/Src/screen.cpp **** 	sendData(0x7f);
 116:Core/Src/screen.cpp **** 
 117:Core/Src/screen.cpp **** 	sendCommand(0x2b);
 118:Core/Src/screen.cpp **** 	sendData(0x00);
 119:Core/Src/screen.cpp **** 	sendData(0x00);
 120:Core/Src/screen.cpp **** 	sendData(0x00);
 121:Core/Src/screen.cpp **** 	sendData(0x9f);
 122:Core/Src/screen.cpp **** 
 123:Core/Src/screen.cpp **** 	// Enable Test Command
 124:Core/Src/screen.cpp **** 	sendCommand(0xF0);
 125:Core/Src/screen.cpp **** 	sendData(0x01);
 126:Core/Src/screen.cpp **** 
 127:Core/Src/screen.cpp **** 	// Disable Power Saving Mode
 128:Core/Src/screen.cpp **** 	sendCommand(0xF6);
 129:Core/Src/screen.cpp **** 	sendData(0x00);
 130:Core/Src/screen.cpp **** 
 131:Core/Src/screen.cpp **** 	// Enter 65K Mode
 132:Core/Src/screen.cpp **** 	sendCommand(0x3A);
 133:Core/Src/screen.cpp **** 	sendData(0x05);
 134:Core/Src/screen.cpp **** 
 135:Core/Src/screen.cpp **** 	// Enable Display
 136:Core/Src/screen.cpp **** 	sendCommand(0x29);
 137:Core/Src/screen.cpp **** }
 138:Core/Src/screen.cpp **** 
 139:Core/Src/screen.cpp **** void Screen::switchBacklight(bool enable) {
 189              		.loc 1 139 43 is_stmt 1 view -0
 190              		.cfi_startproc
 191              		@ args = 0, pretend = 0, frame = 0
 192              		@ frame_needed = 0, uses_anonymous_args = 0
 140:Core/Src/screen.cpp **** 	if (enable) {
 193              		.loc 1 140 2 view .LVU29
 139:Core/Src/screen.cpp **** 	if (enable) {
 194              		.loc 1 139 43 is_stmt 0 view .LVU30
 195 0000 10B5     		push	{r4, lr}
 196              		.save {r4, lr}
 197              	.LCFI3:
 198              		.cfi_def_cfa_offset 8
 199              		.cfi_offset 4, -8
 200              		.cfi_offset 14, -4
ARM GAS  /tmp/cc5TwoZ8.s 			page 7


 201 0002 1C30     		adds	r0, r0, #28
 202              	.LVL9:
 203              		.loc 1 140 2 view .LVU31
 204 0004 0029     		cmp	r1, #0
 205 0006 02D0     		beq	.L6
 141:Core/Src/screen.cpp **** 		this -> BKLT.set();
 206              		.loc 1 141 3 is_stmt 1 view .LVU32
 207              		.loc 1 141 19 is_stmt 0 view .LVU33
 208 0008 FFF7FEFF 		bl	_ZNK6IO_Pin3setEv
 209              	.LVL10:
 210              	.L5:
 142:Core/Src/screen.cpp **** 	} else {
 143:Core/Src/screen.cpp **** 		this -> BKLT.reset();
 144:Core/Src/screen.cpp **** 	}
 145:Core/Src/screen.cpp **** }
 211              		.loc 1 145 1 view .LVU34
 212              		@ sp needed
 213 000c 10BD     		pop	{r4, pc}
 214              	.LVL11:
 215              	.L6:
 143:Core/Src/screen.cpp **** 	}
 216              		.loc 1 143 3 is_stmt 1 view .LVU35
 143:Core/Src/screen.cpp **** 	}
 217              		.loc 1 143 21 is_stmt 0 view .LVU36
 218 000e FFF7FEFF 		bl	_ZNK6IO_Pin5resetEv
 219              	.LVL12:
 220              		.loc 1 145 1 view .LVU37
 221 0012 FBE7     		b	.L5
 222              		.cfi_endproc
 223              	.LFE431:
 224              		.fnend
 226              		.section	.text._ZN6Screen5resetEv,"ax",%progbits
 227              		.align	1
 228              		.global	_ZN6Screen5resetEv
 229              		.syntax unified
 230              		.code	16
 231              		.thumb_func
 233              	_ZN6Screen5resetEv:
 234              		.fnstart
 235              	.LVL13:
 236              	.LFB433:
 146:Core/Src/screen.cpp **** 
 147:Core/Src/screen.cpp **** void Screen::fillArea(uint16_t startX, uint16_t startY, uint16_t endX, uint16_t endY, uint16_t colo
 148:Core/Src/screen.cpp **** 	sendCommand(0x2A);
 149:Core/Src/screen.cpp **** 	sendData(0x00);
 150:Core/Src/screen.cpp **** 	sendData(startX + 2);
 151:Core/Src/screen.cpp **** 	sendData(0x00);
 152:Core/Src/screen.cpp **** 	sendData(endX + 2);
 153:Core/Src/screen.cpp **** 
 154:Core/Src/screen.cpp **** 	sendCommand(0x2B);
 155:Core/Src/screen.cpp **** 	sendData(0x00);
 156:Core/Src/screen.cpp **** 	sendData(startY + 3);
 157:Core/Src/screen.cpp **** 	sendData(0x00);
 158:Core/Src/screen.cpp **** 	sendData(endY + 3);
 159:Core/Src/screen.cpp **** 
 160:Core/Src/screen.cpp **** 	sendCommand(0x2C);
 161:Core/Src/screen.cpp **** 	sendData(0x00);
ARM GAS  /tmp/cc5TwoZ8.s 			page 8


 162:Core/Src/screen.cpp **** 
 163:Core/Src/screen.cpp **** 	for (int i = 0; i < (endX - startX); ++i) {
 164:Core/Src/screen.cpp **** 		for (int j = 0; j < (endY - startY); ++j) {
 165:Core/Src/screen.cpp **** 			sendWdata(color);
 166:Core/Src/screen.cpp **** 		}
 167:Core/Src/screen.cpp **** 	}
 168:Core/Src/screen.cpp **** }
 169:Core/Src/screen.cpp **** 
 170:Core/Src/screen.cpp **** void Screen::reset() {
 237              		.loc 1 170 22 is_stmt 1 view -0
 238              		.cfi_startproc
 239              		@ args = 0, pretend = 0, frame = 0
 240              		@ frame_needed = 0, uses_anonymous_args = 0
 171:Core/Src/screen.cpp **** 	this -> RES.reset();
 241              		.loc 1 171 2 view .LVU39
 242              		.loc 1 171 19 is_stmt 0 view .LVU40
 243 0000 0C30     		adds	r0, r0, #12
 244              	.LVL14:
 170:Core/Src/screen.cpp **** 	this -> RES.reset();
 245              		.loc 1 170 22 view .LVU41
 246 0002 10B5     		push	{r4, lr}
 247              		.save {r4, lr}
 248              	.LCFI4:
 249              		.cfi_def_cfa_offset 8
 250              		.cfi_offset 4, -8
 251              		.cfi_offset 14, -4
 252              		.loc 1 171 19 view .LVU42
 253 0004 0400     		movs	r4, r0
 172:Core/Src/screen.cpp **** 	HAL_Delay(100);
 173:Core/Src/screen.cpp **** 	this -> RES.set();
 174:Core/Src/screen.cpp **** 	HAL_Delay(50);
 175:Core/Src/screen.cpp **** }
 254              		.loc 1 175 1 view .LVU43
 255              		@ sp needed
 171:Core/Src/screen.cpp **** 	HAL_Delay(100);
 256              		.loc 1 171 19 view .LVU44
 257 0006 FFF7FEFF 		bl	_ZNK6IO_Pin5resetEv
 258              	.LVL15:
 172:Core/Src/screen.cpp **** 	HAL_Delay(100);
 259              		.loc 1 172 2 is_stmt 1 view .LVU45
 172:Core/Src/screen.cpp **** 	HAL_Delay(100);
 260              		.loc 1 172 11 is_stmt 0 view .LVU46
 261 000a 6420     		movs	r0, #100
 262 000c FFF7FEFF 		bl	HAL_Delay
 263              	.LVL16:
 173:Core/Src/screen.cpp **** 	HAL_Delay(50);
 264              		.loc 1 173 2 is_stmt 1 view .LVU47
 173:Core/Src/screen.cpp **** 	HAL_Delay(50);
 265              		.loc 1 173 17 is_stmt 0 view .LVU48
 266 0010 2000     		movs	r0, r4
 267 0012 FFF7FEFF 		bl	_ZNK6IO_Pin3setEv
 268              	.LVL17:
 174:Core/Src/screen.cpp **** }
 269              		.loc 1 174 2 is_stmt 1 view .LVU49
 174:Core/Src/screen.cpp **** }
 270              		.loc 1 174 11 is_stmt 0 view .LVU50
 271 0016 3220     		movs	r0, #50
ARM GAS  /tmp/cc5TwoZ8.s 			page 9


 272 0018 FFF7FEFF 		bl	HAL_Delay
 273              	.LVL18:
 274              	.LVL19:
 275              		.loc 1 175 1 view .LVU51
 276 001c 10BD     		pop	{r4, pc}
 277              		.cfi_endproc
 278              	.LFE433:
 279              		.fnend
 281              		.section	.text._ZN6Screen11sendCommandEh,"ax",%progbits
 282              		.align	1
 283              		.global	_ZN6Screen11sendCommandEh
 284              		.syntax unified
 285              		.code	16
 286              		.thumb_func
 288              	_ZN6Screen11sendCommandEh:
 289              		.fnstart
 290              	.LVL20:
 291              	.LFB436:
 176:Core/Src/screen.cpp **** 
 177:Core/Src/screen.cpp **** void Screen::drawFont(uint16_t x, uint16_t y, char *str, uint8_t length, uint16_t color) {
 178:Core/Src/screen.cpp **** 	uint16_t currentX = x;
 179:Core/Src/screen.cpp **** 	
 180:Core/Src/screen.cpp **** 	for (int i = 0 ; i < length ; ++i) {
 181:Core/Src/screen.cpp **** 		setRegion(currentX, y, currentX + 16, y + 30);
 182:Core/Src/screen.cpp **** 		sendData(0x00);
 183:Core/Src/screen.cpp **** 		
 184:Core/Src/screen.cpp **** 		if (str[i] == '.') {
 185:Core/Src/screen.cpp **** 			for (const auto& item : fonts[10]) {
 186:Core/Src/screen.cpp **** 				sendWdata(((item >> 7) & 0x01) ? 0x0000 : color);
 187:Core/Src/screen.cpp **** 				sendWdata(((item >> 6) & 0x01) ? 0x0000 : color);
 188:Core/Src/screen.cpp **** 				sendWdata(((item >> 5) & 0x01) ? 0x0000 : color);
 189:Core/Src/screen.cpp **** 				sendWdata(((item >> 4) & 0x01) ? 0x0000 : color);
 190:Core/Src/screen.cpp **** 				sendWdata(((item >> 3) & 0x01) ? 0x0000 : color);
 191:Core/Src/screen.cpp **** 				sendWdata(((item >> 2) & 0x01) ? 0x0000 : color);
 192:Core/Src/screen.cpp **** 				sendWdata(((item >> 1) & 0x01) ? 0x0000 : color);
 193:Core/Src/screen.cpp **** 				sendWdata((item & 0x01) ? 0x0000 : color);
 194:Core/Src/screen.cpp **** 			}
 195:Core/Src/screen.cpp **** 		} else {
 196:Core/Src/screen.cpp **** 			for (const auto& item : fonts[str[i] - '0']) {
 197:Core/Src/screen.cpp **** 				sendWdata(((item >> 7) & 0x01) ? 0x0000 : color);
 198:Core/Src/screen.cpp **** 				sendWdata(((item >> 6) & 0x01) ? 0x0000 : color);
 199:Core/Src/screen.cpp **** 				sendWdata(((item >> 5) & 0x01) ? 0x0000 : color);
 200:Core/Src/screen.cpp **** 				sendWdata(((item >> 4) & 0x01) ? 0x0000 : color);
 201:Core/Src/screen.cpp **** 				sendWdata(((item >> 3) & 0x01) ? 0x0000 : color);
 202:Core/Src/screen.cpp **** 				sendWdata(((item >> 2) & 0x01) ? 0x0000 : color);
 203:Core/Src/screen.cpp **** 				sendWdata(((item >> 1) & 0x01) ? 0x0000 : color);
 204:Core/Src/screen.cpp **** 				sendWdata((item & 0x01) ? 0x0000 : color);
 205:Core/Src/screen.cpp **** 			}
 206:Core/Src/screen.cpp **** 		}
 207:Core/Src/screen.cpp **** 		currentX += 16;
 208:Core/Src/screen.cpp **** 	}
 209:Core/Src/screen.cpp **** }
 210:Core/Src/screen.cpp **** 
 211:Core/Src/screen.cpp **** void Screen::setRegion(uint16_t startX, uint16_t startY, uint16_t stopX, uint16_t stopY) {
 212:Core/Src/screen.cpp **** 	sendCommand(0x2A);
 213:Core/Src/screen.cpp **** 	sendData(0x00);
 214:Core/Src/screen.cpp **** 	sendData(startX + 2);
ARM GAS  /tmp/cc5TwoZ8.s 			page 10


 215:Core/Src/screen.cpp **** 	sendData(0x00);
 216:Core/Src/screen.cpp **** 	sendData(stopX + 1);
 217:Core/Src/screen.cpp **** 	
 218:Core/Src/screen.cpp **** 	sendCommand(0x2B);
 219:Core/Src/screen.cpp **** 	sendData(0x00);
 220:Core/Src/screen.cpp **** 	sendData(startY + 3);
 221:Core/Src/screen.cpp **** 	sendData(0x00);
 222:Core/Src/screen.cpp **** 	sendData(stopY + 2);
 223:Core/Src/screen.cpp **** 	
 224:Core/Src/screen.cpp **** 	sendCommand(0x2C);
 225:Core/Src/screen.cpp **** }
 226:Core/Src/screen.cpp **** 
 227:Core/Src/screen.cpp **** void Screen::sendCommand(uint8_t command) {
 292              		.loc 1 227 43 is_stmt 1 view -0
 293              		.cfi_startproc
 294              		@ args = 0, pretend = 0, frame = 8
 295              		@ frame_needed = 0, uses_anonymous_args = 0
 228:Core/Src/screen.cpp **** 	this -> CS.reset();
 296              		.loc 1 228 2 view .LVU53
 227:Core/Src/screen.cpp **** 	this -> CS.reset();
 297              		.loc 1 227 43 is_stmt 0 view .LVU54
 298 0000 73B5     		push	{r0, r1, r4, r5, r6, lr}
 299              		.save {r0, r1, r4, r5, r6, lr}
 300              	.LCFI5:
 301              		.cfi_def_cfa_offset 24
 302              		.cfi_offset 0, -24
 303              		.cfi_offset 1, -20
 304              		.cfi_offset 4, -16
 305              		.cfi_offset 5, -12
 306              		.cfi_offset 6, -8
 307              		.cfi_offset 14, -4
 227:Core/Src/screen.cpp **** 	this -> CS.reset();
 308              		.loc 1 227 43 view .LVU55
 309 0002 0400     		movs	r4, r0
 229:Core/Src/screen.cpp **** 	this -> DC.reset();
 230:Core/Src/screen.cpp **** 	HAL_SPI_Transmit(spi, &command, 1, 1000);
 231:Core/Src/screen.cpp **** 	this -> CS.set();
 232:Core/Src/screen.cpp **** }
 310              		.loc 1 232 1 view .LVU56
 311              		@ sp needed
 227:Core/Src/screen.cpp **** 	this -> CS.reset();
 312              		.loc 1 227 43 view .LVU57
 313 0004 6B46     		mov	r3, sp
 228:Core/Src/screen.cpp **** 	this -> DC.reset();
 314              		.loc 1 228 18 view .LVU58
 315 0006 051D     		adds	r5, r0, #4
 316 0008 2800     		movs	r0, r5
 317              	.LVL21:
 227:Core/Src/screen.cpp **** 	this -> CS.reset();
 318              		.loc 1 227 43 view .LVU59
 319 000a DE1D     		adds	r6, r3, #7
 320 000c D971     		strb	r1, [r3, #7]
 228:Core/Src/screen.cpp **** 	this -> DC.reset();
 321              		.loc 1 228 18 view .LVU60
 322 000e FFF7FEFF 		bl	_ZNK6IO_Pin5resetEv
 323              	.LVL22:
 229:Core/Src/screen.cpp **** 	this -> DC.reset();
ARM GAS  /tmp/cc5TwoZ8.s 			page 11


 324              		.loc 1 229 2 is_stmt 1 view .LVU61
 229:Core/Src/screen.cpp **** 	this -> DC.reset();
 325              		.loc 1 229 18 is_stmt 0 view .LVU62
 326 0012 2000     		movs	r0, r4
 327 0014 1430     		adds	r0, r0, #20
 328 0016 FFF7FEFF 		bl	_ZNK6IO_Pin5resetEv
 329              	.LVL23:
 230:Core/Src/screen.cpp **** 	this -> CS.set();
 330              		.loc 1 230 2 is_stmt 1 view .LVU63
 230:Core/Src/screen.cpp **** 	this -> CS.set();
 331              		.loc 1 230 18 is_stmt 0 view .LVU64
 332 001a FA23     		movs	r3, #250
 333 001c 3100     		movs	r1, r6
 334 001e 0122     		movs	r2, #1
 335 0020 9B00     		lsls	r3, r3, #2
 336 0022 2068     		ldr	r0, [r4]
 337 0024 FFF7FEFF 		bl	HAL_SPI_Transmit
 338              	.LVL24:
 231:Core/Src/screen.cpp **** }
 339              		.loc 1 231 2 is_stmt 1 view .LVU65
 231:Core/Src/screen.cpp **** }
 340              		.loc 1 231 16 is_stmt 0 view .LVU66
 341 0028 2800     		movs	r0, r5
 342 002a FFF7FEFF 		bl	_ZNK6IO_Pin3setEv
 343              	.LVL25:
 344              	.LVL26:
 345              	.LVL27:
 346              		.loc 1 232 1 view .LVU67
 347 002e 73BD     		pop	{r0, r1, r4, r5, r6, pc}
 348              		.cfi_endproc
 349              	.LFE436:
 350              		.fnend
 352              		.section	.text._ZN6Screen8sendDataEh,"ax",%progbits
 353              		.align	1
 354              		.global	_ZN6Screen8sendDataEh
 355              		.syntax unified
 356              		.code	16
 357              		.thumb_func
 359              	_ZN6Screen8sendDataEh:
 360              		.fnstart
 361              	.LVL28:
 362              	.LFB437:
 233:Core/Src/screen.cpp **** 
 234:Core/Src/screen.cpp **** void Screen::sendData(uint8_t data) {
 363              		.loc 1 234 37 is_stmt 1 view -0
 364              		.cfi_startproc
 365              		@ args = 0, pretend = 0, frame = 8
 366              		@ frame_needed = 0, uses_anonymous_args = 0
 235:Core/Src/screen.cpp **** 	this -> CS.reset();
 367              		.loc 1 235 2 view .LVU69
 234:Core/Src/screen.cpp **** 	this -> CS.reset();
 368              		.loc 1 234 37 is_stmt 0 view .LVU70
 369 0000 73B5     		push	{r0, r1, r4, r5, r6, lr}
 370              		.save {r0, r1, r4, r5, r6, lr}
 371              	.LCFI6:
 372              		.cfi_def_cfa_offset 24
 373              		.cfi_offset 0, -24
ARM GAS  /tmp/cc5TwoZ8.s 			page 12


 374              		.cfi_offset 1, -20
 375              		.cfi_offset 4, -16
 376              		.cfi_offset 5, -12
 377              		.cfi_offset 6, -8
 378              		.cfi_offset 14, -4
 234:Core/Src/screen.cpp **** 	this -> CS.reset();
 379              		.loc 1 234 37 view .LVU71
 380 0002 0400     		movs	r4, r0
 236:Core/Src/screen.cpp **** 	this -> DC.set();
 237:Core/Src/screen.cpp **** 	HAL_SPI_Transmit(spi, &data, 1, 1000);
 238:Core/Src/screen.cpp **** 	this -> CS.set();
 239:Core/Src/screen.cpp **** }
 381              		.loc 1 239 1 view .LVU72
 382              		@ sp needed
 234:Core/Src/screen.cpp **** 	this -> CS.reset();
 383              		.loc 1 234 37 view .LVU73
 384 0004 6B46     		mov	r3, sp
 235:Core/Src/screen.cpp **** 	this -> DC.set();
 385              		.loc 1 235 18 view .LVU74
 386 0006 051D     		adds	r5, r0, #4
 387 0008 2800     		movs	r0, r5
 388              	.LVL29:
 234:Core/Src/screen.cpp **** 	this -> CS.reset();
 389              		.loc 1 234 37 view .LVU75
 390 000a DE1D     		adds	r6, r3, #7
 391 000c D971     		strb	r1, [r3, #7]
 235:Core/Src/screen.cpp **** 	this -> DC.set();
 392              		.loc 1 235 18 view .LVU76
 393 000e FFF7FEFF 		bl	_ZNK6IO_Pin5resetEv
 394              	.LVL30:
 236:Core/Src/screen.cpp **** 	this -> DC.set();
 395              		.loc 1 236 2 is_stmt 1 view .LVU77
 236:Core/Src/screen.cpp **** 	this -> DC.set();
 396              		.loc 1 236 16 is_stmt 0 view .LVU78
 397 0012 2000     		movs	r0, r4
 398 0014 1430     		adds	r0, r0, #20
 399 0016 FFF7FEFF 		bl	_ZNK6IO_Pin3setEv
 400              	.LVL31:
 237:Core/Src/screen.cpp **** 	this -> CS.set();
 401              		.loc 1 237 2 is_stmt 1 view .LVU79
 237:Core/Src/screen.cpp **** 	this -> CS.set();
 402              		.loc 1 237 18 is_stmt 0 view .LVU80
 403 001a FA23     		movs	r3, #250
 404 001c 3100     		movs	r1, r6
 405 001e 0122     		movs	r2, #1
 406 0020 9B00     		lsls	r3, r3, #2
 407 0022 2068     		ldr	r0, [r4]
 408 0024 FFF7FEFF 		bl	HAL_SPI_Transmit
 409              	.LVL32:
 238:Core/Src/screen.cpp **** }
 410              		.loc 1 238 2 is_stmt 1 view .LVU81
 238:Core/Src/screen.cpp **** }
 411              		.loc 1 238 16 is_stmt 0 view .LVU82
 412 0028 2800     		movs	r0, r5
 413 002a FFF7FEFF 		bl	_ZNK6IO_Pin3setEv
 414              	.LVL33:
 415              	.LVL34:
ARM GAS  /tmp/cc5TwoZ8.s 			page 13


 416              	.LVL35:
 417              		.loc 1 239 1 view .LVU83
 418 002e 73BD     		pop	{r0, r1, r4, r5, r6, pc}
 419              		.cfi_endproc
 420              	.LFE437:
 421              		.fnend
 423              		.section	.text._ZN6ScreenC2EP19__SPI_HandleTypeDef6IO_PinS2_S2_S2_,"ax",%progbits
 424              		.align	1
 425              		.global	_ZN6ScreenC2EP19__SPI_HandleTypeDef6IO_PinS2_S2_S2_
 426              		.syntax unified
 427              		.code	16
 428              		.thumb_func
 430              	_ZN6ScreenC2EP19__SPI_HandleTypeDef6IO_PinS2_S2_S2_:
 431              		.fnstart
 432              	.LVL36:
 433              	.LFB429:
  20:Core/Src/screen.cpp **** 	reset();
 434              		.loc 1 20 1 is_stmt 1 view -0
 435              		.cfi_startproc
 436              		@ args = 24, pretend = 0, frame = 8
 437              		@ frame_needed = 0, uses_anonymous_args = 0
  20:Core/Src/screen.cpp **** 	reset();
 438              		.loc 1 20 1 is_stmt 0 view .LVU85
 439 0000 13B5     		push	{r0, r1, r4, lr}
 440              		.save {r0, r1, r4, lr}
 441              	.LCFI7:
 442              		.cfi_def_cfa_offset 16
 443              		.cfi_offset 0, -16
 444              		.cfi_offset 1, -12
 445              		.cfi_offset 4, -8
 446              		.cfi_offset 14, -4
  20:Core/Src/screen.cpp **** 	reset();
 447              		.loc 1 20 1 view .LVU86
 448 0002 0400     		movs	r4, r0
 137:Core/Src/screen.cpp **** 
 449              		.loc 1 137 1 view .LVU87
 450              		@ sp needed
  20:Core/Src/screen.cpp **** 	reset();
 451              		.loc 1 20 1 view .LVU88
 452 0004 6846     		mov	r0, sp
 453              	.LVL37:
  20:Core/Src/screen.cpp **** 	reset();
 454              		.loc 1 20 1 view .LVU89
 455 0006 4360     		str	r3, [r0, #4]
 456              	.LBB17:
  20:Core/Src/screen.cpp **** 	reset();
 457              		.loc 1 20 89 view .LVU90
 458 0008 2300     		movs	r3, r4
 459              	.LBE17:
  20:Core/Src/screen.cpp **** 	reset();
 460              		.loc 1 20 1 view .LVU91
 461 000a 0092     		str	r2, [sp]
 462              	.LBB18:
  20:Core/Src/screen.cpp **** 	reset();
 463              		.loc 1 20 89 view .LVU92
 464 000c 02C3     		stmia	r3!, {r1}
  20:Core/Src/screen.cpp **** 	reset();
ARM GAS  /tmp/cc5TwoZ8.s 			page 14


 465              		.loc 1 20 100 view .LVU93
 466 000e 06C8     		ldmia	r0!, {r1, r2}
 467 0010 06C3     		stmia	r3!, {r1, r2}
 468              	.LVL38:
  20:Core/Src/screen.cpp **** 	reset();
 469              		.loc 1 20 108 view .LVU94
 470 0012 2300     		movs	r3, r4
 471 0014 04AA     		add	r2, sp, #16
 472 0016 0C33     		adds	r3, r3, #12
 473 0018 03CA     		ldmia	r2!, {r0, r1}
 474 001a 03C3     		stmia	r3!, {r0, r1}
  20:Core/Src/screen.cpp **** 	reset();
 475              		.loc 1 20 118 view .LVU95
 476 001c 03CA     		ldmia	r2!, {r0, r1}
 477 001e 03C3     		stmia	r3!, {r0, r1}
  20:Core/Src/screen.cpp **** 	reset();
 478              		.loc 1 20 126 view .LVU96
 479 0020 03CA     		ldmia	r2!, {r0, r1}
 480 0022 03C3     		stmia	r3!, {r0, r1}
  21:Core/Src/screen.cpp **** 	sendCommand(0x11); // Exit sleep mode.
 481              		.loc 1 21 2 is_stmt 1 view .LVU97
  21:Core/Src/screen.cpp **** 	sendCommand(0x11); // Exit sleep mode.
 482              		.loc 1 21 7 is_stmt 0 view .LVU98
 483 0024 2000     		movs	r0, r4
 484 0026 FFF7FEFF 		bl	_ZN6Screen5resetEv
 485              	.LVL39:
  22:Core/Src/screen.cpp **** 
 486              		.loc 1 22 2 is_stmt 1 view .LVU99
  22:Core/Src/screen.cpp **** 
 487              		.loc 1 22 13 is_stmt 0 view .LVU100
 488 002a 1121     		movs	r1, #17
 489 002c 2000     		movs	r0, r4
 490 002e FFF7FEFF 		bl	_ZN6Screen11sendCommandEh
 491              	.LVL40:
  24:Core/Src/screen.cpp **** 
 492              		.loc 1 24 2 is_stmt 1 view .LVU101
  24:Core/Src/screen.cpp **** 
 493              		.loc 1 24 11 is_stmt 0 view .LVU102
 494 0032 7820     		movs	r0, #120
 495 0034 FFF7FEFF 		bl	HAL_Delay
 496              	.LVL41:
  27:Core/Src/screen.cpp **** 	sendData(0x01);
 497              		.loc 1 27 2 is_stmt 1 view .LVU103
  27:Core/Src/screen.cpp **** 	sendData(0x01);
 498              		.loc 1 27 13 is_stmt 0 view .LVU104
 499 0038 B121     		movs	r1, #177
 500 003a 2000     		movs	r0, r4
 501 003c FFF7FEFF 		bl	_ZN6Screen11sendCommandEh
 502              	.LVL42:
  28:Core/Src/screen.cpp **** 	sendData(0x2C);
 503              		.loc 1 28 2 is_stmt 1 view .LVU105
  28:Core/Src/screen.cpp **** 	sendData(0x2C);
 504              		.loc 1 28 10 is_stmt 0 view .LVU106
 505 0040 0121     		movs	r1, #1
 506 0042 2000     		movs	r0, r4
 507 0044 FFF7FEFF 		bl	_ZN6Screen8sendDataEh
 508              	.LVL43:
ARM GAS  /tmp/cc5TwoZ8.s 			page 15


  29:Core/Src/screen.cpp **** 	sendData(0x2D);
 509              		.loc 1 29 2 is_stmt 1 view .LVU107
  29:Core/Src/screen.cpp **** 	sendData(0x2D);
 510              		.loc 1 29 10 is_stmt 0 view .LVU108
 511 0048 2C21     		movs	r1, #44
 512 004a 2000     		movs	r0, r4
 513 004c FFF7FEFF 		bl	_ZN6Screen8sendDataEh
 514              	.LVL44:
  30:Core/Src/screen.cpp **** 
 515              		.loc 1 30 2 is_stmt 1 view .LVU109
  30:Core/Src/screen.cpp **** 
 516              		.loc 1 30 10 is_stmt 0 view .LVU110
 517 0050 2D21     		movs	r1, #45
 518 0052 2000     		movs	r0, r4
 519 0054 FFF7FEFF 		bl	_ZN6Screen8sendDataEh
 520              	.LVL45:
  32:Core/Src/screen.cpp **** 	sendData(0x01);
 521              		.loc 1 32 2 is_stmt 1 view .LVU111
  32:Core/Src/screen.cpp **** 	sendData(0x01);
 522              		.loc 1 32 13 is_stmt 0 view .LVU112
 523 0058 B221     		movs	r1, #178
 524 005a 2000     		movs	r0, r4
 525 005c FFF7FEFF 		bl	_ZN6Screen11sendCommandEh
 526              	.LVL46:
  33:Core/Src/screen.cpp **** 	sendData(0x2C);
 527              		.loc 1 33 2 is_stmt 1 view .LVU113
  33:Core/Src/screen.cpp **** 	sendData(0x2C);
 528              		.loc 1 33 10 is_stmt 0 view .LVU114
 529 0060 0121     		movs	r1, #1
 530 0062 2000     		movs	r0, r4
 531 0064 FFF7FEFF 		bl	_ZN6Screen8sendDataEh
 532              	.LVL47:
  34:Core/Src/screen.cpp **** 	sendData(0x2D);
 533              		.loc 1 34 2 is_stmt 1 view .LVU115
  34:Core/Src/screen.cpp **** 	sendData(0x2D);
 534              		.loc 1 34 10 is_stmt 0 view .LVU116
 535 0068 2C21     		movs	r1, #44
 536 006a 2000     		movs	r0, r4
 537 006c FFF7FEFF 		bl	_ZN6Screen8sendDataEh
 538              	.LVL48:
  35:Core/Src/screen.cpp **** 
 539              		.loc 1 35 2 is_stmt 1 view .LVU117
  35:Core/Src/screen.cpp **** 
 540              		.loc 1 35 10 is_stmt 0 view .LVU118
 541 0070 2D21     		movs	r1, #45
 542 0072 2000     		movs	r0, r4
 543 0074 FFF7FEFF 		bl	_ZN6Screen8sendDataEh
 544              	.LVL49:
  37:Core/Src/screen.cpp **** 	sendData(0x01);
 545              		.loc 1 37 2 is_stmt 1 view .LVU119
  37:Core/Src/screen.cpp **** 	sendData(0x01);
 546              		.loc 1 37 13 is_stmt 0 view .LVU120
 547 0078 B321     		movs	r1, #179
 548 007a 2000     		movs	r0, r4
 549 007c FFF7FEFF 		bl	_ZN6Screen11sendCommandEh
 550              	.LVL50:
  38:Core/Src/screen.cpp **** 	sendData(0x2C);
ARM GAS  /tmp/cc5TwoZ8.s 			page 16


 551              		.loc 1 38 2 is_stmt 1 view .LVU121
  38:Core/Src/screen.cpp **** 	sendData(0x2C);
 552              		.loc 1 38 10 is_stmt 0 view .LVU122
 553 0080 0121     		movs	r1, #1
 554 0082 2000     		movs	r0, r4
 555 0084 FFF7FEFF 		bl	_ZN6Screen8sendDataEh
 556              	.LVL51:
  39:Core/Src/screen.cpp **** 	sendData(0x2D);
 557              		.loc 1 39 2 is_stmt 1 view .LVU123
  39:Core/Src/screen.cpp **** 	sendData(0x2D);
 558              		.loc 1 39 10 is_stmt 0 view .LVU124
 559 0088 2C21     		movs	r1, #44
 560 008a 2000     		movs	r0, r4
 561 008c FFF7FEFF 		bl	_ZN6Screen8sendDataEh
 562              	.LVL52:
  40:Core/Src/screen.cpp **** 	sendData(0x01);
 563              		.loc 1 40 2 is_stmt 1 view .LVU125
  40:Core/Src/screen.cpp **** 	sendData(0x01);
 564              		.loc 1 40 10 is_stmt 0 view .LVU126
 565 0090 2D21     		movs	r1, #45
 566 0092 2000     		movs	r0, r4
 567 0094 FFF7FEFF 		bl	_ZN6Screen8sendDataEh
 568              	.LVL53:
  41:Core/Src/screen.cpp **** 	sendData(0x2C);
 569              		.loc 1 41 2 is_stmt 1 view .LVU127
  41:Core/Src/screen.cpp **** 	sendData(0x2C);
 570              		.loc 1 41 10 is_stmt 0 view .LVU128
 571 0098 0121     		movs	r1, #1
 572 009a 2000     		movs	r0, r4
 573 009c FFF7FEFF 		bl	_ZN6Screen8sendDataEh
 574              	.LVL54:
  42:Core/Src/screen.cpp **** 	sendData(0x2D);
 575              		.loc 1 42 2 is_stmt 1 view .LVU129
  42:Core/Src/screen.cpp **** 	sendData(0x2D);
 576              		.loc 1 42 10 is_stmt 0 view .LVU130
 577 00a0 2C21     		movs	r1, #44
 578 00a2 2000     		movs	r0, r4
 579 00a4 FFF7FEFF 		bl	_ZN6Screen8sendDataEh
 580              	.LVL55:
  43:Core/Src/screen.cpp **** 
 581              		.loc 1 43 2 is_stmt 1 view .LVU131
  43:Core/Src/screen.cpp **** 
 582              		.loc 1 43 10 is_stmt 0 view .LVU132
 583 00a8 2D21     		movs	r1, #45
 584 00aa 2000     		movs	r0, r4
 585 00ac FFF7FEFF 		bl	_ZN6Screen8sendDataEh
 586              	.LVL56:
  46:Core/Src/screen.cpp **** 	sendData(0x07);
 587              		.loc 1 46 2 is_stmt 1 view .LVU133
  46:Core/Src/screen.cpp **** 	sendData(0x07);
 588              		.loc 1 46 13 is_stmt 0 view .LVU134
 589 00b0 B421     		movs	r1, #180
 590 00b2 2000     		movs	r0, r4
 591 00b4 FFF7FEFF 		bl	_ZN6Screen11sendCommandEh
 592              	.LVL57:
  47:Core/Src/screen.cpp **** 
 593              		.loc 1 47 2 is_stmt 1 view .LVU135
ARM GAS  /tmp/cc5TwoZ8.s 			page 17


  47:Core/Src/screen.cpp **** 
 594              		.loc 1 47 10 is_stmt 0 view .LVU136
 595 00b8 0721     		movs	r1, #7
 596 00ba 2000     		movs	r0, r4
 597 00bc FFF7FEFF 		bl	_ZN6Screen8sendDataEh
 598              	.LVL58:
  50:Core/Src/screen.cpp **** 	sendData(0xA2);
 599              		.loc 1 50 2 is_stmt 1 view .LVU137
  50:Core/Src/screen.cpp **** 	sendData(0xA2);
 600              		.loc 1 50 13 is_stmt 0 view .LVU138
 601 00c0 C021     		movs	r1, #192
 602 00c2 2000     		movs	r0, r4
 603 00c4 FFF7FEFF 		bl	_ZN6Screen11sendCommandEh
 604              	.LVL59:
  51:Core/Src/screen.cpp **** 	sendData(0x02);
 605              		.loc 1 51 2 is_stmt 1 view .LVU139
  51:Core/Src/screen.cpp **** 	sendData(0x02);
 606              		.loc 1 51 10 is_stmt 0 view .LVU140
 607 00c8 A221     		movs	r1, #162
 608 00ca 2000     		movs	r0, r4
 609 00cc FFF7FEFF 		bl	_ZN6Screen8sendDataEh
 610              	.LVL60:
  52:Core/Src/screen.cpp **** 	sendData(0x84);
 611              		.loc 1 52 2 is_stmt 1 view .LVU141
  52:Core/Src/screen.cpp **** 	sendData(0x84);
 612              		.loc 1 52 10 is_stmt 0 view .LVU142
 613 00d0 0221     		movs	r1, #2
 614 00d2 2000     		movs	r0, r4
 615 00d4 FFF7FEFF 		bl	_ZN6Screen8sendDataEh
 616              	.LVL61:
  53:Core/Src/screen.cpp **** 	sendCommand(0xC1);
 617              		.loc 1 53 2 is_stmt 1 view .LVU143
  53:Core/Src/screen.cpp **** 	sendCommand(0xC1);
 618              		.loc 1 53 10 is_stmt 0 view .LVU144
 619 00d8 8421     		movs	r1, #132
 620 00da 2000     		movs	r0, r4
 621 00dc FFF7FEFF 		bl	_ZN6Screen8sendDataEh
 622              	.LVL62:
  54:Core/Src/screen.cpp **** 	sendData(0xC5);
 623              		.loc 1 54 2 is_stmt 1 view .LVU145
  54:Core/Src/screen.cpp **** 	sendData(0xC5);
 624              		.loc 1 54 13 is_stmt 0 view .LVU146
 625 00e0 C121     		movs	r1, #193
 626 00e2 2000     		movs	r0, r4
 627 00e4 FFF7FEFF 		bl	_ZN6Screen11sendCommandEh
 628              	.LVL63:
  55:Core/Src/screen.cpp **** 
 629              		.loc 1 55 2 is_stmt 1 view .LVU147
  55:Core/Src/screen.cpp **** 
 630              		.loc 1 55 10 is_stmt 0 view .LVU148
 631 00e8 C521     		movs	r1, #197
 632 00ea 2000     		movs	r0, r4
 633 00ec FFF7FEFF 		bl	_ZN6Screen8sendDataEh
 634              	.LVL64:
  57:Core/Src/screen.cpp **** 	sendData(0x0A);
 635              		.loc 1 57 2 is_stmt 1 view .LVU149
  57:Core/Src/screen.cpp **** 	sendData(0x0A);
ARM GAS  /tmp/cc5TwoZ8.s 			page 18


 636              		.loc 1 57 13 is_stmt 0 view .LVU150
 637 00f0 C221     		movs	r1, #194
 638 00f2 2000     		movs	r0, r4
 639 00f4 FFF7FEFF 		bl	_ZN6Screen11sendCommandEh
 640              	.LVL65:
  58:Core/Src/screen.cpp **** 	sendData(0x00);
 641              		.loc 1 58 2 is_stmt 1 view .LVU151
  58:Core/Src/screen.cpp **** 	sendData(0x00);
 642              		.loc 1 58 10 is_stmt 0 view .LVU152
 643 00f8 0A21     		movs	r1, #10
 644 00fa 2000     		movs	r0, r4
 645 00fc FFF7FEFF 		bl	_ZN6Screen8sendDataEh
 646              	.LVL66:
  59:Core/Src/screen.cpp **** 
 647              		.loc 1 59 2 is_stmt 1 view .LVU153
  59:Core/Src/screen.cpp **** 
 648              		.loc 1 59 10 is_stmt 0 view .LVU154
 649 0100 0021     		movs	r1, #0
 650 0102 2000     		movs	r0, r4
 651 0104 FFF7FEFF 		bl	_ZN6Screen8sendDataEh
 652              	.LVL67:
  61:Core/Src/screen.cpp **** 	sendData(0x8A);
 653              		.loc 1 61 2 is_stmt 1 view .LVU155
  61:Core/Src/screen.cpp **** 	sendData(0x8A);
 654              		.loc 1 61 13 is_stmt 0 view .LVU156
 655 0108 C321     		movs	r1, #195
 656 010a 2000     		movs	r0, r4
 657 010c FFF7FEFF 		bl	_ZN6Screen11sendCommandEh
 658              	.LVL68:
  62:Core/Src/screen.cpp **** 	sendData(0x2A);
 659              		.loc 1 62 2 is_stmt 1 view .LVU157
  62:Core/Src/screen.cpp **** 	sendData(0x2A);
 660              		.loc 1 62 10 is_stmt 0 view .LVU158
 661 0110 8A21     		movs	r1, #138
 662 0112 2000     		movs	r0, r4
 663 0114 FFF7FEFF 		bl	_ZN6Screen8sendDataEh
 664              	.LVL69:
  63:Core/Src/screen.cpp **** 	sendCommand(0xC4);
 665              		.loc 1 63 2 is_stmt 1 view .LVU159
  63:Core/Src/screen.cpp **** 	sendCommand(0xC4);
 666              		.loc 1 63 10 is_stmt 0 view .LVU160
 667 0118 2A21     		movs	r1, #42
 668 011a 2000     		movs	r0, r4
 669 011c FFF7FEFF 		bl	_ZN6Screen8sendDataEh
 670              	.LVL70:
  64:Core/Src/screen.cpp **** 	sendData(0x8A);
 671              		.loc 1 64 2 is_stmt 1 view .LVU161
  64:Core/Src/screen.cpp **** 	sendData(0x8A);
 672              		.loc 1 64 13 is_stmt 0 view .LVU162
 673 0120 C421     		movs	r1, #196
 674 0122 2000     		movs	r0, r4
 675 0124 FFF7FEFF 		bl	_ZN6Screen11sendCommandEh
 676              	.LVL71:
  65:Core/Src/screen.cpp **** 	sendData(0xEE);
 677              		.loc 1 65 2 is_stmt 1 view .LVU163
  65:Core/Src/screen.cpp **** 	sendData(0xEE);
 678              		.loc 1 65 10 is_stmt 0 view .LVU164
ARM GAS  /tmp/cc5TwoZ8.s 			page 19


 679 0128 8A21     		movs	r1, #138
 680 012a 2000     		movs	r0, r4
 681 012c FFF7FEFF 		bl	_ZN6Screen8sendDataEh
 682              	.LVL72:
  66:Core/Src/screen.cpp **** 
 683              		.loc 1 66 2 is_stmt 1 view .LVU165
  66:Core/Src/screen.cpp **** 
 684              		.loc 1 66 10 is_stmt 0 view .LVU166
 685 0130 EE21     		movs	r1, #238
 686 0132 2000     		movs	r0, r4
 687 0134 FFF7FEFF 		bl	_ZN6Screen8sendDataEh
 688              	.LVL73:
  68:Core/Src/screen.cpp **** 	sendData(0x0E);
 689              		.loc 1 68 2 is_stmt 1 view .LVU167
  68:Core/Src/screen.cpp **** 	sendData(0x0E);
 690              		.loc 1 68 13 is_stmt 0 view .LVU168
 691 0138 C521     		movs	r1, #197
 692 013a 2000     		movs	r0, r4
 693 013c FFF7FEFF 		bl	_ZN6Screen11sendCommandEh
 694              	.LVL74:
  69:Core/Src/screen.cpp **** 
 695              		.loc 1 69 2 is_stmt 1 view .LVU169
  69:Core/Src/screen.cpp **** 
 696              		.loc 1 69 10 is_stmt 0 view .LVU170
 697 0140 0E21     		movs	r1, #14
 698 0142 2000     		movs	r0, r4
 699 0144 FFF7FEFF 		bl	_ZN6Screen8sendDataEh
 700              	.LVL75:
  71:Core/Src/screen.cpp **** 	sendData(0xC8);
 701              		.loc 1 71 2 is_stmt 1 view .LVU171
  71:Core/Src/screen.cpp **** 	sendData(0xC8);
 702              		.loc 1 71 13 is_stmt 0 view .LVU172
 703 0148 3621     		movs	r1, #54
 704 014a 2000     		movs	r0, r4
 705 014c FFF7FEFF 		bl	_ZN6Screen11sendCommandEh
 706              	.LVL76:
  72:Core/Src/screen.cpp **** 
 707              		.loc 1 72 2 is_stmt 1 view .LVU173
  72:Core/Src/screen.cpp **** 
 708              		.loc 1 72 10 is_stmt 0 view .LVU174
 709 0150 C821     		movs	r1, #200
 710 0152 2000     		movs	r0, r4
 711 0154 FFF7FEFF 		bl	_ZN6Screen8sendDataEh
 712              	.LVL77:
  75:Core/Src/screen.cpp **** 	sendData(0x0f);
 713              		.loc 1 75 2 is_stmt 1 view .LVU175
  75:Core/Src/screen.cpp **** 	sendData(0x0f);
 714              		.loc 1 75 13 is_stmt 0 view .LVU176
 715 0158 E021     		movs	r1, #224
 716 015a 2000     		movs	r0, r4
 717 015c FFF7FEFF 		bl	_ZN6Screen11sendCommandEh
 718              	.LVL78:
  76:Core/Src/screen.cpp **** 	sendData(0x1a);
 719              		.loc 1 76 2 is_stmt 1 view .LVU177
  76:Core/Src/screen.cpp **** 	sendData(0x1a);
 720              		.loc 1 76 10 is_stmt 0 view .LVU178
 721 0160 0F21     		movs	r1, #15
ARM GAS  /tmp/cc5TwoZ8.s 			page 20


 722 0162 2000     		movs	r0, r4
 723 0164 FFF7FEFF 		bl	_ZN6Screen8sendDataEh
 724              	.LVL79:
  77:Core/Src/screen.cpp **** 	sendData(0x0f);
 725              		.loc 1 77 2 is_stmt 1 view .LVU179
  77:Core/Src/screen.cpp **** 	sendData(0x0f);
 726              		.loc 1 77 10 is_stmt 0 view .LVU180
 727 0168 1A21     		movs	r1, #26
 728 016a 2000     		movs	r0, r4
 729 016c FFF7FEFF 		bl	_ZN6Screen8sendDataEh
 730              	.LVL80:
  78:Core/Src/screen.cpp **** 	sendData(0x18);
 731              		.loc 1 78 2 is_stmt 1 view .LVU181
  78:Core/Src/screen.cpp **** 	sendData(0x18);
 732              		.loc 1 78 10 is_stmt 0 view .LVU182
 733 0170 0F21     		movs	r1, #15
 734 0172 2000     		movs	r0, r4
 735 0174 FFF7FEFF 		bl	_ZN6Screen8sendDataEh
 736              	.LVL81:
  79:Core/Src/screen.cpp **** 	sendData(0x2f);
 737              		.loc 1 79 2 is_stmt 1 view .LVU183
  79:Core/Src/screen.cpp **** 	sendData(0x2f);
 738              		.loc 1 79 10 is_stmt 0 view .LVU184
 739 0178 1821     		movs	r1, #24
 740 017a 2000     		movs	r0, r4
 741 017c FFF7FEFF 		bl	_ZN6Screen8sendDataEh
 742              	.LVL82:
  80:Core/Src/screen.cpp **** 	sendData(0x28);
 743              		.loc 1 80 2 is_stmt 1 view .LVU185
  80:Core/Src/screen.cpp **** 	sendData(0x28);
 744              		.loc 1 80 10 is_stmt 0 view .LVU186
 745 0180 2F21     		movs	r1, #47
 746 0182 2000     		movs	r0, r4
 747 0184 FFF7FEFF 		bl	_ZN6Screen8sendDataEh
 748              	.LVL83:
  81:Core/Src/screen.cpp **** 	sendData(0x20);
 749              		.loc 1 81 2 is_stmt 1 view .LVU187
  81:Core/Src/screen.cpp **** 	sendData(0x20);
 750              		.loc 1 81 10 is_stmt 0 view .LVU188
 751 0188 2821     		movs	r1, #40
 752 018a 2000     		movs	r0, r4
 753 018c FFF7FEFF 		bl	_ZN6Screen8sendDataEh
 754              	.LVL84:
  82:Core/Src/screen.cpp **** 	sendData(0x22);
 755              		.loc 1 82 2 is_stmt 1 view .LVU189
  82:Core/Src/screen.cpp **** 	sendData(0x22);
 756              		.loc 1 82 10 is_stmt 0 view .LVU190
 757 0190 2021     		movs	r1, #32
 758 0192 2000     		movs	r0, r4
 759 0194 FFF7FEFF 		bl	_ZN6Screen8sendDataEh
 760              	.LVL85:
  83:Core/Src/screen.cpp **** 	sendData(0x1f);
 761              		.loc 1 83 2 is_stmt 1 view .LVU191
  83:Core/Src/screen.cpp **** 	sendData(0x1f);
 762              		.loc 1 83 10 is_stmt 0 view .LVU192
 763 0198 2221     		movs	r1, #34
 764 019a 2000     		movs	r0, r4
ARM GAS  /tmp/cc5TwoZ8.s 			page 21


 765 019c FFF7FEFF 		bl	_ZN6Screen8sendDataEh
 766              	.LVL86:
  84:Core/Src/screen.cpp **** 	sendData(0x1b);
 767              		.loc 1 84 2 is_stmt 1 view .LVU193
  84:Core/Src/screen.cpp **** 	sendData(0x1b);
 768              		.loc 1 84 10 is_stmt 0 view .LVU194
 769 01a0 1F21     		movs	r1, #31
 770 01a2 2000     		movs	r0, r4
 771 01a4 FFF7FEFF 		bl	_ZN6Screen8sendDataEh
 772              	.LVL87:
  85:Core/Src/screen.cpp **** 	sendData(0x23);
 773              		.loc 1 85 2 is_stmt 1 view .LVU195
  85:Core/Src/screen.cpp **** 	sendData(0x23);
 774              		.loc 1 85 10 is_stmt 0 view .LVU196
 775 01a8 1B21     		movs	r1, #27
 776 01aa 2000     		movs	r0, r4
 777 01ac FFF7FEFF 		bl	_ZN6Screen8sendDataEh
 778              	.LVL88:
  86:Core/Src/screen.cpp **** 	sendData(0x37);
 779              		.loc 1 86 2 is_stmt 1 view .LVU197
  86:Core/Src/screen.cpp **** 	sendData(0x37);
 780              		.loc 1 86 10 is_stmt 0 view .LVU198
 781 01b0 2321     		movs	r1, #35
 782 01b2 2000     		movs	r0, r4
 783 01b4 FFF7FEFF 		bl	_ZN6Screen8sendDataEh
 784              	.LVL89:
  87:Core/Src/screen.cpp **** 	sendData(0x00);
 785              		.loc 1 87 2 is_stmt 1 view .LVU199
  87:Core/Src/screen.cpp **** 	sendData(0x00);
 786              		.loc 1 87 10 is_stmt 0 view .LVU200
 787 01b8 3721     		movs	r1, #55
 788 01ba 2000     		movs	r0, r4
 789 01bc FFF7FEFF 		bl	_ZN6Screen8sendDataEh
 790              	.LVL90:
  88:Core/Src/screen.cpp **** 	sendData(0x07);
 791              		.loc 1 88 2 is_stmt 1 view .LVU201
  88:Core/Src/screen.cpp **** 	sendData(0x07);
 792              		.loc 1 88 10 is_stmt 0 view .LVU202
 793 01c0 0021     		movs	r1, #0
 794 01c2 2000     		movs	r0, r4
 795 01c4 FFF7FEFF 		bl	_ZN6Screen8sendDataEh
 796              	.LVL91:
  89:Core/Src/screen.cpp **** 	sendData(0x02);
 797              		.loc 1 89 2 is_stmt 1 view .LVU203
  89:Core/Src/screen.cpp **** 	sendData(0x02);
 798              		.loc 1 89 10 is_stmt 0 view .LVU204
 799 01c8 0721     		movs	r1, #7
 800 01ca 2000     		movs	r0, r4
 801 01cc FFF7FEFF 		bl	_ZN6Screen8sendDataEh
 802              	.LVL92:
  90:Core/Src/screen.cpp **** 	sendData(0x10);
 803              		.loc 1 90 2 is_stmt 1 view .LVU205
  90:Core/Src/screen.cpp **** 	sendData(0x10);
 804              		.loc 1 90 10 is_stmt 0 view .LVU206
 805 01d0 0221     		movs	r1, #2
 806 01d2 2000     		movs	r0, r4
 807 01d4 FFF7FEFF 		bl	_ZN6Screen8sendDataEh
ARM GAS  /tmp/cc5TwoZ8.s 			page 22


 808              	.LVL93:
  91:Core/Src/screen.cpp **** 
 809              		.loc 1 91 2 is_stmt 1 view .LVU207
  91:Core/Src/screen.cpp **** 
 810              		.loc 1 91 10 is_stmt 0 view .LVU208
 811 01d8 1021     		movs	r1, #16
 812 01da 2000     		movs	r0, r4
 813 01dc FFF7FEFF 		bl	_ZN6Screen8sendDataEh
 814              	.LVL94:
  93:Core/Src/screen.cpp **** 	sendData(0x0f);
 815              		.loc 1 93 2 is_stmt 1 view .LVU209
  93:Core/Src/screen.cpp **** 	sendData(0x0f);
 816              		.loc 1 93 13 is_stmt 0 view .LVU210
 817 01e0 E121     		movs	r1, #225
 818 01e2 2000     		movs	r0, r4
 819 01e4 FFF7FEFF 		bl	_ZN6Screen11sendCommandEh
 820              	.LVL95:
  94:Core/Src/screen.cpp **** 	sendData(0x1b);
 821              		.loc 1 94 2 is_stmt 1 view .LVU211
  94:Core/Src/screen.cpp **** 	sendData(0x1b);
 822              		.loc 1 94 10 is_stmt 0 view .LVU212
 823 01e8 0F21     		movs	r1, #15
 824 01ea 2000     		movs	r0, r4
 825 01ec FFF7FEFF 		bl	_ZN6Screen8sendDataEh
 826              	.LVL96:
  95:Core/Src/screen.cpp **** 	sendData(0x0f);
 827              		.loc 1 95 2 is_stmt 1 view .LVU213
  95:Core/Src/screen.cpp **** 	sendData(0x0f);
 828              		.loc 1 95 10 is_stmt 0 view .LVU214
 829 01f0 1B21     		movs	r1, #27
 830 01f2 2000     		movs	r0, r4
 831 01f4 FFF7FEFF 		bl	_ZN6Screen8sendDataEh
 832              	.LVL97:
  96:Core/Src/screen.cpp **** 	sendData(0x17);
 833              		.loc 1 96 2 is_stmt 1 view .LVU215
  96:Core/Src/screen.cpp **** 	sendData(0x17);
 834              		.loc 1 96 10 is_stmt 0 view .LVU216
 835 01f8 0F21     		movs	r1, #15
 836 01fa 2000     		movs	r0, r4
 837 01fc FFF7FEFF 		bl	_ZN6Screen8sendDataEh
 838              	.LVL98:
  97:Core/Src/screen.cpp **** 	sendData(0x33);
 839              		.loc 1 97 2 is_stmt 1 view .LVU217
  97:Core/Src/screen.cpp **** 	sendData(0x33);
 840              		.loc 1 97 10 is_stmt 0 view .LVU218
 841 0200 1721     		movs	r1, #23
 842 0202 2000     		movs	r0, r4
 843 0204 FFF7FEFF 		bl	_ZN6Screen8sendDataEh
 844              	.LVL99:
  98:Core/Src/screen.cpp **** 	sendData(0x2c);
 845              		.loc 1 98 2 is_stmt 1 view .LVU219
  98:Core/Src/screen.cpp **** 	sendData(0x2c);
 846              		.loc 1 98 10 is_stmt 0 view .LVU220
 847 0208 3321     		movs	r1, #51
 848 020a 2000     		movs	r0, r4
 849 020c FFF7FEFF 		bl	_ZN6Screen8sendDataEh
 850              	.LVL100:
ARM GAS  /tmp/cc5TwoZ8.s 			page 23


  99:Core/Src/screen.cpp **** 	sendData(0x29);
 851              		.loc 1 99 2 is_stmt 1 view .LVU221
  99:Core/Src/screen.cpp **** 	sendData(0x29);
 852              		.loc 1 99 10 is_stmt 0 view .LVU222
 853 0210 2C21     		movs	r1, #44
 854 0212 2000     		movs	r0, r4
 855 0214 FFF7FEFF 		bl	_ZN6Screen8sendDataEh
 856              	.LVL101:
 100:Core/Src/screen.cpp **** 	sendData(0x2e);
 857              		.loc 1 100 2 is_stmt 1 view .LVU223
 100:Core/Src/screen.cpp **** 	sendData(0x2e);
 858              		.loc 1 100 10 is_stmt 0 view .LVU224
 859 0218 2921     		movs	r1, #41
 860 021a 2000     		movs	r0, r4
 861 021c FFF7FEFF 		bl	_ZN6Screen8sendDataEh
 862              	.LVL102:
 101:Core/Src/screen.cpp **** 	sendData(0x30);
 863              		.loc 1 101 2 is_stmt 1 view .LVU225
 101:Core/Src/screen.cpp **** 	sendData(0x30);
 864              		.loc 1 101 10 is_stmt 0 view .LVU226
 865 0220 2E21     		movs	r1, #46
 866 0222 2000     		movs	r0, r4
 867 0224 FFF7FEFF 		bl	_ZN6Screen8sendDataEh
 868              	.LVL103:
 102:Core/Src/screen.cpp **** 	sendData(0x30);
 869              		.loc 1 102 2 is_stmt 1 view .LVU227
 102:Core/Src/screen.cpp **** 	sendData(0x30);
 870              		.loc 1 102 10 is_stmt 0 view .LVU228
 871 0228 3021     		movs	r1, #48
 872 022a 2000     		movs	r0, r4
 873 022c FFF7FEFF 		bl	_ZN6Screen8sendDataEh
 874              	.LVL104:
 103:Core/Src/screen.cpp **** 	sendData(0x39);
 875              		.loc 1 103 2 is_stmt 1 view .LVU229
 103:Core/Src/screen.cpp **** 	sendData(0x39);
 876              		.loc 1 103 10 is_stmt 0 view .LVU230
 877 0230 3021     		movs	r1, #48
 878 0232 2000     		movs	r0, r4
 879 0234 FFF7FEFF 		bl	_ZN6Screen8sendDataEh
 880              	.LVL105:
 104:Core/Src/screen.cpp **** 	sendData(0x3f);
 881              		.loc 1 104 2 is_stmt 1 view .LVU231
 104:Core/Src/screen.cpp **** 	sendData(0x3f);
 882              		.loc 1 104 10 is_stmt 0 view .LVU232
 883 0238 3921     		movs	r1, #57
 884 023a 2000     		movs	r0, r4
 885 023c FFF7FEFF 		bl	_ZN6Screen8sendDataEh
 886              	.LVL106:
 105:Core/Src/screen.cpp **** 	sendData(0x00);
 887              		.loc 1 105 2 is_stmt 1 view .LVU233
 105:Core/Src/screen.cpp **** 	sendData(0x00);
 888              		.loc 1 105 10 is_stmt 0 view .LVU234
 889 0240 3F21     		movs	r1, #63
 890 0242 2000     		movs	r0, r4
 891 0244 FFF7FEFF 		bl	_ZN6Screen8sendDataEh
 892              	.LVL107:
 106:Core/Src/screen.cpp **** 	sendData(0x07);
ARM GAS  /tmp/cc5TwoZ8.s 			page 24


 893              		.loc 1 106 2 is_stmt 1 view .LVU235
 106:Core/Src/screen.cpp **** 	sendData(0x07);
 894              		.loc 1 106 10 is_stmt 0 view .LVU236
 895 0248 0021     		movs	r1, #0
 896 024a 2000     		movs	r0, r4
 897 024c FFF7FEFF 		bl	_ZN6Screen8sendDataEh
 898              	.LVL108:
 107:Core/Src/screen.cpp **** 	sendData(0x03);
 899              		.loc 1 107 2 is_stmt 1 view .LVU237
 107:Core/Src/screen.cpp **** 	sendData(0x03);
 900              		.loc 1 107 10 is_stmt 0 view .LVU238
 901 0250 0721     		movs	r1, #7
 902 0252 2000     		movs	r0, r4
 903 0254 FFF7FEFF 		bl	_ZN6Screen8sendDataEh
 904              	.LVL109:
 108:Core/Src/screen.cpp **** 	sendData(0x10);
 905              		.loc 1 108 2 is_stmt 1 view .LVU239
 108:Core/Src/screen.cpp **** 	sendData(0x10);
 906              		.loc 1 108 10 is_stmt 0 view .LVU240
 907 0258 0321     		movs	r1, #3
 908 025a 2000     		movs	r0, r4
 909 025c FFF7FEFF 		bl	_ZN6Screen8sendDataEh
 910              	.LVL110:
 109:Core/Src/screen.cpp **** 
 911              		.loc 1 109 2 is_stmt 1 view .LVU241
 109:Core/Src/screen.cpp **** 
 912              		.loc 1 109 10 is_stmt 0 view .LVU242
 913 0260 1021     		movs	r1, #16
 914 0262 2000     		movs	r0, r4
 915 0264 FFF7FEFF 		bl	_ZN6Screen8sendDataEh
 916              	.LVL111:
 111:Core/Src/screen.cpp **** 	sendData(0x00);
 917              		.loc 1 111 2 is_stmt 1 view .LVU243
 111:Core/Src/screen.cpp **** 	sendData(0x00);
 918              		.loc 1 111 13 is_stmt 0 view .LVU244
 919 0268 2A21     		movs	r1, #42
 920 026a 2000     		movs	r0, r4
 921 026c FFF7FEFF 		bl	_ZN6Screen11sendCommandEh
 922              	.LVL112:
 112:Core/Src/screen.cpp **** 	sendData(0x00);
 923              		.loc 1 112 2 is_stmt 1 view .LVU245
 112:Core/Src/screen.cpp **** 	sendData(0x00);
 924              		.loc 1 112 10 is_stmt 0 view .LVU246
 925 0270 0021     		movs	r1, #0
 926 0272 2000     		movs	r0, r4
 927 0274 FFF7FEFF 		bl	_ZN6Screen8sendDataEh
 928              	.LVL113:
 113:Core/Src/screen.cpp **** 	sendData(0x00);
 929              		.loc 1 113 2 is_stmt 1 view .LVU247
 113:Core/Src/screen.cpp **** 	sendData(0x00);
 930              		.loc 1 113 10 is_stmt 0 view .LVU248
 931 0278 0021     		movs	r1, #0
 932 027a 2000     		movs	r0, r4
 933 027c FFF7FEFF 		bl	_ZN6Screen8sendDataEh
 934              	.LVL114:
 114:Core/Src/screen.cpp **** 	sendData(0x7f);
 935              		.loc 1 114 2 is_stmt 1 view .LVU249
ARM GAS  /tmp/cc5TwoZ8.s 			page 25


 114:Core/Src/screen.cpp **** 	sendData(0x7f);
 936              		.loc 1 114 10 is_stmt 0 view .LVU250
 937 0280 0021     		movs	r1, #0
 938 0282 2000     		movs	r0, r4
 939 0284 FFF7FEFF 		bl	_ZN6Screen8sendDataEh
 940              	.LVL115:
 115:Core/Src/screen.cpp **** 
 941              		.loc 1 115 2 is_stmt 1 view .LVU251
 115:Core/Src/screen.cpp **** 
 942              		.loc 1 115 10 is_stmt 0 view .LVU252
 943 0288 7F21     		movs	r1, #127
 944 028a 2000     		movs	r0, r4
 945 028c FFF7FEFF 		bl	_ZN6Screen8sendDataEh
 946              	.LVL116:
 117:Core/Src/screen.cpp **** 	sendData(0x00);
 947              		.loc 1 117 2 is_stmt 1 view .LVU253
 117:Core/Src/screen.cpp **** 	sendData(0x00);
 948              		.loc 1 117 13 is_stmt 0 view .LVU254
 949 0290 2B21     		movs	r1, #43
 950 0292 2000     		movs	r0, r4
 951 0294 FFF7FEFF 		bl	_ZN6Screen11sendCommandEh
 952              	.LVL117:
 118:Core/Src/screen.cpp **** 	sendData(0x00);
 953              		.loc 1 118 2 is_stmt 1 view .LVU255
 118:Core/Src/screen.cpp **** 	sendData(0x00);
 954              		.loc 1 118 10 is_stmt 0 view .LVU256
 955 0298 0021     		movs	r1, #0
 956 029a 2000     		movs	r0, r4
 957 029c FFF7FEFF 		bl	_ZN6Screen8sendDataEh
 958              	.LVL118:
 119:Core/Src/screen.cpp **** 	sendData(0x00);
 959              		.loc 1 119 2 is_stmt 1 view .LVU257
 119:Core/Src/screen.cpp **** 	sendData(0x00);
 960              		.loc 1 119 10 is_stmt 0 view .LVU258
 961 02a0 0021     		movs	r1, #0
 962 02a2 2000     		movs	r0, r4
 963 02a4 FFF7FEFF 		bl	_ZN6Screen8sendDataEh
 964              	.LVL119:
 120:Core/Src/screen.cpp **** 	sendData(0x9f);
 965              		.loc 1 120 2 is_stmt 1 view .LVU259
 120:Core/Src/screen.cpp **** 	sendData(0x9f);
 966              		.loc 1 120 10 is_stmt 0 view .LVU260
 967 02a8 0021     		movs	r1, #0
 968 02aa 2000     		movs	r0, r4
 969 02ac FFF7FEFF 		bl	_ZN6Screen8sendDataEh
 970              	.LVL120:
 121:Core/Src/screen.cpp **** 
 971              		.loc 1 121 2 is_stmt 1 view .LVU261
 121:Core/Src/screen.cpp **** 
 972              		.loc 1 121 10 is_stmt 0 view .LVU262
 973 02b0 9F21     		movs	r1, #159
 974 02b2 2000     		movs	r0, r4
 975 02b4 FFF7FEFF 		bl	_ZN6Screen8sendDataEh
 976              	.LVL121:
 124:Core/Src/screen.cpp **** 	sendData(0x01);
 977              		.loc 1 124 2 is_stmt 1 view .LVU263
 124:Core/Src/screen.cpp **** 	sendData(0x01);
ARM GAS  /tmp/cc5TwoZ8.s 			page 26


 978              		.loc 1 124 13 is_stmt 0 view .LVU264
 979 02b8 F021     		movs	r1, #240
 980 02ba 2000     		movs	r0, r4
 981 02bc FFF7FEFF 		bl	_ZN6Screen11sendCommandEh
 982              	.LVL122:
 125:Core/Src/screen.cpp **** 
 983              		.loc 1 125 2 is_stmt 1 view .LVU265
 125:Core/Src/screen.cpp **** 
 984              		.loc 1 125 10 is_stmt 0 view .LVU266
 985 02c0 0121     		movs	r1, #1
 986 02c2 2000     		movs	r0, r4
 987 02c4 FFF7FEFF 		bl	_ZN6Screen8sendDataEh
 988              	.LVL123:
 128:Core/Src/screen.cpp **** 	sendData(0x00);
 989              		.loc 1 128 2 is_stmt 1 view .LVU267
 128:Core/Src/screen.cpp **** 	sendData(0x00);
 990              		.loc 1 128 13 is_stmt 0 view .LVU268
 991 02c8 F621     		movs	r1, #246
 992 02ca 2000     		movs	r0, r4
 993 02cc FFF7FEFF 		bl	_ZN6Screen11sendCommandEh
 994              	.LVL124:
 129:Core/Src/screen.cpp **** 
 995              		.loc 1 129 2 is_stmt 1 view .LVU269
 129:Core/Src/screen.cpp **** 
 996              		.loc 1 129 10 is_stmt 0 view .LVU270
 997 02d0 0021     		movs	r1, #0
 998 02d2 2000     		movs	r0, r4
 999 02d4 FFF7FEFF 		bl	_ZN6Screen8sendDataEh
 1000              	.LVL125:
 132:Core/Src/screen.cpp **** 	sendData(0x05);
 1001              		.loc 1 132 2 is_stmt 1 view .LVU271
 132:Core/Src/screen.cpp **** 	sendData(0x05);
 1002              		.loc 1 132 13 is_stmt 0 view .LVU272
 1003 02d8 3A21     		movs	r1, #58
 1004 02da 2000     		movs	r0, r4
 1005 02dc FFF7FEFF 		bl	_ZN6Screen11sendCommandEh
 1006              	.LVL126:
 133:Core/Src/screen.cpp **** 
 1007              		.loc 1 133 2 is_stmt 1 view .LVU273
 133:Core/Src/screen.cpp **** 
 1008              		.loc 1 133 10 is_stmt 0 view .LVU274
 1009 02e0 0521     		movs	r1, #5
 1010 02e2 2000     		movs	r0, r4
 1011 02e4 FFF7FEFF 		bl	_ZN6Screen8sendDataEh
 1012              	.LVL127:
 136:Core/Src/screen.cpp **** }
 1013              		.loc 1 136 2 is_stmt 1 view .LVU275
 136:Core/Src/screen.cpp **** }
 1014              		.loc 1 136 13 is_stmt 0 view .LVU276
 1015 02e8 2921     		movs	r1, #41
 1016 02ea 2000     		movs	r0, r4
 1017 02ec FFF7FEFF 		bl	_ZN6Screen11sendCommandEh
 1018              	.LVL128:
 1019              	.LBE18:
 137:Core/Src/screen.cpp **** 
 1020              		.loc 1 137 1 view .LVU277
 1021 02f0 2000     		movs	r0, r4
ARM GAS  /tmp/cc5TwoZ8.s 			page 27


 1022              	.LVL129:
 137:Core/Src/screen.cpp **** 
 1023              		.loc 1 137 1 view .LVU278
 1024 02f2 16BD     		pop	{r1, r2, r4, pc}
 1025              		.cfi_endproc
 1026              	.LFE429:
 1027              		.fnend
 1029              		.global	_ZN6ScreenC1EP19__SPI_HandleTypeDef6IO_PinS2_S2_S2_
 1030              		.thumb_set _ZN6ScreenC1EP19__SPI_HandleTypeDef6IO_PinS2_S2_S2_,_ZN6ScreenC2EP19__SPI_HandleTypeDef
 1031              		.section	.text._ZN6Screen9setRegionEtttt,"ax",%progbits
 1032              		.align	1
 1033              		.global	_ZN6Screen9setRegionEtttt
 1034              		.syntax unified
 1035              		.code	16
 1036              		.thumb_func
 1038              	_ZN6Screen9setRegionEtttt:
 1039              		.fnstart
 1040              	.LVL130:
 1041              	.LFB435:
 211:Core/Src/screen.cpp **** 	sendCommand(0x2A);
 1042              		.loc 1 211 90 is_stmt 1 view -0
 1043              		.cfi_startproc
 1044              		@ args = 4, pretend = 0, frame = 8
 1045              		@ frame_needed = 0, uses_anonymous_args = 0
 212:Core/Src/screen.cpp **** 	sendData(0x00);
 1046              		.loc 1 212 2 view .LVU280
 211:Core/Src/screen.cpp **** 	sendCommand(0x2A);
 1047              		.loc 1 211 90 is_stmt 0 view .LVU281
 1048 0000 F7B5     		push	{r0, r1, r2, r4, r5, r6, r7, lr}
 1049              		.save {r0, r1, r2, r4, r5, r6, r7, lr}
 1050              	.LCFI8:
 1051              		.cfi_def_cfa_offset 32
 1052              		.cfi_offset 0, -32
 1053              		.cfi_offset 1, -28
 1054              		.cfi_offset 2, -24
 1055              		.cfi_offset 4, -20
 1056              		.cfi_offset 5, -16
 1057              		.cfi_offset 6, -12
 1058              		.cfi_offset 7, -8
 1059              		.cfi_offset 14, -4
 211:Core/Src/screen.cpp **** 	sendCommand(0x2A);
 1060              		.loc 1 211 90 view .LVU282
 1061 0002 0400     		movs	r4, r0
 225:Core/Src/screen.cpp **** 
 1062              		.loc 1 225 1 view .LVU283
 1063              		@ sp needed
 211:Core/Src/screen.cpp **** 	sendCommand(0x2A);
 1064              		.loc 1 211 90 view .LVU284
 1065 0004 0F00     		movs	r7, r1
 1066 0006 1E00     		movs	r6, r3
 1067 0008 1500     		movs	r5, r2
 1068 000a 08AB     		add	r3, sp, #32
 1069              	.LVL131:
 211:Core/Src/screen.cpp **** 	sendCommand(0x2A);
 1070              		.loc 1 211 90 view .LVU285
 1071 000c 1B88     		ldrh	r3, [r3]
 1072              	.LVL132:
ARM GAS  /tmp/cc5TwoZ8.s 			page 28


 212:Core/Src/screen.cpp **** 	sendData(0x00);
 1073              		.loc 1 212 13 view .LVU286
 1074 000e 2A21     		movs	r1, #42
 1075              	.LVL133:
 211:Core/Src/screen.cpp **** 	sendCommand(0x2A);
 1076              		.loc 1 211 90 view .LVU287
 1077 0010 0193     		str	r3, [sp, #4]
 214:Core/Src/screen.cpp **** 	sendData(0x00);
 1078              		.loc 1 214 10 view .LVU288
 1079 0012 0237     		adds	r7, r7, #2
 1080              	.LVL134:
 212:Core/Src/screen.cpp **** 	sendData(0x00);
 1081              		.loc 1 212 13 view .LVU289
 1082 0014 FFF7FEFF 		bl	_ZN6Screen11sendCommandEh
 1083              	.LVL135:
 213:Core/Src/screen.cpp **** 	sendData(startX + 2);
 1084              		.loc 1 213 2 is_stmt 1 view .LVU290
 213:Core/Src/screen.cpp **** 	sendData(startX + 2);
 1085              		.loc 1 213 10 is_stmt 0 view .LVU291
 1086 0018 2000     		movs	r0, r4
 1087 001a 0021     		movs	r1, #0
 1088 001c FFF7FEFF 		bl	_ZN6Screen8sendDataEh
 1089              	.LVL136:
 214:Core/Src/screen.cpp **** 	sendData(0x00);
 1090              		.loc 1 214 2 is_stmt 1 view .LVU292
 214:Core/Src/screen.cpp **** 	sendData(0x00);
 1091              		.loc 1 214 10 is_stmt 0 view .LVU293
 1092 0020 F9B2     		uxtb	r1, r7
 1093 0022 2000     		movs	r0, r4
 1094 0024 FFF7FEFF 		bl	_ZN6Screen8sendDataEh
 1095              	.LVL137:
 215:Core/Src/screen.cpp **** 	sendData(stopX + 1);
 1096              		.loc 1 215 2 is_stmt 1 view .LVU294
 216:Core/Src/screen.cpp **** 	
 1097              		.loc 1 216 10 is_stmt 0 view .LVU295
 1098 0028 0136     		adds	r6, r6, #1
 1099              	.LVL138:
 215:Core/Src/screen.cpp **** 	sendData(stopX + 1);
 1100              		.loc 1 215 10 view .LVU296
 1101 002a 2000     		movs	r0, r4
 1102 002c 0021     		movs	r1, #0
 1103 002e FFF7FEFF 		bl	_ZN6Screen8sendDataEh
 1104              	.LVL139:
 216:Core/Src/screen.cpp **** 	
 1105              		.loc 1 216 2 is_stmt 1 view .LVU297
 216:Core/Src/screen.cpp **** 	
 1106              		.loc 1 216 10 is_stmt 0 view .LVU298
 1107 0032 F1B2     		uxtb	r1, r6
 1108 0034 2000     		movs	r0, r4
 1109 0036 FFF7FEFF 		bl	_ZN6Screen8sendDataEh
 1110              	.LVL140:
 218:Core/Src/screen.cpp **** 	sendData(0x00);
 1111              		.loc 1 218 2 is_stmt 1 view .LVU299
 218:Core/Src/screen.cpp **** 	sendData(0x00);
 1112              		.loc 1 218 13 is_stmt 0 view .LVU300
 1113 003a 2000     		movs	r0, r4
 1114 003c 2B21     		movs	r1, #43
ARM GAS  /tmp/cc5TwoZ8.s 			page 29


 1115 003e FFF7FEFF 		bl	_ZN6Screen11sendCommandEh
 1116              	.LVL141:
 219:Core/Src/screen.cpp **** 	sendData(startY + 3);
 1117              		.loc 1 219 2 is_stmt 1 view .LVU301
 220:Core/Src/screen.cpp **** 	sendData(0x00);
 1118              		.loc 1 220 10 is_stmt 0 view .LVU302
 1119 0042 0335     		adds	r5, r5, #3
 1120              	.LVL142:
 219:Core/Src/screen.cpp **** 	sendData(startY + 3);
 1121              		.loc 1 219 10 view .LVU303
 1122 0044 2000     		movs	r0, r4
 1123 0046 0021     		movs	r1, #0
 1124 0048 FFF7FEFF 		bl	_ZN6Screen8sendDataEh
 1125              	.LVL143:
 220:Core/Src/screen.cpp **** 	sendData(0x00);
 1126              		.loc 1 220 2 is_stmt 1 view .LVU304
 220:Core/Src/screen.cpp **** 	sendData(0x00);
 1127              		.loc 1 220 10 is_stmt 0 view .LVU305
 1128 004c E9B2     		uxtb	r1, r5
 1129 004e 2000     		movs	r0, r4
 1130 0050 FFF7FEFF 		bl	_ZN6Screen8sendDataEh
 1131              	.LVL144:
 221:Core/Src/screen.cpp **** 	sendData(stopY + 2);
 1132              		.loc 1 221 2 is_stmt 1 view .LVU306
 221:Core/Src/screen.cpp **** 	sendData(stopY + 2);
 1133              		.loc 1 221 10 is_stmt 0 view .LVU307
 1134 0054 2000     		movs	r0, r4
 1135 0056 0021     		movs	r1, #0
 1136 0058 FFF7FEFF 		bl	_ZN6Screen8sendDataEh
 1137              	.LVL145:
 222:Core/Src/screen.cpp **** 	
 1138              		.loc 1 222 2 is_stmt 1 view .LVU308
 222:Core/Src/screen.cpp **** 	
 1139              		.loc 1 222 10 is_stmt 0 view .LVU309
 1140 005c 019B     		ldr	r3, [sp, #4]
 1141 005e 2000     		movs	r0, r4
 1142 0060 991C     		adds	r1, r3, #2
 1143 0062 C9B2     		uxtb	r1, r1
 1144 0064 FFF7FEFF 		bl	_ZN6Screen8sendDataEh
 1145              	.LVL146:
 224:Core/Src/screen.cpp **** }
 1146              		.loc 1 224 2 is_stmt 1 view .LVU310
 224:Core/Src/screen.cpp **** }
 1147              		.loc 1 224 13 is_stmt 0 view .LVU311
 1148 0068 2C21     		movs	r1, #44
 1149 006a 2000     		movs	r0, r4
 1150 006c FFF7FEFF 		bl	_ZN6Screen11sendCommandEh
 1151              	.LVL147:
 1152              	.LVL148:
 1153              	.LVL149:
 1154              	.LVL150:
 1155              	.LVL151:
 225:Core/Src/screen.cpp **** 
 1156              		.loc 1 225 1 view .LVU312
 1157 0070 F7BD     		pop	{r0, r1, r2, r4, r5, r6, r7, pc}
 1158              		.cfi_endproc
 1159              	.LFE435:
ARM GAS  /tmp/cc5TwoZ8.s 			page 30


 1160              		.fnend
 1162              		.section	.text._ZN6Screen9sendWdataEt,"ax",%progbits
 1163              		.align	1
 1164              		.global	_ZN6Screen9sendWdataEt
 1165              		.syntax unified
 1166              		.code	16
 1167              		.thumb_func
 1169              	_ZN6Screen9sendWdataEt:
 1170              		.fnstart
 1171              	.LVL152:
 1172              	.LFB438:
 240:Core/Src/screen.cpp **** 
 241:Core/Src/screen.cpp **** void Screen::sendWdata(uint16_t data) {
 1173              		.loc 1 241 39 is_stmt 1 view -0
 1174              		.cfi_startproc
 1175              		@ args = 0, pretend = 0, frame = 8
 1176              		@ frame_needed = 0, uses_anonymous_args = 0
 242:Core/Src/screen.cpp **** 	this -> CS.reset();
 1177              		.loc 1 242 2 view .LVU314
 241:Core/Src/screen.cpp **** 	this -> CS.reset();
 1178              		.loc 1 241 39 is_stmt 0 view .LVU315
 1179 0000 73B5     		push	{r0, r1, r4, r5, r6, lr}
 1180              		.save {r0, r1, r4, r5, r6, lr}
 1181              	.LCFI9:
 1182              		.cfi_def_cfa_offset 24
 1183              		.cfi_offset 0, -24
 1184              		.cfi_offset 1, -20
 1185              		.cfi_offset 4, -16
 1186              		.cfi_offset 5, -12
 1187              		.cfi_offset 6, -8
 1188              		.cfi_offset 14, -4
 241:Core/Src/screen.cpp **** 	this -> CS.reset();
 1189              		.loc 1 241 39 view .LVU316
 1190 0002 0400     		movs	r4, r0
 243:Core/Src/screen.cpp **** 	this -> DC.set();
 244:Core/Src/screen.cpp **** 	HAL_SPI_Transmit(spi, reinterpret_cast<uint8_t *>(&data), 2, 1000);
 245:Core/Src/screen.cpp **** 	this -> CS.set();
 246:Core/Src/screen.cpp **** }
 1191              		.loc 1 246 1 view .LVU317
 1192              		@ sp needed
 241:Core/Src/screen.cpp **** 	this -> CS.reset();
 1193              		.loc 1 241 39 view .LVU318
 1194 0004 6B46     		mov	r3, sp
 242:Core/Src/screen.cpp **** 	this -> DC.set();
 1195              		.loc 1 242 18 view .LVU319
 1196 0006 051D     		adds	r5, r0, #4
 1197 0008 2800     		movs	r0, r5
 1198              	.LVL153:
 241:Core/Src/screen.cpp **** 	this -> CS.reset();
 1199              		.loc 1 241 39 view .LVU320
 1200 000a 9E1D     		adds	r6, r3, #6
 1201 000c D980     		strh	r1, [r3, #6]
 242:Core/Src/screen.cpp **** 	this -> DC.set();
 1202              		.loc 1 242 18 view .LVU321
 1203 000e FFF7FEFF 		bl	_ZNK6IO_Pin5resetEv
 1204              	.LVL154:
 243:Core/Src/screen.cpp **** 	this -> DC.set();
ARM GAS  /tmp/cc5TwoZ8.s 			page 31


 1205              		.loc 1 243 2 is_stmt 1 view .LVU322
 243:Core/Src/screen.cpp **** 	this -> DC.set();
 1206              		.loc 1 243 16 is_stmt 0 view .LVU323
 1207 0012 2000     		movs	r0, r4
 1208 0014 1430     		adds	r0, r0, #20
 1209 0016 FFF7FEFF 		bl	_ZNK6IO_Pin3setEv
 1210              	.LVL155:
 244:Core/Src/screen.cpp **** 	this -> CS.set();
 1211              		.loc 1 244 2 is_stmt 1 view .LVU324
 244:Core/Src/screen.cpp **** 	this -> CS.set();
 1212              		.loc 1 244 18 is_stmt 0 view .LVU325
 1213 001a FA23     		movs	r3, #250
 1214 001c 3100     		movs	r1, r6
 1215 001e 0222     		movs	r2, #2
 1216 0020 9B00     		lsls	r3, r3, #2
 1217 0022 2068     		ldr	r0, [r4]
 1218 0024 FFF7FEFF 		bl	HAL_SPI_Transmit
 1219              	.LVL156:
 245:Core/Src/screen.cpp **** }
 1220              		.loc 1 245 2 is_stmt 1 view .LVU326
 245:Core/Src/screen.cpp **** }
 1221              		.loc 1 245 16 is_stmt 0 view .LVU327
 1222 0028 2800     		movs	r0, r5
 1223 002a FFF7FEFF 		bl	_ZNK6IO_Pin3setEv
 1224              	.LVL157:
 1225              	.LVL158:
 1226              	.LVL159:
 1227              		.loc 1 246 1 view .LVU328
 1228 002e 73BD     		pop	{r0, r1, r4, r5, r6, pc}
 1229              		.cfi_endproc
 1230              	.LFE438:
 1231              		.fnend
 1233              		.section	.text._ZN6Screen8fillAreaEttttt,"ax",%progbits
 1234              		.align	1
 1235              		.global	_ZN6Screen8fillAreaEttttt
 1236              		.syntax unified
 1237              		.code	16
 1238              		.thumb_func
 1240              	_ZN6Screen8fillAreaEttttt:
 1241              		.fnstart
 1242              	.LVL160:
 1243              	.LFB432:
 147:Core/Src/screen.cpp **** 	sendCommand(0x2A);
 1244              		.loc 1 147 103 is_stmt 1 view -0
 1245              		.cfi_startproc
 1246              		@ args = 8, pretend = 0, frame = 16
 1247              		@ frame_needed = 0, uses_anonymous_args = 0
 148:Core/Src/screen.cpp **** 	sendData(0x00);
 1248              		.loc 1 148 2 view .LVU330
 147:Core/Src/screen.cpp **** 	sendCommand(0x2A);
 1249              		.loc 1 147 103 is_stmt 0 view .LVU331
 1250 0000 F0B5     		push	{r4, r5, r6, r7, lr}
 1251              		.save {r4, r5, r6, r7, lr}
 1252              	.LCFI10:
 1253              		.cfi_def_cfa_offset 20
 1254              		.cfi_offset 4, -20
 1255              		.cfi_offset 5, -16
ARM GAS  /tmp/cc5TwoZ8.s 			page 32


 1256              		.cfi_offset 6, -12
 1257              		.cfi_offset 7, -8
 1258              		.cfi_offset 14, -4
 1259 0002 0400     		movs	r4, r0
 1260              		.pad #20
 1261 0004 85B0     		sub	sp, sp, #20
 1262              	.LCFI11:
 1263              		.cfi_def_cfa_offset 40
 147:Core/Src/screen.cpp **** 	sendCommand(0x2A);
 1264              		.loc 1 147 103 view .LVU332
 1265 0006 0293     		str	r3, [sp, #8]
 1266 0008 0AAB     		add	r3, sp, #40
 1267              	.LVL161:
 147:Core/Src/screen.cpp **** 	sendCommand(0x2A);
 1268              		.loc 1 147 103 view .LVU333
 1269 000a 1F88     		ldrh	r7, [r3]
 1270 000c 0BAB     		add	r3, sp, #44
 1271              	.LVL162:
 147:Core/Src/screen.cpp **** 	sendCommand(0x2A);
 1272              		.loc 1 147 103 view .LVU334
 1273 000e 1B88     		ldrh	r3, [r3]
 1274              	.LVL163:
 147:Core/Src/screen.cpp **** 	sendCommand(0x2A);
 1275              		.loc 1 147 103 view .LVU335
 1276 0010 0091     		str	r1, [sp]
 148:Core/Src/screen.cpp **** 	sendData(0x00);
 1277              		.loc 1 148 13 view .LVU336
 1278 0012 2A21     		movs	r1, #42
 1279              	.LVL164:
 147:Core/Src/screen.cpp **** 	sendCommand(0x2A);
 1280              		.loc 1 147 103 view .LVU337
 1281 0014 0192     		str	r2, [sp, #4]
 1282 0016 0393     		str	r3, [sp, #12]
 148:Core/Src/screen.cpp **** 	sendData(0x00);
 1283              		.loc 1 148 13 view .LVU338
 1284 0018 FFF7FEFF 		bl	_ZN6Screen11sendCommandEh
 1285              	.LVL165:
 149:Core/Src/screen.cpp **** 	sendData(startX + 2);
 1286              		.loc 1 149 2 is_stmt 1 view .LVU339
 149:Core/Src/screen.cpp **** 	sendData(startX + 2);
 1287              		.loc 1 149 10 is_stmt 0 view .LVU340
 1288 001c 0021     		movs	r1, #0
 1289 001e 2000     		movs	r0, r4
 1290 0020 FFF7FEFF 		bl	_ZN6Screen8sendDataEh
 1291              	.LVL166:
 150:Core/Src/screen.cpp **** 	sendData(0x00);
 1292              		.loc 1 150 2 is_stmt 1 view .LVU341
 150:Core/Src/screen.cpp **** 	sendData(0x00);
 1293              		.loc 1 150 10 is_stmt 0 view .LVU342
 1294 0024 009B     		ldr	r3, [sp]
 1295 0026 2000     		movs	r0, r4
 1296 0028 991C     		adds	r1, r3, #2
 1297 002a C9B2     		uxtb	r1, r1
 1298 002c FFF7FEFF 		bl	_ZN6Screen8sendDataEh
 1299              	.LVL167:
 151:Core/Src/screen.cpp **** 	sendData(endX + 2);
 1300              		.loc 1 151 2 is_stmt 1 view .LVU343
ARM GAS  /tmp/cc5TwoZ8.s 			page 33


 151:Core/Src/screen.cpp **** 	sendData(endX + 2);
 1301              		.loc 1 151 10 is_stmt 0 view .LVU344
 1302 0030 0021     		movs	r1, #0
 1303 0032 2000     		movs	r0, r4
 1304 0034 FFF7FEFF 		bl	_ZN6Screen8sendDataEh
 1305              	.LVL168:
 152:Core/Src/screen.cpp **** 
 1306              		.loc 1 152 2 is_stmt 1 view .LVU345
 152:Core/Src/screen.cpp **** 
 1307              		.loc 1 152 10 is_stmt 0 view .LVU346
 1308 0038 029B     		ldr	r3, [sp, #8]
 1309 003a 2000     		movs	r0, r4
 1310 003c 991C     		adds	r1, r3, #2
 1311 003e C9B2     		uxtb	r1, r1
 1312 0040 FFF7FEFF 		bl	_ZN6Screen8sendDataEh
 1313              	.LVL169:
 154:Core/Src/screen.cpp **** 	sendData(0x00);
 1314              		.loc 1 154 2 is_stmt 1 view .LVU347
 154:Core/Src/screen.cpp **** 	sendData(0x00);
 1315              		.loc 1 154 13 is_stmt 0 view .LVU348
 1316 0044 2B21     		movs	r1, #43
 1317 0046 2000     		movs	r0, r4
 1318 0048 FFF7FEFF 		bl	_ZN6Screen11sendCommandEh
 1319              	.LVL170:
 155:Core/Src/screen.cpp **** 	sendData(startY + 3);
 1320              		.loc 1 155 2 is_stmt 1 view .LVU349
 155:Core/Src/screen.cpp **** 	sendData(startY + 3);
 1321              		.loc 1 155 10 is_stmt 0 view .LVU350
 1322 004c 0021     		movs	r1, #0
 1323 004e 2000     		movs	r0, r4
 1324 0050 FFF7FEFF 		bl	_ZN6Screen8sendDataEh
 1325              	.LVL171:
 156:Core/Src/screen.cpp **** 	sendData(0x00);
 1326              		.loc 1 156 2 is_stmt 1 view .LVU351
 156:Core/Src/screen.cpp **** 	sendData(0x00);
 1327              		.loc 1 156 10 is_stmt 0 view .LVU352
 1328 0054 019B     		ldr	r3, [sp, #4]
 1329 0056 2000     		movs	r0, r4
 1330 0058 D91C     		adds	r1, r3, #3
 1331 005a C9B2     		uxtb	r1, r1
 1332 005c FFF7FEFF 		bl	_ZN6Screen8sendDataEh
 1333              	.LVL172:
 157:Core/Src/screen.cpp **** 	sendData(endY + 3);
 1334              		.loc 1 157 2 is_stmt 1 view .LVU353
 157:Core/Src/screen.cpp **** 	sendData(endY + 3);
 1335              		.loc 1 157 10 is_stmt 0 view .LVU354
 1336 0060 0021     		movs	r1, #0
 1337 0062 2000     		movs	r0, r4
 1338 0064 FFF7FEFF 		bl	_ZN6Screen8sendDataEh
 1339              	.LVL173:
 158:Core/Src/screen.cpp **** 
 1340              		.loc 1 158 2 is_stmt 1 view .LVU355
 158:Core/Src/screen.cpp **** 
 1341              		.loc 1 158 10 is_stmt 0 view .LVU356
 1342 0068 F91C     		adds	r1, r7, #3
 1343 006a 2000     		movs	r0, r4
 1344 006c C9B2     		uxtb	r1, r1
ARM GAS  /tmp/cc5TwoZ8.s 			page 34


 1345 006e FFF7FEFF 		bl	_ZN6Screen8sendDataEh
 1346              	.LVL174:
 160:Core/Src/screen.cpp **** 	sendData(0x00);
 1347              		.loc 1 160 2 is_stmt 1 view .LVU357
 160:Core/Src/screen.cpp **** 	sendData(0x00);
 1348              		.loc 1 160 13 is_stmt 0 view .LVU358
 1349 0072 2C21     		movs	r1, #44
 1350 0074 2000     		movs	r0, r4
 1351 0076 FFF7FEFF 		bl	_ZN6Screen11sendCommandEh
 1352              	.LVL175:
 161:Core/Src/screen.cpp **** 
 1353              		.loc 1 161 2 is_stmt 1 view .LVU359
 161:Core/Src/screen.cpp **** 
 1354              		.loc 1 161 10 is_stmt 0 view .LVU360
 1355 007a 0021     		movs	r1, #0
 1356 007c 2000     		movs	r0, r4
 1357 007e FFF7FEFF 		bl	_ZN6Screen8sendDataEh
 1358              	.LVL176:
 163:Core/Src/screen.cpp **** 		for (int j = 0; j < (endY - startY); ++j) {
 1359              		.loc 1 163 2 is_stmt 1 view .LVU361
 1360              	.LBB19:
 163:Core/Src/screen.cpp **** 		for (int j = 0; j < (endY - startY); ++j) {
 1361              		.loc 1 163 11 is_stmt 0 view .LVU362
 1362 0082 0025     		movs	r5, #0
 1363              	.LVL177:
 1364              	.L15:
 163:Core/Src/screen.cpp **** 		for (int j = 0; j < (endY - startY); ++j) {
 1365              		.loc 1 163 20 is_stmt 1 discriminator 1 view .LVU363
 163:Core/Src/screen.cpp **** 		for (int j = 0; j < (endY - startY); ++j) {
 1366              		.loc 1 163 28 is_stmt 0 discriminator 1 view .LVU364
 1367 0084 029B     		ldr	r3, [sp, #8]
 1368 0086 009A     		ldr	r2, [sp]
 1369 0088 9B1A     		subs	r3, r3, r2
 163:Core/Src/screen.cpp **** 		for (int j = 0; j < (endY - startY); ++j) {
 1370              		.loc 1 163 20 discriminator 1 view .LVU365
 1371 008a AB42     		cmp	r3, r5
 1372 008c 0CDC     		bgt	.L18
 1373              	.LBE19:
 168:Core/Src/screen.cpp **** 
 1374              		.loc 1 168 1 view .LVU366
 1375 008e 05B0     		add	sp, sp, #20
 1376              	.LVL178:
 168:Core/Src/screen.cpp **** 
 1377              		.loc 1 168 1 view .LVU367
 1378              		@ sp needed
 1379              	.LVL179:
 1380              	.LVL180:
 168:Core/Src/screen.cpp **** 
 1381              		.loc 1 168 1 view .LVU368
 1382 0090 F0BD     		pop	{r4, r5, r6, r7, pc}
 1383              	.LVL181:
 1384              	.L16:
 1385              	.LBB22:
 1386              	.LBB20:
 165:Core/Src/screen.cpp **** 		}
 1387              		.loc 1 165 4 is_stmt 1 view .LVU369
 165:Core/Src/screen.cpp **** 		}
ARM GAS  /tmp/cc5TwoZ8.s 			page 35


 1388              		.loc 1 165 13 is_stmt 0 view .LVU370
 1389 0092 2000     		movs	r0, r4
 1390 0094 0399     		ldr	r1, [sp, #12]
 1391 0096 FFF7FEFF 		bl	_ZN6Screen9sendWdataEt
 1392              	.LVL182:
 164:Core/Src/screen.cpp **** 			sendWdata(color);
 1393              		.loc 1 164 3 is_stmt 1 discriminator 3 view .LVU371
 1394 009a 0136     		adds	r6, r6, #1
 1395              	.LVL183:
 1396              	.L17:
 164:Core/Src/screen.cpp **** 			sendWdata(color);
 1397              		.loc 1 164 21 discriminator 1 view .LVU372
 164:Core/Src/screen.cpp **** 			sendWdata(color);
 1398              		.loc 1 164 29 is_stmt 0 discriminator 1 view .LVU373
 1399 009c 019B     		ldr	r3, [sp, #4]
 1400 009e FB1A     		subs	r3, r7, r3
 164:Core/Src/screen.cpp **** 			sendWdata(color);
 1401              		.loc 1 164 21 discriminator 1 view .LVU374
 1402 00a0 B342     		cmp	r3, r6
 1403 00a2 F6DC     		bgt	.L16
 1404              	.LBE20:
 163:Core/Src/screen.cpp **** 		for (int j = 0; j < (endY - startY); ++j) {
 1405              		.loc 1 163 2 is_stmt 1 discriminator 2 view .LVU375
 1406 00a4 0135     		adds	r5, r5, #1
 1407              	.LVL184:
 163:Core/Src/screen.cpp **** 		for (int j = 0; j < (endY - startY); ++j) {
 1408              		.loc 1 163 2 is_stmt 0 discriminator 2 view .LVU376
 1409 00a6 EDE7     		b	.L15
 1410              	.LVL185:
 1411              	.L18:
 1412              	.LBB21:
 164:Core/Src/screen.cpp **** 			sendWdata(color);
 1413              		.loc 1 164 12 view .LVU377
 1414 00a8 0026     		movs	r6, #0
 1415 00aa F7E7     		b	.L17
 1416              	.LBE21:
 1417              	.LBE22:
 1418              		.cfi_endproc
 1419              	.LFE432:
 1420              		.fnend
 1422              		.section	.text._ZN6Screen8drawFontEttPcht,"ax",%progbits
 1423              		.align	1
 1424              		.global	_ZN6Screen8drawFontEttPcht
 1425              		.syntax unified
 1426              		.code	16
 1427              		.thumb_func
 1429              	_ZN6Screen8drawFontEttPcht:
 1430              		.fnstart
 1431              	.LVL186:
 1432              	.LFB434:
 177:Core/Src/screen.cpp **** 	uint16_t currentX = x;
 1433              		.loc 1 177 90 is_stmt 1 view -0
 1434              		.cfi_startproc
 1435              		@ args = 8, pretend = 0, frame = 24
 1436              		@ frame_needed = 0, uses_anonymous_args = 0
 178:Core/Src/screen.cpp **** 	
 1437              		.loc 1 178 2 view .LVU379
ARM GAS  /tmp/cc5TwoZ8.s 			page 36


 180:Core/Src/screen.cpp **** 		setRegion(currentX, y, currentX + 16, y + 30);
 1438              		.loc 1 180 2 view .LVU380
 177:Core/Src/screen.cpp **** 	uint16_t currentX = x;
 1439              		.loc 1 177 90 is_stmt 0 view .LVU381
 1440 0000 F0B5     		push	{r4, r5, r6, r7, lr}
 1441              		.save {r4, r5, r6, r7, lr}
 1442              	.LCFI12:
 1443              		.cfi_def_cfa_offset 20
 1444              		.cfi_offset 4, -20
 1445              		.cfi_offset 5, -16
 1446              		.cfi_offset 6, -12
 1447              		.cfi_offset 7, -8
 1448              		.cfi_offset 14, -4
 1449 0002 0400     		movs	r4, r0
 1450              	.LBB23:
 180:Core/Src/screen.cpp **** 		setRegion(currentX, y, currentX + 16, y + 30);
 1451              		.loc 1 180 11 view .LVU382
 1452 0004 0027     		movs	r7, #0
 1453              	.LBE23:
 177:Core/Src/screen.cpp **** 	uint16_t currentX = x;
 1454              		.loc 1 177 90 view .LVU383
 1455              		.pad #36
 1456 0006 89B0     		sub	sp, sp, #36
 1457              	.LCFI13:
 1458              		.cfi_def_cfa_offset 56
 177:Core/Src/screen.cpp **** 	uint16_t currentX = x;
 1459              		.loc 1 177 90 view .LVU384
 1460 0008 0693     		str	r3, [sp, #24]
 1461 000a 0EAB     		add	r3, sp, #56
 1462              	.LVL187:
 177:Core/Src/screen.cpp **** 	uint16_t currentX = x;
 1463              		.loc 1 177 90 view .LVU385
 1464 000c 1B78     		ldrb	r3, [r3]
 1465              	.LVL188:
 177:Core/Src/screen.cpp **** 	uint16_t currentX = x;
 1466              		.loc 1 177 90 view .LVU386
 1467 000e 0492     		str	r2, [sp, #16]
 1468 0010 0793     		str	r3, [sp, #28]
 1469 0012 0FAB     		add	r3, sp, #60
 1470              	.LVL189:
 177:Core/Src/screen.cpp **** 	uint16_t currentX = x;
 1471              		.loc 1 177 90 view .LVU387
 1472 0014 1D88     		ldrh	r5, [r3]
 1473              	.LVL190:
 1474              	.L20:
 1475              	.LBB31:
 180:Core/Src/screen.cpp **** 		setRegion(currentX, y, currentX + 16, y + 30);
 1476              		.loc 1 180 21 is_stmt 1 discriminator 1 view .LVU388
 1477 0016 079B     		ldr	r3, [sp, #28]
 1478 0018 BB42     		cmp	r3, r7
 1479 001a 01DC     		bgt	.L42
 1480              	.LBE31:
 209:Core/Src/screen.cpp **** 
 1481              		.loc 1 209 1 is_stmt 0 view .LVU389
 1482 001c 09B0     		add	sp, sp, #36
 1483              		@ sp needed
 1484              	.LVL191:
ARM GAS  /tmp/cc5TwoZ8.s 			page 37


 1485              	.LVL192:
 209:Core/Src/screen.cpp **** 
 1486              		.loc 1 209 1 view .LVU390
 1487 001e F0BD     		pop	{r4, r5, r6, r7, pc}
 1488              	.LVL193:
 1489              	.L42:
 1490              	.LBB32:
 1491              	.LBB24:
 181:Core/Src/screen.cpp **** 		sendData(0x00);
 1492              		.loc 1 181 3 is_stmt 1 view .LVU391
 181:Core/Src/screen.cpp **** 		sendData(0x00);
 1493              		.loc 1 181 12 is_stmt 0 view .LVU392
 1494 0020 0B00     		movs	r3, r1
 1495 0022 1033     		adds	r3, r3, #16
 1496 0024 9BB2     		uxth	r3, r3
 1497 0026 0393     		str	r3, [sp, #12]
 1498 0028 049B     		ldr	r3, [sp, #16]
 1499 002a 2000     		movs	r0, r4
 1500 002c 1E33     		adds	r3, r3, #30
 1501 002e 9BB2     		uxth	r3, r3
 1502 0030 049A     		ldr	r2, [sp, #16]
 1503 0032 0093     		str	r3, [sp]
 1504 0034 039B     		ldr	r3, [sp, #12]
 1505 0036 FFF7FEFF 		bl	_ZN6Screen9setRegionEtttt
 1506              	.LVL194:
 182:Core/Src/screen.cpp **** 		
 1507              		.loc 1 182 3 is_stmt 1 view .LVU393
 182:Core/Src/screen.cpp **** 		
 1508              		.loc 1 182 11 is_stmt 0 view .LVU394
 1509 003a 0021     		movs	r1, #0
 1510 003c 2000     		movs	r0, r4
 1511 003e FFF7FEFF 		bl	_ZN6Screen8sendDataEh
 1512              	.LVL195:
 184:Core/Src/screen.cpp **** 			for (const auto& item : fonts[10]) {
 1513              		.loc 1 184 3 is_stmt 1 view .LVU395
 1514              	.LBB25:
 184:Core/Src/screen.cpp **** 			for (const auto& item : fonts[10]) {
 1515              		.loc 1 184 12 is_stmt 0 view .LVU396
 1516 0042 069B     		ldr	r3, [sp, #24]
 1517 0044 DE5D     		ldrb	r6, [r3, r7]
 184:Core/Src/screen.cpp **** 			for (const auto& item : fonts[10]) {
 1518              		.loc 1 184 3 view .LVU397
 1519 0046 2E2E     		cmp	r6, #46
 1520 0048 53D1     		bne	.L21
 1521              	.LBB26:
 185:Core/Src/screen.cpp **** 				sendWdata(((item >> 7) & 0x01) ? 0x0000 : color);
 1522              		.loc 1 185 36 view .LVU398
 1523 004a 564E     		ldr	r6, .L60
 1524              	.L30:
 1525              	.LVL196:
 186:Core/Src/screen.cpp **** 				sendWdata(((item >> 6) & 0x01) ? 0x0000 : color);
 1526              		.loc 1 186 5 is_stmt 1 view .LVU399
 186:Core/Src/screen.cpp **** 				sendWdata(((item >> 6) & 0x01) ? 0x0000 : color);
 1527              		.loc 1 186 14 is_stmt 0 view .LVU400
 1528 004c 3378     		ldrb	r3, [r6]
 186:Core/Src/screen.cpp **** 				sendWdata(((item >> 6) & 0x01) ? 0x0000 : color);
 1529              		.loc 1 186 14 discriminator 2 view .LVU401
ARM GAS  /tmp/cc5TwoZ8.s 			page 38


 1530 004e 0021     		movs	r1, #0
 186:Core/Src/screen.cpp **** 				sendWdata(((item >> 6) & 0x01) ? 0x0000 : color);
 1531              		.loc 1 186 14 view .LVU402
 1532 0050 7F2B     		cmp	r3, #127
 1533 0052 00D8     		bhi	.L22
 186:Core/Src/screen.cpp **** 				sendWdata(((item >> 6) & 0x01) ? 0x0000 : color);
 1534              		.loc 1 186 14 discriminator 1 view .LVU403
 1535 0054 2900     		movs	r1, r5
 1536              	.L22:
 186:Core/Src/screen.cpp **** 				sendWdata(((item >> 6) & 0x01) ? 0x0000 : color);
 1537              		.loc 1 186 14 discriminator 4 view .LVU404
 1538 0056 2000     		movs	r0, r4
 1539 0058 FFF7FEFF 		bl	_ZN6Screen9sendWdataEt
 1540              	.LVL197:
 187:Core/Src/screen.cpp **** 				sendWdata(((item >> 5) & 0x01) ? 0x0000 : color);
 1541              		.loc 1 187 5 is_stmt 1 view .LVU405
 187:Core/Src/screen.cpp **** 				sendWdata(((item >> 5) & 0x01) ? 0x0000 : color);
 1542              		.loc 1 187 14 is_stmt 0 view .LVU406
 1543 005c 4023     		movs	r3, #64
 1544 005e 3178     		ldrb	r1, [r6]
 187:Core/Src/screen.cpp **** 				sendWdata(((item >> 5) & 0x01) ? 0x0000 : color);
 1545              		.loc 1 187 14 discriminator 4 view .LVU407
 1546 0060 2000     		movs	r0, r4
 187:Core/Src/screen.cpp **** 				sendWdata(((item >> 5) & 0x01) ? 0x0000 : color);
 1547              		.loc 1 187 14 view .LVU408
 1548 0062 1940     		ands	r1, r3
 187:Core/Src/screen.cpp **** 				sendWdata(((item >> 5) & 0x01) ? 0x0000 : color);
 1549              		.loc 1 187 14 discriminator 1 view .LVU409
 1550 0064 4B42     		rsbs	r3, r1, #0
 1551 0066 5941     		adcs	r1, r1, r3
 1552 0068 4942     		rsbs	r1, r1, #0
 1553 006a 2940     		ands	r1, r5
 187:Core/Src/screen.cpp **** 				sendWdata(((item >> 5) & 0x01) ? 0x0000 : color);
 1554              		.loc 1 187 14 discriminator 4 view .LVU410
 1555 006c FFF7FEFF 		bl	_ZN6Screen9sendWdataEt
 1556              	.LVL198:
 188:Core/Src/screen.cpp **** 				sendWdata(((item >> 4) & 0x01) ? 0x0000 : color);
 1557              		.loc 1 188 5 is_stmt 1 view .LVU411
 188:Core/Src/screen.cpp **** 				sendWdata(((item >> 4) & 0x01) ? 0x0000 : color);
 1558              		.loc 1 188 14 is_stmt 0 view .LVU412
 1559 0070 2023     		movs	r3, #32
 1560 0072 3178     		ldrb	r1, [r6]
 188:Core/Src/screen.cpp **** 				sendWdata(((item >> 4) & 0x01) ? 0x0000 : color);
 1561              		.loc 1 188 14 discriminator 4 view .LVU413
 1562 0074 2000     		movs	r0, r4
 188:Core/Src/screen.cpp **** 				sendWdata(((item >> 4) & 0x01) ? 0x0000 : color);
 1563              		.loc 1 188 14 view .LVU414
 1564 0076 1940     		ands	r1, r3
 188:Core/Src/screen.cpp **** 				sendWdata(((item >> 4) & 0x01) ? 0x0000 : color);
 1565              		.loc 1 188 14 discriminator 1 view .LVU415
 1566 0078 4B42     		rsbs	r3, r1, #0
 1567 007a 5941     		adcs	r1, r1, r3
 1568 007c 4942     		rsbs	r1, r1, #0
 1569 007e 2940     		ands	r1, r5
 188:Core/Src/screen.cpp **** 				sendWdata(((item >> 4) & 0x01) ? 0x0000 : color);
 1570              		.loc 1 188 14 discriminator 4 view .LVU416
 1571 0080 FFF7FEFF 		bl	_ZN6Screen9sendWdataEt
ARM GAS  /tmp/cc5TwoZ8.s 			page 39


 1572              	.LVL199:
 189:Core/Src/screen.cpp **** 				sendWdata(((item >> 3) & 0x01) ? 0x0000 : color);
 1573              		.loc 1 189 5 is_stmt 1 view .LVU417
 189:Core/Src/screen.cpp **** 				sendWdata(((item >> 3) & 0x01) ? 0x0000 : color);
 1574              		.loc 1 189 14 is_stmt 0 view .LVU418
 1575 0084 1023     		movs	r3, #16
 1576 0086 3178     		ldrb	r1, [r6]
 189:Core/Src/screen.cpp **** 				sendWdata(((item >> 3) & 0x01) ? 0x0000 : color);
 1577              		.loc 1 189 14 discriminator 4 view .LVU419
 1578 0088 2000     		movs	r0, r4
 189:Core/Src/screen.cpp **** 				sendWdata(((item >> 3) & 0x01) ? 0x0000 : color);
 1579              		.loc 1 189 14 view .LVU420
 1580 008a 1940     		ands	r1, r3
 189:Core/Src/screen.cpp **** 				sendWdata(((item >> 3) & 0x01) ? 0x0000 : color);
 1581              		.loc 1 189 14 discriminator 1 view .LVU421
 1582 008c 4B42     		rsbs	r3, r1, #0
 1583 008e 5941     		adcs	r1, r1, r3
 1584 0090 4942     		rsbs	r1, r1, #0
 1585 0092 2940     		ands	r1, r5
 189:Core/Src/screen.cpp **** 				sendWdata(((item >> 3) & 0x01) ? 0x0000 : color);
 1586              		.loc 1 189 14 discriminator 4 view .LVU422
 1587 0094 FFF7FEFF 		bl	_ZN6Screen9sendWdataEt
 1588              	.LVL200:
 190:Core/Src/screen.cpp **** 				sendWdata(((item >> 2) & 0x01) ? 0x0000 : color);
 1589              		.loc 1 190 5 is_stmt 1 view .LVU423
 190:Core/Src/screen.cpp **** 				sendWdata(((item >> 2) & 0x01) ? 0x0000 : color);
 1590              		.loc 1 190 14 is_stmt 0 view .LVU424
 1591 0098 0823     		movs	r3, #8
 1592 009a 3178     		ldrb	r1, [r6]
 190:Core/Src/screen.cpp **** 				sendWdata(((item >> 2) & 0x01) ? 0x0000 : color);
 1593              		.loc 1 190 14 discriminator 4 view .LVU425
 1594 009c 2000     		movs	r0, r4
 190:Core/Src/screen.cpp **** 				sendWdata(((item >> 2) & 0x01) ? 0x0000 : color);
 1595              		.loc 1 190 14 view .LVU426
 1596 009e 1940     		ands	r1, r3
 190:Core/Src/screen.cpp **** 				sendWdata(((item >> 2) & 0x01) ? 0x0000 : color);
 1597              		.loc 1 190 14 discriminator 1 view .LVU427
 1598 00a0 4B42     		rsbs	r3, r1, #0
 1599 00a2 5941     		adcs	r1, r1, r3
 1600 00a4 4942     		rsbs	r1, r1, #0
 1601 00a6 2940     		ands	r1, r5
 190:Core/Src/screen.cpp **** 				sendWdata(((item >> 2) & 0x01) ? 0x0000 : color);
 1602              		.loc 1 190 14 discriminator 4 view .LVU428
 1603 00a8 FFF7FEFF 		bl	_ZN6Screen9sendWdataEt
 1604              	.LVL201:
 191:Core/Src/screen.cpp **** 				sendWdata(((item >> 1) & 0x01) ? 0x0000 : color);
 1605              		.loc 1 191 5 is_stmt 1 view .LVU429
 191:Core/Src/screen.cpp **** 				sendWdata(((item >> 1) & 0x01) ? 0x0000 : color);
 1606              		.loc 1 191 14 is_stmt 0 view .LVU430
 1607 00ac 0423     		movs	r3, #4
 1608 00ae 3178     		ldrb	r1, [r6]
 191:Core/Src/screen.cpp **** 				sendWdata(((item >> 1) & 0x01) ? 0x0000 : color);
 1609              		.loc 1 191 14 discriminator 4 view .LVU431
 1610 00b0 2000     		movs	r0, r4
 191:Core/Src/screen.cpp **** 				sendWdata(((item >> 1) & 0x01) ? 0x0000 : color);
 1611              		.loc 1 191 14 view .LVU432
 1612 00b2 1940     		ands	r1, r3
ARM GAS  /tmp/cc5TwoZ8.s 			page 40


 191:Core/Src/screen.cpp **** 				sendWdata(((item >> 1) & 0x01) ? 0x0000 : color);
 1613              		.loc 1 191 14 discriminator 1 view .LVU433
 1614 00b4 4B42     		rsbs	r3, r1, #0
 1615 00b6 5941     		adcs	r1, r1, r3
 1616 00b8 4942     		rsbs	r1, r1, #0
 1617 00ba 2940     		ands	r1, r5
 191:Core/Src/screen.cpp **** 				sendWdata(((item >> 1) & 0x01) ? 0x0000 : color);
 1618              		.loc 1 191 14 discriminator 4 view .LVU434
 1619 00bc FFF7FEFF 		bl	_ZN6Screen9sendWdataEt
 1620              	.LVL202:
 192:Core/Src/screen.cpp **** 				sendWdata((item & 0x01) ? 0x0000 : color);
 1621              		.loc 1 192 5 is_stmt 1 view .LVU435
 192:Core/Src/screen.cpp **** 				sendWdata((item & 0x01) ? 0x0000 : color);
 1622              		.loc 1 192 14 is_stmt 0 view .LVU436
 1623 00c0 0223     		movs	r3, #2
 1624 00c2 3178     		ldrb	r1, [r6]
 192:Core/Src/screen.cpp **** 				sendWdata((item & 0x01) ? 0x0000 : color);
 1625              		.loc 1 192 14 discriminator 4 view .LVU437
 1626 00c4 2000     		movs	r0, r4
 192:Core/Src/screen.cpp **** 				sendWdata((item & 0x01) ? 0x0000 : color);
 1627              		.loc 1 192 14 view .LVU438
 1628 00c6 1940     		ands	r1, r3
 192:Core/Src/screen.cpp **** 				sendWdata((item & 0x01) ? 0x0000 : color);
 1629              		.loc 1 192 14 discriminator 1 view .LVU439
 1630 00c8 4B42     		rsbs	r3, r1, #0
 1631 00ca 5941     		adcs	r1, r1, r3
 1632 00cc 4942     		rsbs	r1, r1, #0
 1633 00ce 2940     		ands	r1, r5
 192:Core/Src/screen.cpp **** 				sendWdata((item & 0x01) ? 0x0000 : color);
 1634              		.loc 1 192 14 discriminator 4 view .LVU440
 1635 00d0 FFF7FEFF 		bl	_ZN6Screen9sendWdataEt
 1636              	.LVL203:
 193:Core/Src/screen.cpp **** 			}
 1637              		.loc 1 193 5 is_stmt 1 view .LVU441
 193:Core/Src/screen.cpp **** 			}
 1638              		.loc 1 193 14 is_stmt 0 view .LVU442
 1639 00d4 0123     		movs	r3, #1
 1640 00d6 3178     		ldrb	r1, [r6]
 193:Core/Src/screen.cpp **** 			}
 1641              		.loc 1 193 14 discriminator 4 view .LVU443
 1642 00d8 2000     		movs	r0, r4
 193:Core/Src/screen.cpp **** 			}
 1643              		.loc 1 193 14 view .LVU444
 1644 00da 1940     		ands	r1, r3
 193:Core/Src/screen.cpp **** 			}
 1645              		.loc 1 193 14 discriminator 1 view .LVU445
 1646 00dc 0139     		subs	r1, r1, #1
 1647 00de 2940     		ands	r1, r5
 193:Core/Src/screen.cpp **** 			}
 1648              		.loc 1 193 14 discriminator 4 view .LVU446
 1649 00e0 FFF7FEFF 		bl	_ZN6Screen9sendWdataEt
 1650              	.LVL204:
 185:Core/Src/screen.cpp **** 				sendWdata(((item >> 7) & 0x01) ? 0x0000 : color);
 1651              		.loc 1 185 4 is_stmt 1 discriminator 2 view .LVU447
 185:Core/Src/screen.cpp **** 				sendWdata(((item >> 7) & 0x01) ? 0x0000 : color);
 1652              		.loc 1 185 36 is_stmt 0 discriminator 1 view .LVU448
 1653 00e4 304B     		ldr	r3, .L60+4
ARM GAS  /tmp/cc5TwoZ8.s 			page 41


 185:Core/Src/screen.cpp **** 				sendWdata(((item >> 7) & 0x01) ? 0x0000 : color);
 1654              		.loc 1 185 4 discriminator 2 view .LVU449
 1655 00e6 0136     		adds	r6, r6, #1
 1656              	.LVL205:
 185:Core/Src/screen.cpp **** 				sendWdata(((item >> 7) & 0x01) ? 0x0000 : color);
 1657              		.loc 1 185 36 is_stmt 1 discriminator 1 view .LVU450
 1658 00e8 9E42     		cmp	r6, r3
 1659 00ea AFD1     		bne	.L30
 1660              	.LVL206:
 1661              	.L41:
 185:Core/Src/screen.cpp **** 				sendWdata(((item >> 7) & 0x01) ? 0x0000 : color);
 1662              		.loc 1 185 36 is_stmt 0 discriminator 1 view .LVU451
 1663              	.LBE26:
 1664              	.LBE25:
 207:Core/Src/screen.cpp **** 	}
 1665              		.loc 1 207 3 is_stmt 1 view .LVU452
 207:Core/Src/screen.cpp **** 	}
 1666              		.loc 1 207 3 is_stmt 0 view .LVU453
 1667              	.LBE24:
 180:Core/Src/screen.cpp **** 		setRegion(currentX, y, currentX + 16, y + 30);
 1668              		.loc 1 180 2 is_stmt 1 discriminator 2 view .LVU454
 1669              	.LBB29:
 207:Core/Src/screen.cpp **** 	}
 1670              		.loc 1 207 12 is_stmt 0 view .LVU455
 1671 00ec 0399     		ldr	r1, [sp, #12]
 1672              	.LBE29:
 180:Core/Src/screen.cpp **** 		setRegion(currentX, y, currentX + 16, y + 30);
 1673              		.loc 1 180 2 discriminator 2 view .LVU456
 1674 00ee 0137     		adds	r7, r7, #1
 1675              	.LVL207:
 180:Core/Src/screen.cpp **** 		setRegion(currentX, y, currentX + 16, y + 30);
 1676              		.loc 1 180 2 discriminator 2 view .LVU457
 1677 00f0 91E7     		b	.L20
 1678              	.LVL208:
 1679              	.L21:
 180:Core/Src/screen.cpp **** 		setRegion(currentX, y, currentX + 16, y + 30);
 1680              		.loc 1 180 2 discriminator 2 view .LVU458
 1681              	.LBE32:
 196:Core/Src/screen.cpp **** 				sendWdata(((item >> 7) & 0x01) ? 0x0000 : color);
 1682              		.loc 1 196 4 is_stmt 1 view .LVU459
 1683              	.LBB33:
 1684              	.LBB30:
 1685              	.LBB28:
 1686              	.LBB27:
 196:Core/Src/screen.cpp **** 				sendWdata(((item >> 7) & 0x01) ? 0x0000 : color);
 1687              		.loc 1 196 46 is_stmt 0 view .LVU460
 1688 00f2 3C23     		movs	r3, #60
 196:Core/Src/screen.cpp **** 				sendWdata(((item >> 7) & 0x01) ? 0x0000 : color);
 1689              		.loc 1 196 41 view .LVU461
 1690 00f4 303E     		subs	r6, r6, #48
 196:Core/Src/screen.cpp **** 				sendWdata(((item >> 7) & 0x01) ? 0x0000 : color);
 1691              		.loc 1 196 46 view .LVU462
 1692 00f6 5E43     		muls	r6, r3
 1693 00f8 2C4B     		ldr	r3, .L60+8
 1694 00fa F618     		adds	r6, r6, r3
 1695              	.LVL209:
 196:Core/Src/screen.cpp **** 				sendWdata(((item >> 7) & 0x01) ? 0x0000 : color);
ARM GAS  /tmp/cc5TwoZ8.s 			page 42


 1696              		.loc 1 196 46 view .LVU463
 1697 00fc 3300     		movs	r3, r6
 1698 00fe 3C33     		adds	r3, r3, #60
 1699 0100 0593     		str	r3, [sp, #20]
 1700              	.LVL210:
 1701              	.L31:
 196:Core/Src/screen.cpp **** 				sendWdata(((item >> 7) & 0x01) ? 0x0000 : color);
 1702              		.loc 1 196 46 is_stmt 1 discriminator 1 view .LVU464
 1703 0102 059B     		ldr	r3, [sp, #20]
 1704 0104 9E42     		cmp	r6, r3
 1705 0106 F1D0     		beq	.L41
 1706              	.LVL211:
 197:Core/Src/screen.cpp **** 				sendWdata(((item >> 6) & 0x01) ? 0x0000 : color);
 1707              		.loc 1 197 5 view .LVU465
 197:Core/Src/screen.cpp **** 				sendWdata(((item >> 6) & 0x01) ? 0x0000 : color);
 1708              		.loc 1 197 14 is_stmt 0 view .LVU466
 1709 0108 3378     		ldrb	r3, [r6]
 197:Core/Src/screen.cpp **** 				sendWdata(((item >> 6) & 0x01) ? 0x0000 : color);
 1710              		.loc 1 197 14 discriminator 2 view .LVU467
 1711 010a 0021     		movs	r1, #0
 197:Core/Src/screen.cpp **** 				sendWdata(((item >> 6) & 0x01) ? 0x0000 : color);
 1712              		.loc 1 197 14 view .LVU468
 1713 010c 7F2B     		cmp	r3, #127
 1714 010e 00D8     		bhi	.L32
 197:Core/Src/screen.cpp **** 				sendWdata(((item >> 6) & 0x01) ? 0x0000 : color);
 1715              		.loc 1 197 14 discriminator 1 view .LVU469
 1716 0110 2900     		movs	r1, r5
 1717              	.L32:
 197:Core/Src/screen.cpp **** 				sendWdata(((item >> 6) & 0x01) ? 0x0000 : color);
 1718              		.loc 1 197 14 discriminator 4 view .LVU470
 1719 0112 2000     		movs	r0, r4
 1720 0114 FFF7FEFF 		bl	_ZN6Screen9sendWdataEt
 1721              	.LVL212:
 198:Core/Src/screen.cpp **** 				sendWdata(((item >> 5) & 0x01) ? 0x0000 : color);
 1722              		.loc 1 198 5 is_stmt 1 view .LVU471
 198:Core/Src/screen.cpp **** 				sendWdata(((item >> 5) & 0x01) ? 0x0000 : color);
 1723              		.loc 1 198 14 is_stmt 0 view .LVU472
 1724 0118 4023     		movs	r3, #64
 1725 011a 3178     		ldrb	r1, [r6]
 198:Core/Src/screen.cpp **** 				sendWdata(((item >> 5) & 0x01) ? 0x0000 : color);
 1726              		.loc 1 198 14 discriminator 4 view .LVU473
 1727 011c 2000     		movs	r0, r4
 198:Core/Src/screen.cpp **** 				sendWdata(((item >> 5) & 0x01) ? 0x0000 : color);
 1728              		.loc 1 198 14 view .LVU474
 1729 011e 1940     		ands	r1, r3
 198:Core/Src/screen.cpp **** 				sendWdata(((item >> 5) & 0x01) ? 0x0000 : color);
 1730              		.loc 1 198 14 discriminator 1 view .LVU475
 1731 0120 4B42     		rsbs	r3, r1, #0
 1732 0122 5941     		adcs	r1, r1, r3
 1733 0124 4942     		rsbs	r1, r1, #0
 1734 0126 2940     		ands	r1, r5
 198:Core/Src/screen.cpp **** 				sendWdata(((item >> 5) & 0x01) ? 0x0000 : color);
 1735              		.loc 1 198 14 discriminator 4 view .LVU476
 1736 0128 FFF7FEFF 		bl	_ZN6Screen9sendWdataEt
 1737              	.LVL213:
 199:Core/Src/screen.cpp **** 				sendWdata(((item >> 4) & 0x01) ? 0x0000 : color);
 1738              		.loc 1 199 5 is_stmt 1 view .LVU477
ARM GAS  /tmp/cc5TwoZ8.s 			page 43


 199:Core/Src/screen.cpp **** 				sendWdata(((item >> 4) & 0x01) ? 0x0000 : color);
 1739              		.loc 1 199 14 is_stmt 0 view .LVU478
 1740 012c 2023     		movs	r3, #32
 1741 012e 3178     		ldrb	r1, [r6]
 199:Core/Src/screen.cpp **** 				sendWdata(((item >> 4) & 0x01) ? 0x0000 : color);
 1742              		.loc 1 199 14 discriminator 4 view .LVU479
 1743 0130 2000     		movs	r0, r4
 199:Core/Src/screen.cpp **** 				sendWdata(((item >> 4) & 0x01) ? 0x0000 : color);
 1744              		.loc 1 199 14 view .LVU480
 1745 0132 1940     		ands	r1, r3
 199:Core/Src/screen.cpp **** 				sendWdata(((item >> 4) & 0x01) ? 0x0000 : color);
 1746              		.loc 1 199 14 discriminator 1 view .LVU481
 1747 0134 4B42     		rsbs	r3, r1, #0
 1748 0136 5941     		adcs	r1, r1, r3
 1749 0138 4942     		rsbs	r1, r1, #0
 1750 013a 2940     		ands	r1, r5
 199:Core/Src/screen.cpp **** 				sendWdata(((item >> 4) & 0x01) ? 0x0000 : color);
 1751              		.loc 1 199 14 discriminator 4 view .LVU482
 1752 013c FFF7FEFF 		bl	_ZN6Screen9sendWdataEt
 1753              	.LVL214:
 200:Core/Src/screen.cpp **** 				sendWdata(((item >> 3) & 0x01) ? 0x0000 : color);
 1754              		.loc 1 200 5 is_stmt 1 view .LVU483
 200:Core/Src/screen.cpp **** 				sendWdata(((item >> 3) & 0x01) ? 0x0000 : color);
 1755              		.loc 1 200 14 is_stmt 0 view .LVU484
 1756 0140 1023     		movs	r3, #16
 1757 0142 3178     		ldrb	r1, [r6]
 200:Core/Src/screen.cpp **** 				sendWdata(((item >> 3) & 0x01) ? 0x0000 : color);
 1758              		.loc 1 200 14 discriminator 4 view .LVU485
 1759 0144 2000     		movs	r0, r4
 200:Core/Src/screen.cpp **** 				sendWdata(((item >> 3) & 0x01) ? 0x0000 : color);
 1760              		.loc 1 200 14 view .LVU486
 1761 0146 1940     		ands	r1, r3
 200:Core/Src/screen.cpp **** 				sendWdata(((item >> 3) & 0x01) ? 0x0000 : color);
 1762              		.loc 1 200 14 discriminator 1 view .LVU487
 1763 0148 4B42     		rsbs	r3, r1, #0
 1764 014a 5941     		adcs	r1, r1, r3
 1765 014c 4942     		rsbs	r1, r1, #0
 1766 014e 2940     		ands	r1, r5
 200:Core/Src/screen.cpp **** 				sendWdata(((item >> 3) & 0x01) ? 0x0000 : color);
 1767              		.loc 1 200 14 discriminator 4 view .LVU488
 1768 0150 FFF7FEFF 		bl	_ZN6Screen9sendWdataEt
 1769              	.LVL215:
 201:Core/Src/screen.cpp **** 				sendWdata(((item >> 2) & 0x01) ? 0x0000 : color);
 1770              		.loc 1 201 5 is_stmt 1 view .LVU489
 201:Core/Src/screen.cpp **** 				sendWdata(((item >> 2) & 0x01) ? 0x0000 : color);
 1771              		.loc 1 201 14 is_stmt 0 view .LVU490
 1772 0154 0823     		movs	r3, #8
 1773 0156 3178     		ldrb	r1, [r6]
 201:Core/Src/screen.cpp **** 				sendWdata(((item >> 2) & 0x01) ? 0x0000 : color);
 1774              		.loc 1 201 14 discriminator 4 view .LVU491
 1775 0158 2000     		movs	r0, r4
 201:Core/Src/screen.cpp **** 				sendWdata(((item >> 2) & 0x01) ? 0x0000 : color);
 1776              		.loc 1 201 14 view .LVU492
 1777 015a 1940     		ands	r1, r3
 201:Core/Src/screen.cpp **** 				sendWdata(((item >> 2) & 0x01) ? 0x0000 : color);
 1778              		.loc 1 201 14 discriminator 1 view .LVU493
 1779 015c 4B42     		rsbs	r3, r1, #0
ARM GAS  /tmp/cc5TwoZ8.s 			page 44


 1780 015e 5941     		adcs	r1, r1, r3
 1781 0160 4942     		rsbs	r1, r1, #0
 1782 0162 2940     		ands	r1, r5
 201:Core/Src/screen.cpp **** 				sendWdata(((item >> 2) & 0x01) ? 0x0000 : color);
 1783              		.loc 1 201 14 discriminator 4 view .LVU494
 1784 0164 FFF7FEFF 		bl	_ZN6Screen9sendWdataEt
 1785              	.LVL216:
 202:Core/Src/screen.cpp **** 				sendWdata(((item >> 1) & 0x01) ? 0x0000 : color);
 1786              		.loc 1 202 5 is_stmt 1 view .LVU495
 202:Core/Src/screen.cpp **** 				sendWdata(((item >> 1) & 0x01) ? 0x0000 : color);
 1787              		.loc 1 202 14 is_stmt 0 view .LVU496
 1788 0168 0423     		movs	r3, #4
 1789 016a 3178     		ldrb	r1, [r6]
 202:Core/Src/screen.cpp **** 				sendWdata(((item >> 1) & 0x01) ? 0x0000 : color);
 1790              		.loc 1 202 14 discriminator 4 view .LVU497
 1791 016c 2000     		movs	r0, r4
 202:Core/Src/screen.cpp **** 				sendWdata(((item >> 1) & 0x01) ? 0x0000 : color);
 1792              		.loc 1 202 14 view .LVU498
 1793 016e 1940     		ands	r1, r3
 202:Core/Src/screen.cpp **** 				sendWdata(((item >> 1) & 0x01) ? 0x0000 : color);
 1794              		.loc 1 202 14 discriminator 1 view .LVU499
 1795 0170 4B42     		rsbs	r3, r1, #0
 1796 0172 5941     		adcs	r1, r1, r3
 1797 0174 4942     		rsbs	r1, r1, #0
 1798 0176 2940     		ands	r1, r5
 202:Core/Src/screen.cpp **** 				sendWdata(((item >> 1) & 0x01) ? 0x0000 : color);
 1799              		.loc 1 202 14 discriminator 4 view .LVU500
 1800 0178 FFF7FEFF 		bl	_ZN6Screen9sendWdataEt
 1801              	.LVL217:
 203:Core/Src/screen.cpp **** 				sendWdata((item & 0x01) ? 0x0000 : color);
 1802              		.loc 1 203 5 is_stmt 1 view .LVU501
 203:Core/Src/screen.cpp **** 				sendWdata((item & 0x01) ? 0x0000 : color);
 1803              		.loc 1 203 14 is_stmt 0 view .LVU502
 1804 017c 0223     		movs	r3, #2
 1805 017e 3178     		ldrb	r1, [r6]
 203:Core/Src/screen.cpp **** 				sendWdata((item & 0x01) ? 0x0000 : color);
 1806              		.loc 1 203 14 discriminator 4 view .LVU503
 1807 0180 2000     		movs	r0, r4
 203:Core/Src/screen.cpp **** 				sendWdata((item & 0x01) ? 0x0000 : color);
 1808              		.loc 1 203 14 view .LVU504
 1809 0182 1940     		ands	r1, r3
 203:Core/Src/screen.cpp **** 				sendWdata((item & 0x01) ? 0x0000 : color);
 1810              		.loc 1 203 14 discriminator 1 view .LVU505
 1811 0184 4B42     		rsbs	r3, r1, #0
 1812 0186 5941     		adcs	r1, r1, r3
 1813 0188 4942     		rsbs	r1, r1, #0
 1814 018a 2940     		ands	r1, r5
 203:Core/Src/screen.cpp **** 				sendWdata((item & 0x01) ? 0x0000 : color);
 1815              		.loc 1 203 14 discriminator 4 view .LVU506
 1816 018c FFF7FEFF 		bl	_ZN6Screen9sendWdataEt
 1817              	.LVL218:
 204:Core/Src/screen.cpp **** 			}
 1818              		.loc 1 204 5 is_stmt 1 view .LVU507
 204:Core/Src/screen.cpp **** 			}
 1819              		.loc 1 204 14 is_stmt 0 view .LVU508
 1820 0190 0123     		movs	r3, #1
 1821 0192 3178     		ldrb	r1, [r6]
ARM GAS  /tmp/cc5TwoZ8.s 			page 45


 204:Core/Src/screen.cpp **** 			}
 1822              		.loc 1 204 14 discriminator 4 view .LVU509
 1823 0194 2000     		movs	r0, r4
 204:Core/Src/screen.cpp **** 			}
 1824              		.loc 1 204 14 view .LVU510
 1825 0196 1940     		ands	r1, r3
 204:Core/Src/screen.cpp **** 			}
 1826              		.loc 1 204 14 discriminator 1 view .LVU511
 1827 0198 0139     		subs	r1, r1, #1
 1828 019a 2940     		ands	r1, r5
 204:Core/Src/screen.cpp **** 			}
 1829              		.loc 1 204 14 discriminator 4 view .LVU512
 1830 019c FFF7FEFF 		bl	_ZN6Screen9sendWdataEt
 1831              	.LVL219:
 196:Core/Src/screen.cpp **** 				sendWdata(((item >> 7) & 0x01) ? 0x0000 : color);
 1832              		.loc 1 196 4 is_stmt 1 discriminator 2 view .LVU513
 1833 01a0 0136     		adds	r6, r6, #1
 1834              	.LVL220:
 196:Core/Src/screen.cpp **** 				sendWdata(((item >> 7) & 0x01) ? 0x0000 : color);
 1835              		.loc 1 196 4 is_stmt 0 discriminator 2 view .LVU514
 1836 01a2 AEE7     		b	.L31
 1837              	.L61:
 1838              		.align	2
 1839              	.L60:
 1840 01a4 58020000 		.word	_ZL5fonts+600
 1841 01a8 94020000 		.word	_ZL5fonts+660
 1842 01ac 00000000 		.word	_ZL5fonts
 1843              	.LBE27:
 1844              	.LBE28:
 1845              	.LBE30:
 1846              	.LBE33:
 1847              		.cfi_endproc
 1848              	.LFE434:
 1849              		.fnend
 1851              		.section	.text._ZN6Screen13writeRegisterEhh,"ax",%progbits
 1852              		.align	1
 1853              		.global	_ZN6Screen13writeRegisterEhh
 1854              		.syntax unified
 1855              		.code	16
 1856              		.thumb_func
 1858              	_ZN6Screen13writeRegisterEhh:
 1859              		.fnstart
 1860              	.LVL221:
 1861              	.LFB439:
 247:Core/Src/screen.cpp **** 
 248:Core/Src/screen.cpp **** void Screen::writeRegister(uint8_t address, uint8_t data) {
 1862              		.loc 1 248 59 is_stmt 1 view -0
 1863              		.cfi_startproc
 1864              		@ args = 0, pretend = 0, frame = 0
 1865              		@ frame_needed = 0, uses_anonymous_args = 0
 249:Core/Src/screen.cpp **** 	sendCommand(address);
 1866              		.loc 1 249 2 view .LVU516
 248:Core/Src/screen.cpp **** 	sendCommand(address);
 1867              		.loc 1 248 59 is_stmt 0 view .LVU517
 1868 0000 70B5     		push	{r4, r5, r6, lr}
 1869              		.save {r4, r5, r6, lr}
 1870              	.LCFI14:
ARM GAS  /tmp/cc5TwoZ8.s 			page 46


 1871              		.cfi_def_cfa_offset 16
 1872              		.cfi_offset 4, -16
 1873              		.cfi_offset 5, -12
 1874              		.cfi_offset 6, -8
 1875              		.cfi_offset 14, -4
 248:Core/Src/screen.cpp **** 	sendCommand(address);
 1876              		.loc 1 248 59 view .LVU518
 1877 0002 1500     		movs	r5, r2
 250:Core/Src/screen.cpp **** 	sendData(data);
 251:Core/Src/screen.cpp **** }
 1878              		.loc 1 251 1 view .LVU519
 1879              		@ sp needed
 248:Core/Src/screen.cpp **** 	sendCommand(address);
 1880              		.loc 1 248 59 view .LVU520
 1881 0004 0400     		movs	r4, r0
 249:Core/Src/screen.cpp **** 	sendData(data);
 1882              		.loc 1 249 13 view .LVU521
 1883 0006 FFF7FEFF 		bl	_ZN6Screen11sendCommandEh
 1884              	.LVL222:
 250:Core/Src/screen.cpp **** 	sendData(data);
 1885              		.loc 1 250 2 is_stmt 1 view .LVU522
 250:Core/Src/screen.cpp **** 	sendData(data);
 1886              		.loc 1 250 10 is_stmt 0 view .LVU523
 1887 000a 2900     		movs	r1, r5
 1888 000c 2000     		movs	r0, r4
 1889 000e FFF7FEFF 		bl	_ZN6Screen8sendDataEh
 1890              	.LVL223:
 1891              	.LVL224:
 1892              	.LVL225:
 1893              		.loc 1 251 1 view .LVU524
 1894 0012 70BD     		pop	{r4, r5, r6, pc}
 1895              		.cfi_endproc
 1896              	.LFE439:
 1897              		.fnend
 1899              		.section	.text._ZN13ScreenFactory3spiEP19__SPI_HandleTypeDef,"ax",%progbits
 1900              		.align	1
 1901              		.global	_ZN13ScreenFactory3spiEP19__SPI_HandleTypeDef
 1902              		.syntax unified
 1903              		.code	16
 1904              		.thumb_func
 1906              	_ZN13ScreenFactory3spiEP19__SPI_HandleTypeDef:
 1907              		.fnstart
 1908              	.LVL226:
 1909              	.LFB440:
 252:Core/Src/screen.cpp **** 
 253:Core/Src/screen.cpp **** ScreenFactory ScreenFactory::spi(SPI_HandleTypeDef* hspi) {
 1910              		.loc 1 253 59 is_stmt 1 view -0
 1911              		.cfi_startproc
 1912              		@ args = 0, pretend = 0, frame = 0
 1913              		@ frame_needed = 0, uses_anonymous_args = 0
 254:Core/Src/screen.cpp **** 	this -> SPI = hspi;
 1914              		.loc 1 254 2 view .LVU526
 255:Core/Src/screen.cpp **** 	return *this;
 1915              		.loc 1 255 10 is_stmt 0 view .LVU527
 1916 0000 0300     		movs	r3, r0
 253:Core/Src/screen.cpp **** 	this -> SPI = hspi;
 1917              		.loc 1 253 59 view .LVU528
ARM GAS  /tmp/cc5TwoZ8.s 			page 47


 1918 0002 30B5     		push	{r4, r5, lr}
 1919              	.LCFI15:
 1920              		.cfi_def_cfa_offset 12
 1921              		.cfi_offset 4, -12
 1922              		.cfi_offset 5, -8
 1923              		.cfi_offset 14, -4
 254:Core/Src/screen.cpp **** 	this -> SPI = hspi;
 1924              		.loc 1 254 14 view .LVU529
 1925 0004 0A60     		str	r2, [r1]
 1926              		.loc 1 255 2 is_stmt 1 view .LVU530
 1927              		.loc 1 255 10 is_stmt 0 view .LVU531
 1928 0006 34C9     		ldmia	r1!, {r2, r4, r5}
 1929 0008 34C3     		stmia	r3!, {r2, r4, r5}
 1930              	.LVL227:
 256:Core/Src/screen.cpp **** }
 1931              		.loc 1 256 1 view .LVU532
 1932              		@ sp needed
 255:Core/Src/screen.cpp **** 	return *this;
 1933              		.loc 1 255 10 view .LVU533
 1934 000a 34C9     		ldmia	r1!, {r2, r4, r5}
 1935 000c 34C3     		stmia	r3!, {r2, r4, r5}
 1936              	.LVL228:
 255:Core/Src/screen.cpp **** 	return *this;
 1937              		.loc 1 255 10 view .LVU534
 1938 000e 34C9     		ldmia	r1!, {r2, r4, r5}
 1939 0010 34C3     		stmia	r3!, {r2, r4, r5}
 1940              	.LVL229:
 1941              		.loc 1 256 1 view .LVU535
 1942 0012 30BD     		pop	{r4, r5, pc}
 1943              		.cfi_endproc
 1944              	.LFE440:
 1945              		.cantunwind
 1946              		.fnend
 1948              		.section	.text._ZN13ScreenFactory2csEP12GPIO_TypeDeft,"ax",%progbits
 1949              		.align	1
 1950              		.global	_ZN13ScreenFactory2csEP12GPIO_TypeDeft
 1951              		.syntax unified
 1952              		.code	16
 1953              		.thumb_func
 1955              	_ZN13ScreenFactory2csEP12GPIO_TypeDeft:
 1956              		.fnstart
 1957              	.LVL230:
 1958              	.LFB441:
 257:Core/Src/screen.cpp **** 
 258:Core/Src/screen.cpp **** ScreenFactory ScreenFactory::cs(GPIO_TypeDef* gpio, uint16_t pin) {
 1959              		.loc 1 258 67 is_stmt 1 view -0
 1960              		.cfi_startproc
 1961              		@ args = 0, pretend = 0, frame = 0
 1962              		@ frame_needed = 0, uses_anonymous_args = 0
 259:Core/Src/screen.cpp **** 	this -> CS = {gpio, pin};
 1963              		.loc 1 259 2 view .LVU537
 258:Core/Src/screen.cpp **** 	this -> CS = {gpio, pin};
 1964              		.loc 1 258 67 is_stmt 0 view .LVU538
 1965 0000 30B5     		push	{r4, r5, lr}
 1966              	.LCFI16:
 1967              		.cfi_def_cfa_offset 12
 1968              		.cfi_offset 4, -12
ARM GAS  /tmp/cc5TwoZ8.s 			page 48


 1969              		.cfi_offset 5, -8
 1970              		.cfi_offset 14, -4
 1971              		.loc 1 259 13 view .LVU539
 1972 0002 0B81     		strh	r3, [r1, #8]
 260:Core/Src/screen.cpp **** 	return *this;
 1973              		.loc 1 260 2 is_stmt 1 view .LVU540
 1974              		.loc 1 260 10 is_stmt 0 view .LVU541
 1975 0004 0300     		movs	r3, r0
 1976              	.LVL231:
 261:Core/Src/screen.cpp **** }
 1977              		.loc 1 261 1 view .LVU542
 1978              		@ sp needed
 259:Core/Src/screen.cpp **** 	return *this;
 1979              		.loc 1 259 13 view .LVU543
 1980 0006 4A60     		str	r2, [r1, #4]
 260:Core/Src/screen.cpp **** 	return *this;
 1981              		.loc 1 260 10 view .LVU544
 1982 0008 34C9     		ldmia	r1!, {r2, r4, r5}
 1983 000a 34C3     		stmia	r3!, {r2, r4, r5}
 1984              	.LVL232:
 260:Core/Src/screen.cpp **** 	return *this;
 1985              		.loc 1 260 10 view .LVU545
 1986 000c 34C9     		ldmia	r1!, {r2, r4, r5}
 1987 000e 34C3     		stmia	r3!, {r2, r4, r5}
 1988              	.LVL233:
 260:Core/Src/screen.cpp **** 	return *this;
 1989              		.loc 1 260 10 view .LVU546
 1990 0010 34C9     		ldmia	r1!, {r2, r4, r5}
 1991 0012 34C3     		stmia	r3!, {r2, r4, r5}
 1992              	.LVL234:
 1993              		.loc 1 261 1 view .LVU547
 1994 0014 30BD     		pop	{r4, r5, pc}
 1995              		.cfi_endproc
 1996              	.LFE441:
 1997              		.cantunwind
 1998              		.fnend
 2000              		.section	.text._ZN13ScreenFactory2dcEP12GPIO_TypeDeft,"ax",%progbits
 2001              		.align	1
 2002              		.global	_ZN13ScreenFactory2dcEP12GPIO_TypeDeft
 2003              		.syntax unified
 2004              		.code	16
 2005              		.thumb_func
 2007              	_ZN13ScreenFactory2dcEP12GPIO_TypeDeft:
 2008              		.fnstart
 2009              	.LVL235:
 2010              	.LFB442:
 262:Core/Src/screen.cpp **** 
 263:Core/Src/screen.cpp **** ScreenFactory ScreenFactory::dc(GPIO_TypeDef* gpio, uint16_t pin) {
 2011              		.loc 1 263 67 is_stmt 1 view -0
 2012              		.cfi_startproc
 2013              		@ args = 0, pretend = 0, frame = 0
 2014              		@ frame_needed = 0, uses_anonymous_args = 0
 264:Core/Src/screen.cpp **** 	this -> DC = {gpio, pin};
 2015              		.loc 1 264 2 view .LVU549
 263:Core/Src/screen.cpp **** 	this -> DC = {gpio, pin};
 2016              		.loc 1 263 67 is_stmt 0 view .LVU550
 2017 0000 30B5     		push	{r4, r5, lr}
ARM GAS  /tmp/cc5TwoZ8.s 			page 49


 2018              	.LCFI17:
 2019              		.cfi_def_cfa_offset 12
 2020              		.cfi_offset 4, -12
 2021              		.cfi_offset 5, -8
 2022              		.cfi_offset 14, -4
 2023              		.loc 1 264 13 view .LVU551
 2024 0002 0B82     		strh	r3, [r1, #16]
 265:Core/Src/screen.cpp **** 	return *this;
 2025              		.loc 1 265 2 is_stmt 1 view .LVU552
 2026              		.loc 1 265 10 is_stmt 0 view .LVU553
 2027 0004 0300     		movs	r3, r0
 2028              	.LVL236:
 266:Core/Src/screen.cpp **** }
 2029              		.loc 1 266 1 view .LVU554
 2030              		@ sp needed
 264:Core/Src/screen.cpp **** 	return *this;
 2031              		.loc 1 264 13 view .LVU555
 2032 0006 CA60     		str	r2, [r1, #12]
 265:Core/Src/screen.cpp **** 	return *this;
 2033              		.loc 1 265 10 view .LVU556
 2034 0008 34C9     		ldmia	r1!, {r2, r4, r5}
 2035 000a 34C3     		stmia	r3!, {r2, r4, r5}
 2036              	.LVL237:
 265:Core/Src/screen.cpp **** 	return *this;
 2037              		.loc 1 265 10 view .LVU557
 2038 000c 34C9     		ldmia	r1!, {r2, r4, r5}
 2039 000e 34C3     		stmia	r3!, {r2, r4, r5}
 2040              	.LVL238:
 265:Core/Src/screen.cpp **** 	return *this;
 2041              		.loc 1 265 10 view .LVU558
 2042 0010 34C9     		ldmia	r1!, {r2, r4, r5}
 2043 0012 34C3     		stmia	r3!, {r2, r4, r5}
 2044              	.LVL239:
 2045              		.loc 1 266 1 view .LVU559
 2046 0014 30BD     		pop	{r4, r5, pc}
 2047              		.cfi_endproc
 2048              	.LFE442:
 2049              		.cantunwind
 2050              		.fnend
 2052              		.section	.text._ZN13ScreenFactory3resEP12GPIO_TypeDeft,"ax",%progbits
 2053              		.align	1
 2054              		.global	_ZN13ScreenFactory3resEP12GPIO_TypeDeft
 2055              		.syntax unified
 2056              		.code	16
 2057              		.thumb_func
 2059              	_ZN13ScreenFactory3resEP12GPIO_TypeDeft:
 2060              		.fnstart
 2061              	.LVL240:
 2062              	.LFB443:
 267:Core/Src/screen.cpp **** 
 268:Core/Src/screen.cpp **** ScreenFactory ScreenFactory::res(GPIO_TypeDef* gpio, uint16_t pin) {
 2063              		.loc 1 268 68 is_stmt 1 view -0
 2064              		.cfi_startproc
 2065              		@ args = 0, pretend = 0, frame = 0
 2066              		@ frame_needed = 0, uses_anonymous_args = 0
 269:Core/Src/screen.cpp **** 	this -> RES = {gpio, pin};
 2067              		.loc 1 269 2 view .LVU561
ARM GAS  /tmp/cc5TwoZ8.s 			page 50


 268:Core/Src/screen.cpp **** 	this -> RES = {gpio, pin};
 2068              		.loc 1 268 68 is_stmt 0 view .LVU562
 2069 0000 30B5     		push	{r4, r5, lr}
 2070              	.LCFI18:
 2071              		.cfi_def_cfa_offset 12
 2072              		.cfi_offset 4, -12
 2073              		.cfi_offset 5, -8
 2074              		.cfi_offset 14, -4
 2075              		.loc 1 269 14 view .LVU563
 2076 0002 0B83     		strh	r3, [r1, #24]
 270:Core/Src/screen.cpp **** 	return *this;
 2077              		.loc 1 270 2 is_stmt 1 view .LVU564
 2078              		.loc 1 270 10 is_stmt 0 view .LVU565
 2079 0004 0300     		movs	r3, r0
 2080              	.LVL241:
 271:Core/Src/screen.cpp **** }
 2081              		.loc 1 271 1 view .LVU566
 2082              		@ sp needed
 269:Core/Src/screen.cpp **** 	return *this;
 2083              		.loc 1 269 14 view .LVU567
 2084 0006 4A61     		str	r2, [r1, #20]
 270:Core/Src/screen.cpp **** 	return *this;
 2085              		.loc 1 270 10 view .LVU568
 2086 0008 34C9     		ldmia	r1!, {r2, r4, r5}
 2087 000a 34C3     		stmia	r3!, {r2, r4, r5}
 2088              	.LVL242:
 270:Core/Src/screen.cpp **** 	return *this;
 2089              		.loc 1 270 10 view .LVU569
 2090 000c 34C9     		ldmia	r1!, {r2, r4, r5}
 2091 000e 34C3     		stmia	r3!, {r2, r4, r5}
 2092              	.LVL243:
 270:Core/Src/screen.cpp **** 	return *this;
 2093              		.loc 1 270 10 view .LVU570
 2094 0010 34C9     		ldmia	r1!, {r2, r4, r5}
 2095 0012 34C3     		stmia	r3!, {r2, r4, r5}
 2096              	.LVL244:
 2097              		.loc 1 271 1 view .LVU571
 2098 0014 30BD     		pop	{r4, r5, pc}
 2099              		.cfi_endproc
 2100              	.LFE443:
 2101              		.cantunwind
 2102              		.fnend
 2104              		.section	.text._ZN13ScreenFactory4bkltEP12GPIO_TypeDeft,"ax",%progbits
 2105              		.align	1
 2106              		.global	_ZN13ScreenFactory4bkltEP12GPIO_TypeDeft
 2107              		.syntax unified
 2108              		.code	16
 2109              		.thumb_func
 2111              	_ZN13ScreenFactory4bkltEP12GPIO_TypeDeft:
 2112              		.fnstart
 2113              	.LVL245:
 2114              	.LFB444:
 272:Core/Src/screen.cpp **** 
 273:Core/Src/screen.cpp **** ScreenFactory ScreenFactory::bklt(GPIO_TypeDef* gpio, uint16_t pin) {
 2115              		.loc 1 273 69 is_stmt 1 view -0
 2116              		.cfi_startproc
 2117              		@ args = 0, pretend = 0, frame = 0
ARM GAS  /tmp/cc5TwoZ8.s 			page 51


 2118              		@ frame_needed = 0, uses_anonymous_args = 0
 274:Core/Src/screen.cpp **** 	this -> BKLT = {gpio, pin};
 2119              		.loc 1 274 2 view .LVU573
 273:Core/Src/screen.cpp **** 	this -> BKLT = {gpio, pin};
 2120              		.loc 1 273 69 is_stmt 0 view .LVU574
 2121 0000 30B5     		push	{r4, r5, lr}
 2122              	.LCFI19:
 2123              		.cfi_def_cfa_offset 12
 2124              		.cfi_offset 4, -12
 2125              		.cfi_offset 5, -8
 2126              		.cfi_offset 14, -4
 2127              		.loc 1 274 15 view .LVU575
 2128 0002 0B84     		strh	r3, [r1, #32]
 275:Core/Src/screen.cpp **** 	return *this;
 2129              		.loc 1 275 2 is_stmt 1 view .LVU576
 2130              		.loc 1 275 10 is_stmt 0 view .LVU577
 2131 0004 0300     		movs	r3, r0
 2132              	.LVL246:
 276:Core/Src/screen.cpp **** }
 2133              		.loc 1 276 1 view .LVU578
 2134              		@ sp needed
 274:Core/Src/screen.cpp **** 	return *this;
 2135              		.loc 1 274 15 view .LVU579
 2136 0006 CA61     		str	r2, [r1, #28]
 275:Core/Src/screen.cpp **** 	return *this;
 2137              		.loc 1 275 10 view .LVU580
 2138 0008 34C9     		ldmia	r1!, {r2, r4, r5}
 2139 000a 34C3     		stmia	r3!, {r2, r4, r5}
 2140              	.LVL247:
 275:Core/Src/screen.cpp **** 	return *this;
 2141              		.loc 1 275 10 view .LVU581
 2142 000c 34C9     		ldmia	r1!, {r2, r4, r5}
 2143 000e 34C3     		stmia	r3!, {r2, r4, r5}
 2144              	.LVL248:
 275:Core/Src/screen.cpp **** 	return *this;
 2145              		.loc 1 275 10 view .LVU582
 2146 0010 34C9     		ldmia	r1!, {r2, r4, r5}
 2147 0012 34C3     		stmia	r3!, {r2, r4, r5}
 2148              	.LVL249:
 2149              		.loc 1 276 1 view .LVU583
 2150 0014 30BD     		pop	{r4, r5, pc}
 2151              		.cfi_endproc
 2152              	.LFE444:
 2153              		.cantunwind
 2154              		.fnend
 2156              		.section	.text._ZN13ScreenFactory5buildEv,"ax",%progbits
 2157              		.align	1
 2158              		.global	_ZN13ScreenFactory5buildEv
 2159              		.syntax unified
 2160              		.code	16
 2161              		.thumb_func
 2163              	_ZN13ScreenFactory5buildEv:
 2164              		.fnstart
 2165              	.LVL250:
 2166              	.LFB445:
 277:Core/Src/screen.cpp **** 
 278:Core/Src/screen.cpp **** Screen ScreenFactory::build() {
ARM GAS  /tmp/cc5TwoZ8.s 			page 52


 2167              		.loc 1 278 31 is_stmt 1 view -0
 2168              		.cfi_startproc
 2169              		@ args = 0, pretend = 0, frame = 40
 2170              		@ frame_needed = 0, uses_anonymous_args = 0
 279:Core/Src/screen.cpp **** 	return {this -> SPI, IO_Pin(this -> CS), IO_Pin(this -> RES), IO_Pin(this -> DC), IO_Pin(this -> B
 2171              		.loc 1 279 2 view .LVU585
 278:Core/Src/screen.cpp **** 	return {this -> SPI, IO_Pin(this -> CS), IO_Pin(this -> RES), IO_Pin(this -> DC), IO_Pin(this -> B
 2172              		.loc 1 278 31 is_stmt 0 view .LVU586
 2173 0000 F0B5     		push	{r4, r5, r6, r7, lr}
 2174              		.save {r4, r5, r6, r7, lr}
 2175              	.LCFI20:
 2176              		.cfi_def_cfa_offset 20
 2177              		.cfi_offset 4, -20
 2178              		.cfi_offset 5, -16
 2179              		.cfi_offset 6, -12
 2180              		.cfi_offset 7, -8
 2181              		.cfi_offset 14, -4
 2182              		.loc 1 279 104 view .LVU587
 2183 0002 0B68     		ldr	r3, [r1]
 278:Core/Src/screen.cpp **** 	return {this -> SPI, IO_Pin(this -> CS), IO_Pin(this -> RES), IO_Pin(this -> DC), IO_Pin(this -> B
 2184              		.loc 1 278 31 view .LVU588
 2185              		.pad #68
 2186 0004 91B0     		sub	sp, sp, #68
 2187              	.LCFI21:
 2188              		.cfi_def_cfa_offset 88
 2189              		.loc 1 279 104 view .LVU589
 2190 0006 9C46     		mov	ip, r3
 2191              	.LVL251:
 2192              		.loc 1 279 104 view .LVU590
 2193 0008 4B68     		ldr	r3, [r1, #4]
 2194              	.LBB34:
 2195              	.LBB35:
 2196              	.LBB36:
   4:Core/Src/screen.cpp **** 
 2197              		.loc 1 4 28 view .LVU591
 2198 000a 08AD     		add	r5, sp, #32
 2199              	.LVL252:
   4:Core/Src/screen.cpp **** 
 2200              		.loc 1 4 28 view .LVU592
 2201 000c 0793     		str	r3, [sp, #28]
 2202              	.LVL253:
   4:Core/Src/screen.cpp **** 
 2203              		.loc 1 4 28 view .LVU593
 2204 000e 0B89     		ldrh	r3, [r1, #8]
 2205              	.LVL254:
   4:Core/Src/screen.cpp **** 
 2206              		.loc 1 4 28 view .LVU594
 2207              	.LBE36:
 2208              	.LBE35:
 2209              	.LBI34:
   4:Core/Src/screen.cpp **** 
 2210              		.loc 1 4 1 is_stmt 1 view .LVU595
 2211              	.LBE34:
 278:Core/Src/screen.cpp **** 	return {this -> SPI, IO_Pin(this -> CS), IO_Pin(this -> RES), IO_Pin(this -> DC), IO_Pin(this -> B
 2212              		.loc 1 278 31 is_stmt 0 view .LVU596
 2213 0010 0400     		movs	r4, r0
 2214              	.LBB39:
ARM GAS  /tmp/cc5TwoZ8.s 			page 53


 2215              	.LBB38:
 2216              	.LBB37:
   4:Core/Src/screen.cpp **** 
 2217              		.loc 1 4 28 view .LVU597
 2218 0012 AB80     		strh	r3, [r5, #4]
 2219              	.LVL255:
   4:Core/Src/screen.cpp **** 
 2220              		.loc 1 4 28 view .LVU598
 2221 0014 0A8B     		ldrh	r2, [r1, #24]
 2222 0016 4869     		ldr	r0, [r1, #20]
 2223              	.LVL256:
   4:Core/Src/screen.cpp **** 
 2224              		.loc 1 4 28 view .LVU599
 2225              	.LBE37:
 2226              	.LBE38:
 2227              	.LBE39:
 2228              	.LBB40:
 2229              	.LBI40:
   4:Core/Src/screen.cpp **** 
 2230              		.loc 1 4 1 is_stmt 1 view .LVU600
 2231              	.LBB41:
 2232              	.LBB42:
   4:Core/Src/screen.cpp **** 
 2233              		.loc 1 4 28 is_stmt 0 view .LVU601
 2234 0018 0AAB     		add	r3, sp, #40
 2235              	.LVL257:
   4:Core/Src/screen.cpp **** 
 2236              		.loc 1 4 28 view .LVU602
 2237 001a 0A90     		str	r0, [sp, #40]
 2238 001c 9A80     		strh	r2, [r3, #4]
 2239              	.LVL258:
   4:Core/Src/screen.cpp **** 
 2240              		.loc 1 4 28 view .LVU603
 2241 001e 088A     		ldrh	r0, [r1, #16]
 2242 0020 CE68     		ldr	r6, [r1, #12]
 2243              	.LVL259:
   4:Core/Src/screen.cpp **** 
 2244              		.loc 1 4 28 view .LVU604
 2245              	.LBE42:
 2246              	.LBE41:
 2247              	.LBE40:
 2248              	.LBB43:
 2249              	.LBI43:
   4:Core/Src/screen.cpp **** 
 2250              		.loc 1 4 1 is_stmt 1 view .LVU605
 2251              	.LBB44:
 2252              	.LBB45:
   4:Core/Src/screen.cpp **** 
 2253              		.loc 1 4 28 is_stmt 0 view .LVU606
 2254 0022 0CAA     		add	r2, sp, #48
 2255              	.LVL260:
   4:Core/Src/screen.cpp **** 
 2256              		.loc 1 4 28 view .LVU607
 2257 0024 0C96     		str	r6, [sp, #48]
 2258 0026 9080     		strh	r0, [r2, #4]
 2259              	.LVL261:
   4:Core/Src/screen.cpp **** 
ARM GAS  /tmp/cc5TwoZ8.s 			page 54


 2260              		.loc 1 4 28 view .LVU608
 2261 0028 0E8C     		ldrh	r6, [r1, #32]
 2262 002a C869     		ldr	r0, [r1, #28]
 2263              	.LVL262:
   4:Core/Src/screen.cpp **** 
 2264              		.loc 1 4 28 view .LVU609
 2265              	.LBE45:
 2266              	.LBE44:
 2267              	.LBE43:
 2268              	.LBB46:
 2269              	.LBI46:
   4:Core/Src/screen.cpp **** 
 2270              		.loc 1 4 1 is_stmt 1 view .LVU610
 2271              	.LBB47:
 2272              	.LBB48:
   4:Core/Src/screen.cpp **** 
 2273              		.loc 1 4 28 is_stmt 0 view .LVU611
 2274 002c 0EA9     		add	r1, sp, #56
 2275              	.LVL263:
   4:Core/Src/screen.cpp **** 
 2276              		.loc 1 4 28 view .LVU612
 2277 002e 0E90     		str	r0, [sp, #56]
 2278 0030 8E80     		strh	r6, [r1, #4]
 2279              	.LVL264:
   4:Core/Src/screen.cpp **** 
 2280              		.loc 1 4 28 view .LVU613
 2281              	.LBE48:
 2282              	.LBE47:
 2283              	.LBE46:
 2284              		.loc 1 279 104 discriminator 4 view .LVU614
 2285 0032 04A8     		add	r0, sp, #16
 2286 0034 C0C9     		ldmia	r1!, {r6, r7}
 2287 0036 C0C0     		stmia	r0!, {r6, r7}
 2288 0038 02A9     		add	r1, sp, #8
 2289 003a C0CA     		ldmia	r2!, {r6, r7}
 2290 003c C0C1     		stmia	r1!, {r6, r7}
 2291 003e 6A46     		mov	r2, sp
 2292 0040 03CB     		ldmia	r3!, {r0, r1}
 2293 0042 03C2     		stmia	r2!, {r0, r1}
 2294 0044 6146     		mov	r1, ip
 2295 0046 2000     		movs	r0, r4
 2296 0048 079A     		ldr	r2, [sp, #28]
 2297 004a 099B     		ldr	r3, [sp, #36]
 2298 004c FFF7FEFF 		bl	_ZN6ScreenC1EP19__SPI_HandleTypeDef6IO_PinS2_S2_S2_
 2299              	.LVL265:
 280:Core/Src/screen.cpp **** }
 2300              		.loc 1 280 1 view .LVU615
 2301 0050 2000     		movs	r0, r4
 2302 0052 11B0     		add	sp, sp, #68
 2303              		@ sp needed
 2304              	.LVL266:
 2305              		.loc 1 280 1 view .LVU616
 2306 0054 F0BD     		pop	{r4, r5, r6, r7, pc}
 2307              		.cfi_endproc
 2308              	.LFE445:
 2309              		.fnend
 2311              		.section	.rodata._ZL5fonts,"a"
ARM GAS  /tmp/cc5TwoZ8.s 			page 55


 2314              	_ZL5fonts:
 2315 0000 FFFFFFFF 		.ascii	"\377\377\377\377\377\377\377\377\377\377\377\377\377"
 2315      FFFFFFFF 
 2315      FFFFFFFF 
 2315      FF
 2316 000d FFFFFFFF 		.ascii	"\377\377\377\377\377\374\037\360\017\340\007\303\303"
 2316      FFFC1FF0 
 2316      0FE007C3 
 2316      C3
 2317 001a C7E187F1 		.ascii	"\307\341\207\361\217\361\217\361\217\361\217\361\207"
 2317      8FF18FF1 
 2317      8FF18FF1 
 2317      87
 2318 0027 F1C7E3C3 		.ascii	"\361\307\343\303\303\340\007\360\017\370\037\377\377"
 2318      C3E007F0 
 2318      0FF81FFF 
 2318      FF
 2319 0034 FFFFFFFF 		.ascii	"\377\377\377\377\377\377\377\377"
 2319      FFFFFFFF 
 2320 003c FFFFFFFF 		.ascii	"\377\377\377\377\377\377\377\377\377\377\377\377\377"
 2320      FFFFFFFF 
 2320      FFFFFFFF 
 2320      FF
 2321 0049 FFFFFFFF 		.ascii	"\377\377\377\377\377\376\037\374\037\370\017\360\017"
 2321      FFFE1FFC 
 2321      1FF80FF0 
 2321      0F
 2322 0056 F98FFF8F 		.ascii	"\371\217\377\217\377\217\377\217\377\217\377\217\377"
 2322      FF8FFF8F 
 2322      FF8FFF8F 
 2322      FF
 2323 0063 8FFF8FFF 		.ascii	"\217\377\217\377\217\377\217\377\217\377\237\377\377"
 2323      8FFF8FFF 
 2323      8FFF9FFF 
 2323      FF
 2324 0070 FFFFFFFF 		.ascii	"\377\377\377\377\377\377\377\377"
 2324      FFFFFFFF 
 2325 0078 FFFFFFFF 		.ascii	"\377\377\377\377\377\377\377\377\377\377\377\377\377"
 2325      FFFFFFFF 
 2325      FFFFFFFF 
 2325      FF
 2326 0085 FFFFFFFF 		.ascii	"\377\377\377\377\377\374\037\360\017\340\007\343\303"
 2326      FFFC1FF0 
 2326      0FE007E3 
 2326      C3
 2327 0092 C7E3C7E3 		.ascii	"\307\343\307\343\307\343\303\343\343\307\377\007\376"
 2327      C7E3C3E3 
 2327      E3C7FF07 
 2327      FE
 2328 009f 0FFC3FF0 		.ascii	"\017\374?\360\177\340\007\340\003\340\003\377\377\377"
 2328      7FE007E0 
 2328      03E003FF 
 2328      FFFF
 2329 00ad FFFFFFFF 		.ascii	"\377\377\377\377\377\377\377"
 2329      FFFFFF
 2330 00b4 FFFFFFFF 		.ascii	"\377\377\377\377\377\377\377\377\377\377\377\377\377"
 2330      FFFFFFFF 
ARM GAS  /tmp/cc5TwoZ8.s 			page 56


 2330      FFFFFFFF 
 2330      FF
 2331 00c1 FFFFFFFF 		.ascii	"\377\377\377\377\377\374\037\360\017\360\007\343\307"
 2331      FFFC1FF0 
 2331      0FF007E3 
 2331      C7
 2332 00ce FFC7FFC7 		.ascii	"\377\307\377\307\376\007\376\017\376\007\377\303\377"
 2332      FE07FE0F 
 2332      FE07FFC3 
 2332      FF
 2333 00db E3FFE3E3 		.ascii	"\343\377\343\343\343\340\007\360\007\370\037\377\377"
 2333      E3E007F0 
 2333      07F81FFF 
 2333      FF
 2334 00e8 FFFFFFFF 		.ascii	"\377\377\377\377\377\377\377\377"
 2334      FFFFFFFF 
 2335 00f0 FFFFFFFF 		.ascii	"\377\377\377\377\377\377\377\377\377\377\377\377\377"
 2335      FFFFFFFF 
 2335      FFFFFFFF 
 2335      FF
 2336 00fd FFFFFFFF 		.ascii	"\377\377\377\377\377\377?\376?\376?\374\177\370\177"
 2336      FFFF3FFE 
 2336      3FFE3FFC 
 2336      7FF87F
 2337 010c F8FFF1FF 		.ascii	"\370\377\361\377\341\037\343\037\300\003\300\003\300"
 2337      E11FE31F 
 2337      C003C003 
 2337      C0
 2338 0119 03FF1FFF 		.ascii	"\003\377\037\377\037\377\037\377\037\377\377\377\377"
 2338      1FFF1FFF 
 2338      1FFFFFFF 
 2338      FF
 2339 0126 FFFFFFFF 		.ascii	"\377\377\377\377\377\377"
 2339      FFFF
 2340 012c FFFFFFFF 		.ascii	"\377\377\377\377\377\377\377\377\377\377\377\377\377"
 2340      FFFFFFFF 
 2340      FFFFFFFF 
 2340      FF
 2341 0139 FFFFFFFF 		.ascii	"\377\377\377\377\377\370\007\360\007\360\017\361\377"
 2341      FFF807F0 
 2341      07F00FF1 
 2341      FF
 2342 0146 F3FFF21F 		.ascii	"\363\377\362\037\360\007\340\003\363\343\377\343\377"
 2342      F007E003 
 2342      F3E3FFE3 
 2342      FF
 2343 0153 E3FFE3E3 		.ascii	"\343\377\343\343\343\340\007\360\007\374\037\377\377"
 2343      E3E007F0 
 2343      07FC1FFF 
 2343      FF
 2344 0160 FFFFFFFF 		.ascii	"\377\377\377\377\377\377\377\377"
 2344      FFFFFFFF 
 2345 0168 FFFFFFFF 		.ascii	"\377\377\377\377\377\377\377\377\377\377\377\377\377"
 2345      FFFFFFFF 
 2345      FFFFFFFF 
 2345      FF
 2346 0175 FFFFFFFF 		.ascii	"\377\377\377\377\377\377\037\374\017\370?\360\377\341"
ARM GAS  /tmp/cc5TwoZ8.s 			page 57


 2346      FFFF1FFC 
 2346      0FF83FF0 
 2346      FFE1
 2347 0183 FFE3DFE6 		.ascii	"\377\343\337\346\007\306\003\306\361\307\361\307\361"
 2347      07C603C6 
 2347      F1C7F1C7 
 2347      F1
 2348 0190 E3F1E1E1 		.ascii	"\343\361\341\341\360\003\370\007\374\017\377\377\377"
 2348      F003F807 
 2348      FC0FFFFF 
 2348      FF
 2349 019d FFFFFFFF 		.ascii	"\377\377\377\377\377\377\377"
 2349      FFFFFF
 2350 01a4 FFFFFFFF 		.ascii	"\377\377\377\377\377\377\377\377\377\377\377\377\377"
 2350      FFFFFFFF 
 2350      FFFFFFFF 
 2350      FF
 2351 01b1 FFFFFFFF 		.ascii	"\377\377\377\377\377\340\007\300\007\340\007\377\307"
 2351      FFE007C0 
 2351      07E007FF 
 2351      C7
 2352 01be FF8FFF8F 		.ascii	"\377\217\377\217\377\037\377\037\376?\376?\374\177\374"
 2352      FF1FFF1F 
 2352      FE3FFE3F 
 2352      FC7FFC
 2353 01cd 7FF8FFF8 		.ascii	"\177\370\377\370\377\361\377\361\377\377\377\377\377"
 2353      FFF1FFF1 
 2353      FFFFFFFF 
 2353      FF
 2354 01da FFFFFFFF 		.ascii	"\377\377\377\377\377\377"
 2354      FFFF
 2355 01e0 FFFFFFFF 		.ascii	"\377\377\377\377\377\377\377\377\377\377\377\377\377"
 2355      FFFFFFFF 
 2355      FFFFFFFF 
 2355      FF
 2356 01ed FFFFFFFF 		.ascii	"\377\377\377\377\377\370\037\360\017\340\007\343\307"
 2356      FFF81FF0 
 2356      0FE007E3 
 2356      C7
 2357 01fa C7E3E3E7 		.ascii	"\307\343\343\347\340\207\360\017\340\007\303\303\307"
 2357      E087F00F 
 2357      E007C3C3 
 2357      C7
 2358 0207 E3C7E3C7 		.ascii	"\343\307\343\307\343\340\003\340\007\370\037\377\377"
 2358      E3E003E0 
 2358      07F81FFF 
 2358      FF
 2359 0214 FFFFFFFF 		.ascii	"\377\377\377\377\377\377\377\377"
 2359      FFFFFFFF 
 2360 021c FFFFFFFF 		.ascii	"\377\377\377\377\377\377\377\377\377\377\377\377\377"
 2360      FFFFFFFF 
 2360      FFFFFFFF 
 2360      FF
 2361 0229 FFFFFFFF 		.ascii	"\377\377\377\377\377\370\037\360\007\340\003\303\343"
 2361      FFF81FF0 
 2361      07E003C3 
 2361      E3
ARM GAS  /tmp/cc5TwoZ8.s 			page 58


 2362 0236 C7E1C7F1 		.ascii	"\307\341\307\361\307\361\303\261\340\021\3601\374\343"
 2362      C7F1C3B1 
 2362      E011F031 
 2362      FCE3
 2363 0244 FFC3FF87 		.ascii	"\377\303\377\207\376\017\374\037\374\177\377\377\377"
 2363      FE0FFC1F 
 2363      FC7FFFFF 
 2363      FF
 2364 0251 FFFFFFFF 		.ascii	"\377\377\377\377\377\377\377"
 2364      FFFFFF
 2365 0258 FFFFFFFF 		.ascii	"\377\377\377\377\377\377\377\377\377\377\377\377\377"
 2365      FFFFFFFF 
 2365      FFFFFFFF 
 2365      FF
 2366 0265 FFFFFFFF 		.ascii	"\377\377\377\377\377\377\377\377\377\377\377\377\377"
 2366      FFFFFFFF 
 2366      FFFFFFFF 
 2366      FF
 2367 0272 FFFFFFFF 		.ascii	"\377\377\377\377\377\377\377\377\377\377\377\377\377"
 2367      FFFFFFFF 
 2367      FFFFFFFF 
 2367      FF
 2368 027f FFFFFFFF 		.ascii	"\377\377\377\377\377\374?\374?\376\177\377\377\377\377"
 2368      FFFC3FFC 
 2368      3FFE7FFF 
 2368      FFFFFF
 2369 028e FFFFFFFF 		.ascii	"\377\377\377\377\377\377"
 2369      FFFF
 2370              		.text
 2371              	.Letext0:
 2372              		.file 2 "/usr/arm-none-eabi/include/machine/_default_types.h"
 2373              		.file 3 "/usr/arm-none-eabi/include/sys/_stdint.h"
 2374              		.file 4 "Drivers/CMSIS/Device/ST/STM32G0xx/Include/stm32g030xx.h"
 2375              		.file 5 "Drivers/STM32G0xx_HAL_Driver/Inc/stm32g0xx_hal_def.h"
 2376              		.file 6 "Drivers/STM32G0xx_HAL_Driver/Inc/stm32g0xx_hal_gpio.h"
 2377              		.file 7 "Drivers/STM32G0xx_HAL_Driver/Inc/stm32g0xx_hal_dma.h"
 2378              		.file 8 "Drivers/STM32G0xx_HAL_Driver/Inc/stm32g0xx_hal_spi.h"
 2379              		.file 9 "Drivers/STM32G0xx_HAL_Driver/Inc/stm32g0xx_hal.h"
 2380              		.file 10 "Core/Inc/screen.h"
 2381              		.file 11 "Drivers/STM32G0xx_HAL_Driver/Inc/stm32g0xx_ll_dma.h"
 2382              		.file 12 "Core/Inc/numfonts.h"
ARM GAS  /tmp/cc5TwoZ8.s 			page 59

