ARM GAS  /tmp/ccSMJO30.s 			page 1


   1              		.cpu cortex-m0plus
   2              		.arch armv6s-m
   3              		.fpu softvfp
   4              		.eabi_attribute 20, 1
   5              		.eabi_attribute 21, 1
   6              		.eabi_attribute 23, 3
   7              		.eabi_attribute 24, 1
   8              		.eabi_attribute 25, 1
   9              		.eabi_attribute 26, 1
  10              		.eabi_attribute 30, 4
  11              		.eabi_attribute 34, 0
  12              		.eabi_attribute 18, 4
  13              		.file	"spi.c"
  14              		.text
  15              	.Ltext0:
  16              		.cfi_sections	.debug_frame
  17              		.file 1 "Core/Src/spi.c"
  18              		.section	.text.MX_SPI1_Init,"ax",%progbits
  19              		.align	1
  20              		.global	MX_SPI1_Init
  21              		.syntax unified
  22              		.code	16
  23              		.thumb_func
  25              	MX_SPI1_Init:
  26              	.LFB420:
   1:Core/Src/spi.c **** /* USER CODE BEGIN Header */
   2:Core/Src/spi.c **** /**
   3:Core/Src/spi.c ****   ******************************************************************************
   4:Core/Src/spi.c ****   * @file    spi.c
   5:Core/Src/spi.c ****   * @brief   This file provides code for the configuration
   6:Core/Src/spi.c ****   *          of the SPI instances.
   7:Core/Src/spi.c ****   ******************************************************************************
   8:Core/Src/spi.c ****   * @attention
   9:Core/Src/spi.c ****   *
  10:Core/Src/spi.c ****   * Copyright (c) 2023 STMicroelectronics.
  11:Core/Src/spi.c ****   * All rights reserved.
  12:Core/Src/spi.c ****   *
  13:Core/Src/spi.c ****   * This software is licensed under terms that can be found in the LICENSE file
  14:Core/Src/spi.c ****   * in the root directory of this software component.
  15:Core/Src/spi.c ****   * If no LICENSE file comes with this software, it is provided AS-IS.
  16:Core/Src/spi.c ****   *
  17:Core/Src/spi.c ****   ******************************************************************************
  18:Core/Src/spi.c ****   */
  19:Core/Src/spi.c **** /* USER CODE END Header */
  20:Core/Src/spi.c **** /* Includes ------------------------------------------------------------------*/
  21:Core/Src/spi.c **** #include "spi.h"
  22:Core/Src/spi.c **** 
  23:Core/Src/spi.c **** /* USER CODE BEGIN 0 */
  24:Core/Src/spi.c **** 
  25:Core/Src/spi.c **** /* USER CODE END 0 */
  26:Core/Src/spi.c **** 
  27:Core/Src/spi.c **** SPI_HandleTypeDef hspi1;
  28:Core/Src/spi.c **** 
  29:Core/Src/spi.c **** /* SPI1 init function */
  30:Core/Src/spi.c **** void MX_SPI1_Init(void)
  31:Core/Src/spi.c **** {
  27              		.loc 1 31 1 view -0
ARM GAS  /tmp/ccSMJO30.s 			page 2


  28              		.cfi_startproc
  29              		@ args = 0, pretend = 0, frame = 0
  30              		@ frame_needed = 0, uses_anonymous_args = 0
  32:Core/Src/spi.c **** 
  33:Core/Src/spi.c ****   /* USER CODE BEGIN SPI1_Init 0 */
  34:Core/Src/spi.c **** 
  35:Core/Src/spi.c ****   /* USER CODE END SPI1_Init 0 */
  36:Core/Src/spi.c **** 
  37:Core/Src/spi.c ****   /* USER CODE BEGIN SPI1_Init 1 */
  38:Core/Src/spi.c **** 
  39:Core/Src/spi.c ****   /* USER CODE END SPI1_Init 1 */
  40:Core/Src/spi.c ****   hspi1.Instance = SPI1;
  31              		.loc 1 40 3 view .LVU1
  41:Core/Src/spi.c ****   hspi1.Init.Mode = SPI_MODE_MASTER;
  42:Core/Src/spi.c ****   hspi1.Init.Direction = SPI_DIRECTION_2LINES;
  43:Core/Src/spi.c ****   hspi1.Init.DataSize = SPI_DATASIZE_8BIT;
  32              		.loc 1 43 23 is_stmt 0 view .LVU2
  33 0000 E022     		movs	r2, #224
  40:Core/Src/spi.c ****   hspi1.Init.Mode = SPI_MODE_MASTER;
  34              		.loc 1 40 18 view .LVU3
  35 0002 1148     		ldr	r0, .L6
  36 0004 114B     		ldr	r3, .L6+4
  31:Core/Src/spi.c **** 
  37              		.loc 1 31 1 view .LVU4
  38 0006 10B5     		push	{r4, lr}
  39              	.LCFI0:
  40              		.cfi_def_cfa_offset 8
  41              		.cfi_offset 4, -8
  42              		.cfi_offset 14, -4
  40:Core/Src/spi.c ****   hspi1.Init.Mode = SPI_MODE_MASTER;
  43              		.loc 1 40 18 view .LVU5
  44 0008 0360     		str	r3, [r0]
  41:Core/Src/spi.c ****   hspi1.Init.Mode = SPI_MODE_MASTER;
  45              		.loc 1 41 3 is_stmt 1 view .LVU6
  41:Core/Src/spi.c ****   hspi1.Init.Mode = SPI_MODE_MASTER;
  46              		.loc 1 41 19 is_stmt 0 view .LVU7
  47 000a 8223     		movs	r3, #130
  48              		.loc 1 43 23 view .LVU8
  49 000c D200     		lsls	r2, r2, #3
  50 000e C260     		str	r2, [r0, #12]
  44:Core/Src/spi.c ****   hspi1.Init.CLKPolarity = SPI_POLARITY_HIGH;
  51              		.loc 1 44 26 view .LVU9
  52 0010 0222     		movs	r2, #2
  41:Core/Src/spi.c ****   hspi1.Init.Direction = SPI_DIRECTION_2LINES;
  53              		.loc 1 41 19 view .LVU10
  54 0012 5B00     		lsls	r3, r3, #1
  55 0014 4360     		str	r3, [r0, #4]
  42:Core/Src/spi.c ****   hspi1.Init.DataSize = SPI_DATASIZE_8BIT;
  56              		.loc 1 42 3 is_stmt 1 view .LVU11
  42:Core/Src/spi.c ****   hspi1.Init.DataSize = SPI_DATASIZE_8BIT;
  57              		.loc 1 42 24 is_stmt 0 view .LVU12
  58 0016 0023     		movs	r3, #0
  59              		.loc 1 44 26 view .LVU13
  60 0018 0261     		str	r2, [r0, #16]
  45:Core/Src/spi.c ****   hspi1.Init.CLKPhase = SPI_PHASE_1EDGE;
  46:Core/Src/spi.c ****   hspi1.Init.NSS = SPI_NSS_SOFT;
  61              		.loc 1 46 18 view .LVU14
ARM GAS  /tmp/ccSMJO30.s 			page 3


  62 001a FF32     		adds	r2, r2, #255
  63 001c FF32     		adds	r2, r2, #255
  64 001e 8261     		str	r2, [r0, #24]
  47:Core/Src/spi.c ****   hspi1.Init.BaudRatePrescaler = SPI_BAUDRATEPRESCALER_8;
  65              		.loc 1 47 32 view .LVU15
  66 0020 F13A     		subs	r2, r2, #241
  67 0022 FF3A     		subs	r2, r2, #255
  42:Core/Src/spi.c ****   hspi1.Init.DataSize = SPI_DATASIZE_8BIT;
  68              		.loc 1 42 24 view .LVU16
  69 0024 8360     		str	r3, [r0, #8]
  43:Core/Src/spi.c ****   hspi1.Init.CLKPolarity = SPI_POLARITY_HIGH;
  70              		.loc 1 43 3 is_stmt 1 view .LVU17
  44:Core/Src/spi.c ****   hspi1.Init.CLKPhase = SPI_PHASE_1EDGE;
  71              		.loc 1 44 3 view .LVU18
  45:Core/Src/spi.c ****   hspi1.Init.NSS = SPI_NSS_SOFT;
  72              		.loc 1 45 3 view .LVU19
  45:Core/Src/spi.c ****   hspi1.Init.NSS = SPI_NSS_SOFT;
  73              		.loc 1 45 23 is_stmt 0 view .LVU20
  74 0026 4361     		str	r3, [r0, #20]
  46:Core/Src/spi.c ****   hspi1.Init.BaudRatePrescaler = SPI_BAUDRATEPRESCALER_8;
  75              		.loc 1 46 3 is_stmt 1 view .LVU21
  76              		.loc 1 47 3 view .LVU22
  77              		.loc 1 47 32 is_stmt 0 view .LVU23
  78 0028 C261     		str	r2, [r0, #28]
  48:Core/Src/spi.c ****   hspi1.Init.FirstBit = SPI_FIRSTBIT_MSB;
  79              		.loc 1 48 3 is_stmt 1 view .LVU24
  80              		.loc 1 48 23 is_stmt 0 view .LVU25
  81 002a 0362     		str	r3, [r0, #32]
  49:Core/Src/spi.c ****   hspi1.Init.TIMode = SPI_TIMODE_DISABLE;
  82              		.loc 1 49 3 is_stmt 1 view .LVU26
  83              		.loc 1 49 21 is_stmt 0 view .LVU27
  84 002c 4362     		str	r3, [r0, #36]
  50:Core/Src/spi.c ****   hspi1.Init.CRCCalculation = SPI_CRCCALCULATION_DISABLE;
  85              		.loc 1 50 3 is_stmt 1 view .LVU28
  86              		.loc 1 50 29 is_stmt 0 view .LVU29
  87 002e 8362     		str	r3, [r0, #40]
  51:Core/Src/spi.c ****   hspi1.Init.CRCPolynomial = 7;
  88              		.loc 1 51 3 is_stmt 1 view .LVU30
  89              		.loc 1 51 28 is_stmt 0 view .LVU31
  90 0030 093A     		subs	r2, r2, #9
  52:Core/Src/spi.c ****   hspi1.Init.CRCLength = SPI_CRC_LENGTH_DATASIZE;
  91              		.loc 1 52 24 view .LVU32
  92 0032 0363     		str	r3, [r0, #48]
  53:Core/Src/spi.c ****   hspi1.Init.NSSPMode = SPI_NSS_PULSE_ENABLE;
  93              		.loc 1 53 23 view .LVU33
  94 0034 0833     		adds	r3, r3, #8
  51:Core/Src/spi.c ****   hspi1.Init.CRCPolynomial = 7;
  95              		.loc 1 51 28 view .LVU34
  96 0036 C262     		str	r2, [r0, #44]
  52:Core/Src/spi.c ****   hspi1.Init.CRCLength = SPI_CRC_LENGTH_DATASIZE;
  97              		.loc 1 52 3 is_stmt 1 view .LVU35
  98              		.loc 1 53 3 view .LVU36
  99              		.loc 1 53 23 is_stmt 0 view .LVU37
 100 0038 4363     		str	r3, [r0, #52]
  54:Core/Src/spi.c ****   if (HAL_SPI_Init(&hspi1) != HAL_OK)
 101              		.loc 1 54 3 is_stmt 1 view .LVU38
 102              		.loc 1 54 7 is_stmt 0 view .LVU39
ARM GAS  /tmp/ccSMJO30.s 			page 4


 103 003a FFF7FEFF 		bl	HAL_SPI_Init
 104              	.LVL0:
 105              		.loc 1 54 6 discriminator 1 view .LVU40
 106 003e 0028     		cmp	r0, #0
 107 0040 01D0     		beq	.L1
  55:Core/Src/spi.c ****   {
  56:Core/Src/spi.c ****     Error_Handler();
 108              		.loc 1 56 5 is_stmt 1 view .LVU41
 109 0042 FFF7FEFF 		bl	Error_Handler
 110              	.LVL1:
 111              	.L1:
  57:Core/Src/spi.c ****   }
  58:Core/Src/spi.c ****   /* USER CODE BEGIN SPI1_Init 2 */
  59:Core/Src/spi.c **** 
  60:Core/Src/spi.c ****   /* USER CODE END SPI1_Init 2 */
  61:Core/Src/spi.c **** 
  62:Core/Src/spi.c **** }
 112              		.loc 1 62 1 is_stmt 0 view .LVU42
 113              		@ sp needed
 114 0046 10BD     		pop	{r4, pc}
 115              	.L7:
 116              		.align	2
 117              	.L6:
 118 0048 00000000 		.word	hspi1
 119 004c 00300140 		.word	1073819648
 120              		.cfi_endproc
 121              	.LFE420:
 123              		.section	.text.HAL_SPI_MspInit,"ax",%progbits
 124              		.align	1
 125              		.global	HAL_SPI_MspInit
 126              		.syntax unified
 127              		.code	16
 128              		.thumb_func
 130              	HAL_SPI_MspInit:
 131              	.LVL2:
 132              	.LFB421:
  63:Core/Src/spi.c **** 
  64:Core/Src/spi.c **** void HAL_SPI_MspInit(SPI_HandleTypeDef* spiHandle)
  65:Core/Src/spi.c **** {
 133              		.loc 1 65 1 is_stmt 1 view -0
 134              		.cfi_startproc
 135              		@ args = 0, pretend = 0, frame = 32
 136              		@ frame_needed = 0, uses_anonymous_args = 0
  66:Core/Src/spi.c **** 
  67:Core/Src/spi.c ****   GPIO_InitTypeDef GPIO_InitStruct = {0};
 137              		.loc 1 67 3 view .LVU44
  65:Core/Src/spi.c **** 
 138              		.loc 1 65 1 is_stmt 0 view .LVU45
 139 0000 10B5     		push	{r4, lr}
 140              	.LCFI1:
 141              		.cfi_def_cfa_offset 8
 142              		.cfi_offset 4, -8
 143              		.cfi_offset 14, -4
 144 0002 0400     		movs	r4, r0
 145 0004 88B0     		sub	sp, sp, #32
 146              	.LCFI2:
 147              		.cfi_def_cfa_offset 40
ARM GAS  /tmp/ccSMJO30.s 			page 5


 148              		.loc 1 67 20 view .LVU46
 149 0006 1422     		movs	r2, #20
 150 0008 0021     		movs	r1, #0
 151 000a 03A8     		add	r0, sp, #12
 152              	.LVL3:
 153              		.loc 1 67 20 view .LVU47
 154 000c FFF7FEFF 		bl	memset
 155              	.LVL4:
  68:Core/Src/spi.c ****   if(spiHandle->Instance==SPI1)
 156              		.loc 1 68 3 is_stmt 1 view .LVU48
 157              		.loc 1 68 5 is_stmt 0 view .LVU49
 158 0010 104B     		ldr	r3, .L10
 159 0012 2268     		ldr	r2, [r4]
 160 0014 9A42     		cmp	r2, r3
 161 0016 1AD1     		bne	.L8
  69:Core/Src/spi.c ****   {
  70:Core/Src/spi.c ****   /* USER CODE BEGIN SPI1_MspInit 0 */
  71:Core/Src/spi.c **** 
  72:Core/Src/spi.c ****   /* USER CODE END SPI1_MspInit 0 */
  73:Core/Src/spi.c ****     /* SPI1 clock enable */
  74:Core/Src/spi.c ****     __HAL_RCC_SPI1_CLK_ENABLE();
 162              		.loc 1 74 5 is_stmt 1 view .LVU50
 163              	.LBB2:
 164              		.loc 1 74 5 view .LVU51
 165              		.loc 1 74 5 view .LVU52
 166 0018 8021     		movs	r1, #128
 167 001a 0F4B     		ldr	r3, .L10+4
 168 001c 4901     		lsls	r1, r1, #5
 169 001e 1A6C     		ldr	r2, [r3, #64]
 170              	.LBE2:
  75:Core/Src/spi.c **** 
  76:Core/Src/spi.c ****     __HAL_RCC_GPIOA_CLK_ENABLE();
  77:Core/Src/spi.c ****     /**SPI1 GPIO Configuration
  78:Core/Src/spi.c ****     PA2     ------> SPI1_MOSI
  79:Core/Src/spi.c ****     PA5     ------> SPI1_SCK
  80:Core/Src/spi.c ****     */
  81:Core/Src/spi.c ****     GPIO_InitStruct.Pin = GPIO_PIN_2|GPIO_PIN_5;
  82:Core/Src/spi.c ****     GPIO_InitStruct.Mode = GPIO_MODE_AF_PP;
  83:Core/Src/spi.c ****     GPIO_InitStruct.Pull = GPIO_NOPULL;
  84:Core/Src/spi.c ****     GPIO_InitStruct.Speed = GPIO_SPEED_FREQ_LOW;
  85:Core/Src/spi.c ****     GPIO_InitStruct.Alternate = GPIO_AF0_SPI1;
  86:Core/Src/spi.c ****     HAL_GPIO_Init(GPIOA, &GPIO_InitStruct);
 171              		.loc 1 86 5 is_stmt 0 view .LVU53
 172 0020 A020     		movs	r0, #160
 173              	.LBB3:
  74:Core/Src/spi.c **** 
 174              		.loc 1 74 5 view .LVU54
 175 0022 0A43     		orrs	r2, r1
 176 0024 1A64     		str	r2, [r3, #64]
  74:Core/Src/spi.c **** 
 177              		.loc 1 74 5 is_stmt 1 view .LVU55
 178 0026 1A6C     		ldr	r2, [r3, #64]
 179              	.LBE3:
 180              		.loc 1 86 5 is_stmt 0 view .LVU56
 181 0028 C005     		lsls	r0, r0, #23
 182              	.LBB4:
  74:Core/Src/spi.c **** 
ARM GAS  /tmp/ccSMJO30.s 			page 6


 183              		.loc 1 74 5 view .LVU57
 184 002a 0A40     		ands	r2, r1
 185              	.LBE4:
 186              	.LBB5:
  76:Core/Src/spi.c ****     /**SPI1 GPIO Configuration
 187              		.loc 1 76 5 view .LVU58
 188 002c 0121     		movs	r1, #1
 189              	.LBE5:
 190              	.LBB6:
  74:Core/Src/spi.c **** 
 191              		.loc 1 74 5 view .LVU59
 192 002e 0192     		str	r2, [sp, #4]
  74:Core/Src/spi.c **** 
 193              		.loc 1 74 5 is_stmt 1 view .LVU60
 194 0030 019A     		ldr	r2, [sp, #4]
 195              	.LBE6:
  74:Core/Src/spi.c **** 
 196              		.loc 1 74 5 view .LVU61
  76:Core/Src/spi.c ****     /**SPI1 GPIO Configuration
 197              		.loc 1 76 5 view .LVU62
 198              	.LBB7:
  76:Core/Src/spi.c ****     /**SPI1 GPIO Configuration
 199              		.loc 1 76 5 view .LVU63
  76:Core/Src/spi.c ****     /**SPI1 GPIO Configuration
 200              		.loc 1 76 5 view .LVU64
 201 0032 5A6B     		ldr	r2, [r3, #52]
 202 0034 0A43     		orrs	r2, r1
 203 0036 5A63     		str	r2, [r3, #52]
  76:Core/Src/spi.c ****     /**SPI1 GPIO Configuration
 204              		.loc 1 76 5 view .LVU65
 205 0038 5B6B     		ldr	r3, [r3, #52]
 206 003a 0B40     		ands	r3, r1
 207 003c 0293     		str	r3, [sp, #8]
  76:Core/Src/spi.c ****     /**SPI1 GPIO Configuration
 208              		.loc 1 76 5 view .LVU66
 209 003e 029B     		ldr	r3, [sp, #8]
 210              	.LBE7:
  76:Core/Src/spi.c ****     /**SPI1 GPIO Configuration
 211              		.loc 1 76 5 view .LVU67
  81:Core/Src/spi.c ****     GPIO_InitStruct.Mode = GPIO_MODE_AF_PP;
 212              		.loc 1 81 5 view .LVU68
  81:Core/Src/spi.c ****     GPIO_InitStruct.Mode = GPIO_MODE_AF_PP;
 213              		.loc 1 81 25 is_stmt 0 view .LVU69
 214 0040 2423     		movs	r3, #36
 215              		.loc 1 86 5 view .LVU70
 216 0042 03A9     		add	r1, sp, #12
  81:Core/Src/spi.c ****     GPIO_InitStruct.Mode = GPIO_MODE_AF_PP;
 217              		.loc 1 81 25 view .LVU71
 218 0044 0393     		str	r3, [sp, #12]
  82:Core/Src/spi.c ****     GPIO_InitStruct.Pull = GPIO_NOPULL;
 219              		.loc 1 82 5 is_stmt 1 view .LVU72
  82:Core/Src/spi.c ****     GPIO_InitStruct.Pull = GPIO_NOPULL;
 220              		.loc 1 82 26 is_stmt 0 view .LVU73
 221 0046 223B     		subs	r3, r3, #34
 222 0048 0493     		str	r3, [sp, #16]
  83:Core/Src/spi.c ****     GPIO_InitStruct.Speed = GPIO_SPEED_FREQ_LOW;
 223              		.loc 1 83 5 is_stmt 1 view .LVU74
ARM GAS  /tmp/ccSMJO30.s 			page 7


  84:Core/Src/spi.c ****     GPIO_InitStruct.Alternate = GPIO_AF0_SPI1;
 224              		.loc 1 84 5 view .LVU75
  85:Core/Src/spi.c ****     HAL_GPIO_Init(GPIOA, &GPIO_InitStruct);
 225              		.loc 1 85 5 view .LVU76
 226              		.loc 1 86 5 view .LVU77
 227 004a FFF7FEFF 		bl	HAL_GPIO_Init
 228              	.LVL5:
 229              	.L8:
  87:Core/Src/spi.c **** 
  88:Core/Src/spi.c ****   /* USER CODE BEGIN SPI1_MspInit 1 */
  89:Core/Src/spi.c **** 
  90:Core/Src/spi.c ****   /* USER CODE END SPI1_MspInit 1 */
  91:Core/Src/spi.c ****   }
  92:Core/Src/spi.c **** }
 230              		.loc 1 92 1 is_stmt 0 view .LVU78
 231 004e 08B0     		add	sp, sp, #32
 232              		@ sp needed
 233              	.LVL6:
 234              		.loc 1 92 1 view .LVU79
 235 0050 10BD     		pop	{r4, pc}
 236              	.L11:
 237 0052 C046     		.align	2
 238              	.L10:
 239 0054 00300140 		.word	1073819648
 240 0058 00100240 		.word	1073876992
 241              		.cfi_endproc
 242              	.LFE421:
 244              		.section	.text.HAL_SPI_MspDeInit,"ax",%progbits
 245              		.align	1
 246              		.global	HAL_SPI_MspDeInit
 247              		.syntax unified
 248              		.code	16
 249              		.thumb_func
 251              	HAL_SPI_MspDeInit:
 252              	.LVL7:
 253              	.LFB422:
  93:Core/Src/spi.c **** 
  94:Core/Src/spi.c **** void HAL_SPI_MspDeInit(SPI_HandleTypeDef* spiHandle)
  95:Core/Src/spi.c **** {
 254              		.loc 1 95 1 is_stmt 1 view -0
 255              		.cfi_startproc
 256              		@ args = 0, pretend = 0, frame = 0
 257              		@ frame_needed = 0, uses_anonymous_args = 0
  96:Core/Src/spi.c **** 
  97:Core/Src/spi.c ****   if(spiHandle->Instance==SPI1)
 258              		.loc 1 97 3 view .LVU81
 259              		.loc 1 97 5 is_stmt 0 view .LVU82
 260 0000 074B     		ldr	r3, .L14
 261 0002 0268     		ldr	r2, [r0]
  95:Core/Src/spi.c **** 
 262              		.loc 1 95 1 view .LVU83
 263 0004 10B5     		push	{r4, lr}
 264              	.LCFI3:
 265              		.cfi_def_cfa_offset 8
 266              		.cfi_offset 4, -8
 267              		.cfi_offset 14, -4
 268              		.loc 1 97 5 view .LVU84
ARM GAS  /tmp/ccSMJO30.s 			page 8


 269 0006 9A42     		cmp	r2, r3
 270 0008 09D1     		bne	.L12
  98:Core/Src/spi.c ****   {
  99:Core/Src/spi.c ****   /* USER CODE BEGIN SPI1_MspDeInit 0 */
 100:Core/Src/spi.c **** 
 101:Core/Src/spi.c ****   /* USER CODE END SPI1_MspDeInit 0 */
 102:Core/Src/spi.c ****     /* Peripheral clock disable */
 103:Core/Src/spi.c ****     __HAL_RCC_SPI1_CLK_DISABLE();
 271              		.loc 1 103 5 is_stmt 1 view .LVU85
 104:Core/Src/spi.c **** 
 105:Core/Src/spi.c ****     /**SPI1 GPIO Configuration
 106:Core/Src/spi.c ****     PA2     ------> SPI1_MOSI
 107:Core/Src/spi.c ****     PA5     ------> SPI1_SCK
 108:Core/Src/spi.c ****     */
 109:Core/Src/spi.c ****     HAL_GPIO_DeInit(GPIOA, GPIO_PIN_2|GPIO_PIN_5);
 272              		.loc 1 109 5 is_stmt 0 view .LVU86
 273 000a A020     		movs	r0, #160
 274              	.LVL8:
 103:Core/Src/spi.c **** 
 275              		.loc 1 103 5 view .LVU87
 276 000c 054A     		ldr	r2, .L14+4
 277 000e 0649     		ldr	r1, .L14+8
 278 0010 136C     		ldr	r3, [r2, #64]
 279              		.loc 1 109 5 view .LVU88
 280 0012 C005     		lsls	r0, r0, #23
 103:Core/Src/spi.c **** 
 281              		.loc 1 103 5 view .LVU89
 282 0014 0B40     		ands	r3, r1
 283 0016 1364     		str	r3, [r2, #64]
 284              		.loc 1 109 5 is_stmt 1 view .LVU90
 285 0018 2421     		movs	r1, #36
 286 001a FFF7FEFF 		bl	HAL_GPIO_DeInit
 287              	.LVL9:
 288              	.L12:
 110:Core/Src/spi.c **** 
 111:Core/Src/spi.c ****   /* USER CODE BEGIN SPI1_MspDeInit 1 */
 112:Core/Src/spi.c **** 
 113:Core/Src/spi.c ****   /* USER CODE END SPI1_MspDeInit 1 */
 114:Core/Src/spi.c ****   }
 115:Core/Src/spi.c **** }
 289              		.loc 1 115 1 is_stmt 0 view .LVU91
 290              		@ sp needed
 291 001e 10BD     		pop	{r4, pc}
 292              	.L15:
 293              		.align	2
 294              	.L14:
 295 0020 00300140 		.word	1073819648
 296 0024 00100240 		.word	1073876992
 297 0028 FFEFFFFF 		.word	-4097
 298              		.cfi_endproc
 299              	.LFE422:
 301              		.global	hspi1
 302              		.section	.bss.hspi1,"aw",%nobits
 303              		.align	2
 306              	hspi1:
 307 0000 00000000 		.space	100
 307      00000000 
ARM GAS  /tmp/ccSMJO30.s 			page 9


 307      00000000 
 307      00000000 
 307      00000000 
 308              		.text
 309              	.Letext0:
 310              		.file 2 "/usr/arm-none-eabi/include/machine/_default_types.h"
 311              		.file 3 "/usr/arm-none-eabi/include/sys/_stdint.h"
 312              		.file 4 "Drivers/CMSIS/Device/ST/STM32G0xx/Include/stm32g030xx.h"
 313              		.file 5 "Drivers/STM32G0xx_HAL_Driver/Inc/stm32g0xx_hal_def.h"
 314              		.file 6 "Drivers/STM32G0xx_HAL_Driver/Inc/stm32g0xx_hal_gpio.h"
 315              		.file 7 "Drivers/STM32G0xx_HAL_Driver/Inc/stm32g0xx_hal_dma.h"
 316              		.file 8 "Drivers/STM32G0xx_HAL_Driver/Inc/stm32g0xx_hal_spi.h"
 317              		.file 9 "Drivers/STM32G0xx_HAL_Driver/Inc/stm32g0xx_ll_dma.h"
 318              		.file 10 "Core/Inc/spi.h"
 319              		.file 11 "Core/Inc/main.h"
 320              		.file 12 "<built-in>"
ARM GAS  /tmp/ccSMJO30.s 			page 10

