ARM GAS  /tmp/ccbqyIjO.s 			page 1


   1              		.cpu cortex-m0plus
   2              		.arch armv6s-m
   3              		.fpu softvfp
   4              		.eabi_attribute 20, 1
   5              		.eabi_attribute 21, 1
   6              		.eabi_attribute 23, 3
   7              		.eabi_attribute 24, 1
   8              		.eabi_attribute 25, 1
   9              		.eabi_attribute 26, 1
  10              		.eabi_attribute 30, 4
  11              		.eabi_attribute 34, 0
  12              		.eabi_attribute 18, 4
  13              		.file	"stm32g0xx_hal_dma.c"
  14              		.text
  15              	.Ltext0:
  16              		.cfi_sections	.debug_frame
  17              		.file 1 "Drivers/STM32G0xx_HAL_Driver/Src/stm32g0xx_hal_dma.c"
  18              		.section	.text.DMA_SetConfig,"ax",%progbits
  19              		.align	1
  20              		.syntax unified
  21              		.code	16
  22              		.thumb_func
  24              	DMA_SetConfig:
  25              	.LVL0:
  26              	.LFB432:
   1:Drivers/STM32G0xx_HAL_Driver/Src/stm32g0xx_hal_dma.c **** /**
   2:Drivers/STM32G0xx_HAL_Driver/Src/stm32g0xx_hal_dma.c ****   ******************************************************************************
   3:Drivers/STM32G0xx_HAL_Driver/Src/stm32g0xx_hal_dma.c ****   * @file    stm32g0xx_hal_dma.c
   4:Drivers/STM32G0xx_HAL_Driver/Src/stm32g0xx_hal_dma.c ****   * @author  MCD Application Team
   5:Drivers/STM32G0xx_HAL_Driver/Src/stm32g0xx_hal_dma.c ****   * @brief   DMA HAL module driver.
   6:Drivers/STM32G0xx_HAL_Driver/Src/stm32g0xx_hal_dma.c ****   *          This file provides firmware functions to manage the following
   7:Drivers/STM32G0xx_HAL_Driver/Src/stm32g0xx_hal_dma.c ****   *          functionalities of the Direct Memory Access (DMA) peripheral:
   8:Drivers/STM32G0xx_HAL_Driver/Src/stm32g0xx_hal_dma.c ****   *           + Initialization and de-initialization functions
   9:Drivers/STM32G0xx_HAL_Driver/Src/stm32g0xx_hal_dma.c ****   *           + IO operation functions
  10:Drivers/STM32G0xx_HAL_Driver/Src/stm32g0xx_hal_dma.c ****   *           + Peripheral State and errors functions
  11:Drivers/STM32G0xx_HAL_Driver/Src/stm32g0xx_hal_dma.c ****   *
  12:Drivers/STM32G0xx_HAL_Driver/Src/stm32g0xx_hal_dma.c ****   ******************************************************************************
  13:Drivers/STM32G0xx_HAL_Driver/Src/stm32g0xx_hal_dma.c ****   * @attention
  14:Drivers/STM32G0xx_HAL_Driver/Src/stm32g0xx_hal_dma.c ****   *
  15:Drivers/STM32G0xx_HAL_Driver/Src/stm32g0xx_hal_dma.c ****   * Copyright (c) 2018 STMicroelectronics.
  16:Drivers/STM32G0xx_HAL_Driver/Src/stm32g0xx_hal_dma.c ****   * All rights reserved.
  17:Drivers/STM32G0xx_HAL_Driver/Src/stm32g0xx_hal_dma.c ****   *
  18:Drivers/STM32G0xx_HAL_Driver/Src/stm32g0xx_hal_dma.c ****   * This software is licensed under terms that can be found in the LICENSE file
  19:Drivers/STM32G0xx_HAL_Driver/Src/stm32g0xx_hal_dma.c ****   * in the root directory of this software component.
  20:Drivers/STM32G0xx_HAL_Driver/Src/stm32g0xx_hal_dma.c ****   * If no LICENSE file comes with this software, it is provided AS-IS.
  21:Drivers/STM32G0xx_HAL_Driver/Src/stm32g0xx_hal_dma.c ****   *
  22:Drivers/STM32G0xx_HAL_Driver/Src/stm32g0xx_hal_dma.c ****   ******************************************************************************
  23:Drivers/STM32G0xx_HAL_Driver/Src/stm32g0xx_hal_dma.c ****   @verbatim
  24:Drivers/STM32G0xx_HAL_Driver/Src/stm32g0xx_hal_dma.c ****   ==============================================================================
  25:Drivers/STM32G0xx_HAL_Driver/Src/stm32g0xx_hal_dma.c ****                         ##### How to use this driver #####
  26:Drivers/STM32G0xx_HAL_Driver/Src/stm32g0xx_hal_dma.c ****   ==============================================================================
  27:Drivers/STM32G0xx_HAL_Driver/Src/stm32g0xx_hal_dma.c ****   [..]
  28:Drivers/STM32G0xx_HAL_Driver/Src/stm32g0xx_hal_dma.c ****    (#) Enable and configure the peripheral to be connected to the DMA Channel
  29:Drivers/STM32G0xx_HAL_Driver/Src/stm32g0xx_hal_dma.c ****        (except for internal SRAM / FLASH memories: no initialization is
  30:Drivers/STM32G0xx_HAL_Driver/Src/stm32g0xx_hal_dma.c ****        necessary). Please refer to the Reference manual for connection between peripherals
  31:Drivers/STM32G0xx_HAL_Driver/Src/stm32g0xx_hal_dma.c ****        and DMA requests.
  32:Drivers/STM32G0xx_HAL_Driver/Src/stm32g0xx_hal_dma.c **** 
ARM GAS  /tmp/ccbqyIjO.s 			page 2


  33:Drivers/STM32G0xx_HAL_Driver/Src/stm32g0xx_hal_dma.c ****    (#) For a given Channel, program the required configuration through the following parameters:
  34:Drivers/STM32G0xx_HAL_Driver/Src/stm32g0xx_hal_dma.c ****        Channel request, Transfer Direction, Source and Destination data formats,
  35:Drivers/STM32G0xx_HAL_Driver/Src/stm32g0xx_hal_dma.c ****        Circular or Normal mode, Channel Priority level, Source and Destination Increment mode
  36:Drivers/STM32G0xx_HAL_Driver/Src/stm32g0xx_hal_dma.c ****        using HAL_DMA_Init() function.
  37:Drivers/STM32G0xx_HAL_Driver/Src/stm32g0xx_hal_dma.c **** 
  38:Drivers/STM32G0xx_HAL_Driver/Src/stm32g0xx_hal_dma.c ****        Prior to HAL_DMA_Init the peripheral clock shall be enabled for both DMA & DMAMUX
  39:Drivers/STM32G0xx_HAL_Driver/Src/stm32g0xx_hal_dma.c ****        thanks to:
  40:Drivers/STM32G0xx_HAL_Driver/Src/stm32g0xx_hal_dma.c ****       (##) DMA1 or DMA2: __HAL_RCC_DMA1_CLK_ENABLE() or  __HAL_RCC_DMA2_CLK_ENABLE();
  41:Drivers/STM32G0xx_HAL_Driver/Src/stm32g0xx_hal_dma.c **** 
  42:Drivers/STM32G0xx_HAL_Driver/Src/stm32g0xx_hal_dma.c ****    (#) Use HAL_DMA_GetState() function to return the DMA state and HAL_DMA_GetError() in case of er
  43:Drivers/STM32G0xx_HAL_Driver/Src/stm32g0xx_hal_dma.c ****        detection.
  44:Drivers/STM32G0xx_HAL_Driver/Src/stm32g0xx_hal_dma.c **** 
  45:Drivers/STM32G0xx_HAL_Driver/Src/stm32g0xx_hal_dma.c ****    (#) Use HAL_DMA_Abort() function to abort the current transfer
  46:Drivers/STM32G0xx_HAL_Driver/Src/stm32g0xx_hal_dma.c **** 
  47:Drivers/STM32G0xx_HAL_Driver/Src/stm32g0xx_hal_dma.c ****      -@-   In Memory-to-Memory transfer mode, Circular mode is not allowed.
  48:Drivers/STM32G0xx_HAL_Driver/Src/stm32g0xx_hal_dma.c **** 
  49:Drivers/STM32G0xx_HAL_Driver/Src/stm32g0xx_hal_dma.c ****      *** Polling mode IO operation ***
  50:Drivers/STM32G0xx_HAL_Driver/Src/stm32g0xx_hal_dma.c ****      =================================
  51:Drivers/STM32G0xx_HAL_Driver/Src/stm32g0xx_hal_dma.c ****      [..]
  52:Drivers/STM32G0xx_HAL_Driver/Src/stm32g0xx_hal_dma.c ****        (+) Use HAL_DMA_Start() to start DMA transfer after the configuration of Source
  53:Drivers/STM32G0xx_HAL_Driver/Src/stm32g0xx_hal_dma.c ****            address and destination address and the Length of data to be transferred
  54:Drivers/STM32G0xx_HAL_Driver/Src/stm32g0xx_hal_dma.c ****        (+) Use HAL_DMA_PollForTransfer() to poll for the end of current transfer, in this
  55:Drivers/STM32G0xx_HAL_Driver/Src/stm32g0xx_hal_dma.c ****            case a fixed Timeout can be configured by User depending from his application.
  56:Drivers/STM32G0xx_HAL_Driver/Src/stm32g0xx_hal_dma.c **** 
  57:Drivers/STM32G0xx_HAL_Driver/Src/stm32g0xx_hal_dma.c ****      *** Interrupt mode IO operation ***
  58:Drivers/STM32G0xx_HAL_Driver/Src/stm32g0xx_hal_dma.c ****      ===================================
  59:Drivers/STM32G0xx_HAL_Driver/Src/stm32g0xx_hal_dma.c ****      [..]
  60:Drivers/STM32G0xx_HAL_Driver/Src/stm32g0xx_hal_dma.c ****        (+) Configure the DMA interrupt priority using HAL_NVIC_SetPriority()
  61:Drivers/STM32G0xx_HAL_Driver/Src/stm32g0xx_hal_dma.c ****        (+) Enable the DMA IRQ handler using HAL_NVIC_EnableIRQ()
  62:Drivers/STM32G0xx_HAL_Driver/Src/stm32g0xx_hal_dma.c ****        (+) Use HAL_DMA_Start_IT() to start DMA transfer after the configuration of
  63:Drivers/STM32G0xx_HAL_Driver/Src/stm32g0xx_hal_dma.c ****            Source address and destination address and the Length of data to be transferred.
  64:Drivers/STM32G0xx_HAL_Driver/Src/stm32g0xx_hal_dma.c ****            In this case the DMA interrupt is configured
  65:Drivers/STM32G0xx_HAL_Driver/Src/stm32g0xx_hal_dma.c ****        (+) Use HAL_DMA_IRQHandler() called under DMA_IRQHandler() Interrupt subroutine
  66:Drivers/STM32G0xx_HAL_Driver/Src/stm32g0xx_hal_dma.c ****        (+) At the end of data transfer HAL_DMA_IRQHandler() function is executed and user can
  67:Drivers/STM32G0xx_HAL_Driver/Src/stm32g0xx_hal_dma.c ****               add his own function to register callbacks with HAL_DMA_RegisterCallback().
  68:Drivers/STM32G0xx_HAL_Driver/Src/stm32g0xx_hal_dma.c **** 
  69:Drivers/STM32G0xx_HAL_Driver/Src/stm32g0xx_hal_dma.c ****      *** DMA HAL driver macros list ***
  70:Drivers/STM32G0xx_HAL_Driver/Src/stm32g0xx_hal_dma.c ****      =============================================
  71:Drivers/STM32G0xx_HAL_Driver/Src/stm32g0xx_hal_dma.c ****      [..]
  72:Drivers/STM32G0xx_HAL_Driver/Src/stm32g0xx_hal_dma.c ****        Below the list of macros in DMA HAL driver.
  73:Drivers/STM32G0xx_HAL_Driver/Src/stm32g0xx_hal_dma.c **** 
  74:Drivers/STM32G0xx_HAL_Driver/Src/stm32g0xx_hal_dma.c ****        (+) __HAL_DMA_ENABLE: Enable the specified DMA Channel.
  75:Drivers/STM32G0xx_HAL_Driver/Src/stm32g0xx_hal_dma.c ****        (+) __HAL_DMA_DISABLE: Disable the specified DMA Channel.
  76:Drivers/STM32G0xx_HAL_Driver/Src/stm32g0xx_hal_dma.c ****        (+) __HAL_DMA_GET_FLAG: Get the DMA Channel pending flags.
  77:Drivers/STM32G0xx_HAL_Driver/Src/stm32g0xx_hal_dma.c ****        (+) __HAL_DMA_CLEAR_FLAG: Clear the DMA Channel pending flags.
  78:Drivers/STM32G0xx_HAL_Driver/Src/stm32g0xx_hal_dma.c ****        (+) __HAL_DMA_ENABLE_IT: Enable the specified DMA Channel interrupts.
  79:Drivers/STM32G0xx_HAL_Driver/Src/stm32g0xx_hal_dma.c ****        (+) __HAL_DMA_DISABLE_IT: Disable the specified DMA Channel interrupts.
  80:Drivers/STM32G0xx_HAL_Driver/Src/stm32g0xx_hal_dma.c ****        (+) __HAL_DMA_GET_IT_SOURCE: Check whether the specified DMA Channel interrupt is enabled or
  81:Drivers/STM32G0xx_HAL_Driver/Src/stm32g0xx_hal_dma.c **** 
  82:Drivers/STM32G0xx_HAL_Driver/Src/stm32g0xx_hal_dma.c ****      [..]
  83:Drivers/STM32G0xx_HAL_Driver/Src/stm32g0xx_hal_dma.c ****       (@) You can refer to the DMA HAL driver header file for more useful macros
  84:Drivers/STM32G0xx_HAL_Driver/Src/stm32g0xx_hal_dma.c **** 
  85:Drivers/STM32G0xx_HAL_Driver/Src/stm32g0xx_hal_dma.c ****   @endverbatim
  86:Drivers/STM32G0xx_HAL_Driver/Src/stm32g0xx_hal_dma.c ****   ******************************************************************************
  87:Drivers/STM32G0xx_HAL_Driver/Src/stm32g0xx_hal_dma.c ****   */
  88:Drivers/STM32G0xx_HAL_Driver/Src/stm32g0xx_hal_dma.c **** 
  89:Drivers/STM32G0xx_HAL_Driver/Src/stm32g0xx_hal_dma.c **** /* Includes ------------------------------------------------------------------*/
ARM GAS  /tmp/ccbqyIjO.s 			page 3


  90:Drivers/STM32G0xx_HAL_Driver/Src/stm32g0xx_hal_dma.c **** #include "stm32g0xx_hal.h"
  91:Drivers/STM32G0xx_HAL_Driver/Src/stm32g0xx_hal_dma.c **** 
  92:Drivers/STM32G0xx_HAL_Driver/Src/stm32g0xx_hal_dma.c **** /** @addtogroup STM32G0xx_HAL_Driver
  93:Drivers/STM32G0xx_HAL_Driver/Src/stm32g0xx_hal_dma.c ****   * @{
  94:Drivers/STM32G0xx_HAL_Driver/Src/stm32g0xx_hal_dma.c ****   */
  95:Drivers/STM32G0xx_HAL_Driver/Src/stm32g0xx_hal_dma.c **** 
  96:Drivers/STM32G0xx_HAL_Driver/Src/stm32g0xx_hal_dma.c **** /** @defgroup DMA DMA
  97:Drivers/STM32G0xx_HAL_Driver/Src/stm32g0xx_hal_dma.c ****   * @brief DMA HAL module driver
  98:Drivers/STM32G0xx_HAL_Driver/Src/stm32g0xx_hal_dma.c ****   * @{
  99:Drivers/STM32G0xx_HAL_Driver/Src/stm32g0xx_hal_dma.c ****   */
 100:Drivers/STM32G0xx_HAL_Driver/Src/stm32g0xx_hal_dma.c **** 
 101:Drivers/STM32G0xx_HAL_Driver/Src/stm32g0xx_hal_dma.c **** #ifdef HAL_DMA_MODULE_ENABLED
 102:Drivers/STM32G0xx_HAL_Driver/Src/stm32g0xx_hal_dma.c **** 
 103:Drivers/STM32G0xx_HAL_Driver/Src/stm32g0xx_hal_dma.c **** /* Private typedef -----------------------------------------------------------*/
 104:Drivers/STM32G0xx_HAL_Driver/Src/stm32g0xx_hal_dma.c **** /* Private define ------------------------------------------------------------*/
 105:Drivers/STM32G0xx_HAL_Driver/Src/stm32g0xx_hal_dma.c **** /* Private macro -------------------------------------------------------------*/
 106:Drivers/STM32G0xx_HAL_Driver/Src/stm32g0xx_hal_dma.c **** /* Private variables ---------------------------------------------------------*/
 107:Drivers/STM32G0xx_HAL_Driver/Src/stm32g0xx_hal_dma.c **** /* Private function prototypes -----------------------------------------------*/
 108:Drivers/STM32G0xx_HAL_Driver/Src/stm32g0xx_hal_dma.c **** 
 109:Drivers/STM32G0xx_HAL_Driver/Src/stm32g0xx_hal_dma.c **** /** @defgroup DMA_Private_Functions DMA Private Functions
 110:Drivers/STM32G0xx_HAL_Driver/Src/stm32g0xx_hal_dma.c ****   * @{
 111:Drivers/STM32G0xx_HAL_Driver/Src/stm32g0xx_hal_dma.c ****   */
 112:Drivers/STM32G0xx_HAL_Driver/Src/stm32g0xx_hal_dma.c **** static void DMA_SetConfig(DMA_HandleTypeDef *hdma, uint32_t SrcAddress, uint32_t DstAddress, uint32
 113:Drivers/STM32G0xx_HAL_Driver/Src/stm32g0xx_hal_dma.c **** static void DMA_CalcDMAMUXChannelBaseAndMask(DMA_HandleTypeDef *hdma);
 114:Drivers/STM32G0xx_HAL_Driver/Src/stm32g0xx_hal_dma.c **** static void DMA_CalcDMAMUXRequestGenBaseAndMask(DMA_HandleTypeDef *hdma);
 115:Drivers/STM32G0xx_HAL_Driver/Src/stm32g0xx_hal_dma.c **** 
 116:Drivers/STM32G0xx_HAL_Driver/Src/stm32g0xx_hal_dma.c **** /**
 117:Drivers/STM32G0xx_HAL_Driver/Src/stm32g0xx_hal_dma.c ****   * @}
 118:Drivers/STM32G0xx_HAL_Driver/Src/stm32g0xx_hal_dma.c ****   */
 119:Drivers/STM32G0xx_HAL_Driver/Src/stm32g0xx_hal_dma.c **** 
 120:Drivers/STM32G0xx_HAL_Driver/Src/stm32g0xx_hal_dma.c **** /* Exported functions ---------------------------------------------------------*/
 121:Drivers/STM32G0xx_HAL_Driver/Src/stm32g0xx_hal_dma.c **** 
 122:Drivers/STM32G0xx_HAL_Driver/Src/stm32g0xx_hal_dma.c **** /** @defgroup DMA_Exported_Functions DMA Exported Functions
 123:Drivers/STM32G0xx_HAL_Driver/Src/stm32g0xx_hal_dma.c ****   * @{
 124:Drivers/STM32G0xx_HAL_Driver/Src/stm32g0xx_hal_dma.c ****   */
 125:Drivers/STM32G0xx_HAL_Driver/Src/stm32g0xx_hal_dma.c **** 
 126:Drivers/STM32G0xx_HAL_Driver/Src/stm32g0xx_hal_dma.c **** /** @defgroup DMA_Exported_Functions_Group1 Initialization and de-initialization functions
 127:Drivers/STM32G0xx_HAL_Driver/Src/stm32g0xx_hal_dma.c ****   *  @brief   Initialization and de-initialization functions
 128:Drivers/STM32G0xx_HAL_Driver/Src/stm32g0xx_hal_dma.c ****   *
 129:Drivers/STM32G0xx_HAL_Driver/Src/stm32g0xx_hal_dma.c **** @verbatim
 130:Drivers/STM32G0xx_HAL_Driver/Src/stm32g0xx_hal_dma.c ****  ===============================================================================
 131:Drivers/STM32G0xx_HAL_Driver/Src/stm32g0xx_hal_dma.c ****              ##### Initialization and de-initialization functions  #####
 132:Drivers/STM32G0xx_HAL_Driver/Src/stm32g0xx_hal_dma.c ****  ===============================================================================
 133:Drivers/STM32G0xx_HAL_Driver/Src/stm32g0xx_hal_dma.c ****     [..]
 134:Drivers/STM32G0xx_HAL_Driver/Src/stm32g0xx_hal_dma.c ****     This section provides functions allowing to initialize the DMA Channel source
 135:Drivers/STM32G0xx_HAL_Driver/Src/stm32g0xx_hal_dma.c ****     and destination addresses, incrementation and data sizes, transfer direction,
 136:Drivers/STM32G0xx_HAL_Driver/Src/stm32g0xx_hal_dma.c ****     circular/normal mode selection, memory-to-memory mode selection and Channel priority value.
 137:Drivers/STM32G0xx_HAL_Driver/Src/stm32g0xx_hal_dma.c ****     [..]
 138:Drivers/STM32G0xx_HAL_Driver/Src/stm32g0xx_hal_dma.c ****     The HAL_DMA_Init() function follows the DMA configuration procedures as described in
 139:Drivers/STM32G0xx_HAL_Driver/Src/stm32g0xx_hal_dma.c ****     reference manual.
 140:Drivers/STM32G0xx_HAL_Driver/Src/stm32g0xx_hal_dma.c **** 
 141:Drivers/STM32G0xx_HAL_Driver/Src/stm32g0xx_hal_dma.c **** @endverbatim
 142:Drivers/STM32G0xx_HAL_Driver/Src/stm32g0xx_hal_dma.c ****   * @{
 143:Drivers/STM32G0xx_HAL_Driver/Src/stm32g0xx_hal_dma.c ****   */
 144:Drivers/STM32G0xx_HAL_Driver/Src/stm32g0xx_hal_dma.c **** 
 145:Drivers/STM32G0xx_HAL_Driver/Src/stm32g0xx_hal_dma.c **** /**
 146:Drivers/STM32G0xx_HAL_Driver/Src/stm32g0xx_hal_dma.c ****   * @brief Initialize the DMA according to the specified
ARM GAS  /tmp/ccbqyIjO.s 			page 4


 147:Drivers/STM32G0xx_HAL_Driver/Src/stm32g0xx_hal_dma.c ****   *        parameters in the DMA_InitTypeDef and initialize the associated handle.
 148:Drivers/STM32G0xx_HAL_Driver/Src/stm32g0xx_hal_dma.c ****   * @param hdma Pointer to a DMA_HandleTypeDef structure that contains
 149:Drivers/STM32G0xx_HAL_Driver/Src/stm32g0xx_hal_dma.c ****   *             the configuration information for the specified DMA Channel.
 150:Drivers/STM32G0xx_HAL_Driver/Src/stm32g0xx_hal_dma.c ****   * @retval HAL status
 151:Drivers/STM32G0xx_HAL_Driver/Src/stm32g0xx_hal_dma.c ****   */
 152:Drivers/STM32G0xx_HAL_Driver/Src/stm32g0xx_hal_dma.c **** HAL_StatusTypeDef HAL_DMA_Init(DMA_HandleTypeDef *hdma)
 153:Drivers/STM32G0xx_HAL_Driver/Src/stm32g0xx_hal_dma.c **** {
 154:Drivers/STM32G0xx_HAL_Driver/Src/stm32g0xx_hal_dma.c ****   /* Check the DMA handle allocation */
 155:Drivers/STM32G0xx_HAL_Driver/Src/stm32g0xx_hal_dma.c ****   if (hdma == NULL)
 156:Drivers/STM32G0xx_HAL_Driver/Src/stm32g0xx_hal_dma.c ****   {
 157:Drivers/STM32G0xx_HAL_Driver/Src/stm32g0xx_hal_dma.c ****     return HAL_ERROR;
 158:Drivers/STM32G0xx_HAL_Driver/Src/stm32g0xx_hal_dma.c ****   }
 159:Drivers/STM32G0xx_HAL_Driver/Src/stm32g0xx_hal_dma.c **** 
 160:Drivers/STM32G0xx_HAL_Driver/Src/stm32g0xx_hal_dma.c ****   /* Check the parameters */
 161:Drivers/STM32G0xx_HAL_Driver/Src/stm32g0xx_hal_dma.c ****   assert_param(IS_DMA_ALL_INSTANCE(hdma->Instance));
 162:Drivers/STM32G0xx_HAL_Driver/Src/stm32g0xx_hal_dma.c ****   assert_param(IS_DMA_DIRECTION(hdma->Init.Direction));
 163:Drivers/STM32G0xx_HAL_Driver/Src/stm32g0xx_hal_dma.c ****   assert_param(IS_DMA_PERIPHERAL_INC_STATE(hdma->Init.PeriphInc));
 164:Drivers/STM32G0xx_HAL_Driver/Src/stm32g0xx_hal_dma.c ****   assert_param(IS_DMA_MEMORY_INC_STATE(hdma->Init.MemInc));
 165:Drivers/STM32G0xx_HAL_Driver/Src/stm32g0xx_hal_dma.c ****   assert_param(IS_DMA_PERIPHERAL_DATA_SIZE(hdma->Init.PeriphDataAlignment));
 166:Drivers/STM32G0xx_HAL_Driver/Src/stm32g0xx_hal_dma.c ****   assert_param(IS_DMA_MEMORY_DATA_SIZE(hdma->Init.MemDataAlignment));
 167:Drivers/STM32G0xx_HAL_Driver/Src/stm32g0xx_hal_dma.c ****   assert_param(IS_DMA_MODE(hdma->Init.Mode));
 168:Drivers/STM32G0xx_HAL_Driver/Src/stm32g0xx_hal_dma.c ****   assert_param(IS_DMA_PRIORITY(hdma->Init.Priority));
 169:Drivers/STM32G0xx_HAL_Driver/Src/stm32g0xx_hal_dma.c **** 
 170:Drivers/STM32G0xx_HAL_Driver/Src/stm32g0xx_hal_dma.c ****   assert_param(IS_DMA_ALL_REQUEST(hdma->Init.Request));
 171:Drivers/STM32G0xx_HAL_Driver/Src/stm32g0xx_hal_dma.c **** 
 172:Drivers/STM32G0xx_HAL_Driver/Src/stm32g0xx_hal_dma.c ****   /* Compute the channel index */
 173:Drivers/STM32G0xx_HAL_Driver/Src/stm32g0xx_hal_dma.c **** #if defined(DMA2)
 174:Drivers/STM32G0xx_HAL_Driver/Src/stm32g0xx_hal_dma.c ****   if ((uint32_t)(hdma->Instance) < (uint32_t)(DMA2_Channel1))
 175:Drivers/STM32G0xx_HAL_Driver/Src/stm32g0xx_hal_dma.c ****   {
 176:Drivers/STM32G0xx_HAL_Driver/Src/stm32g0xx_hal_dma.c ****     /* DMA1 */
 177:Drivers/STM32G0xx_HAL_Driver/Src/stm32g0xx_hal_dma.c ****     hdma->ChannelIndex = (((uint32_t)hdma->Instance - (uint32_t)DMA1_Channel1) / ((uint32_t)DMA1_Ch
 178:Drivers/STM32G0xx_HAL_Driver/Src/stm32g0xx_hal_dma.c ****     hdma->DmaBaseAddress = DMA1;
 179:Drivers/STM32G0xx_HAL_Driver/Src/stm32g0xx_hal_dma.c ****   }
 180:Drivers/STM32G0xx_HAL_Driver/Src/stm32g0xx_hal_dma.c ****   else
 181:Drivers/STM32G0xx_HAL_Driver/Src/stm32g0xx_hal_dma.c ****   {
 182:Drivers/STM32G0xx_HAL_Driver/Src/stm32g0xx_hal_dma.c ****     /* DMA2 */
 183:Drivers/STM32G0xx_HAL_Driver/Src/stm32g0xx_hal_dma.c ****     hdma->ChannelIndex = (((uint32_t)hdma->Instance - (uint32_t)DMA2_Channel1) / ((uint32_t)DMA2_Ch
 184:Drivers/STM32G0xx_HAL_Driver/Src/stm32g0xx_hal_dma.c ****     hdma->DmaBaseAddress = DMA2;
 185:Drivers/STM32G0xx_HAL_Driver/Src/stm32g0xx_hal_dma.c ****   }
 186:Drivers/STM32G0xx_HAL_Driver/Src/stm32g0xx_hal_dma.c **** #else
 187:Drivers/STM32G0xx_HAL_Driver/Src/stm32g0xx_hal_dma.c ****   hdma->ChannelIndex = (((uint32_t)hdma->Instance - (uint32_t)DMA1_Channel1) / ((uint32_t)DMA1_Chan
 188:Drivers/STM32G0xx_HAL_Driver/Src/stm32g0xx_hal_dma.c **** #endif /* DMA2 */
 189:Drivers/STM32G0xx_HAL_Driver/Src/stm32g0xx_hal_dma.c **** 
 190:Drivers/STM32G0xx_HAL_Driver/Src/stm32g0xx_hal_dma.c ****   /* Change DMA peripheral state */
 191:Drivers/STM32G0xx_HAL_Driver/Src/stm32g0xx_hal_dma.c ****   hdma->State = HAL_DMA_STATE_BUSY;
 192:Drivers/STM32G0xx_HAL_Driver/Src/stm32g0xx_hal_dma.c **** 
 193:Drivers/STM32G0xx_HAL_Driver/Src/stm32g0xx_hal_dma.c ****   /* Clear PL, MSIZE, PSIZE, MINC, PINC, CIRC, DIR and MEM2MEM bits */
 194:Drivers/STM32G0xx_HAL_Driver/Src/stm32g0xx_hal_dma.c ****   CLEAR_BIT(hdma->Instance->CCR, (DMA_CCR_PL    | DMA_CCR_MSIZE  | DMA_CCR_PSIZE  | \
 195:Drivers/STM32G0xx_HAL_Driver/Src/stm32g0xx_hal_dma.c ****                                   DMA_CCR_MINC  | DMA_CCR_PINC   | DMA_CCR_CIRC   | \
 196:Drivers/STM32G0xx_HAL_Driver/Src/stm32g0xx_hal_dma.c ****                                   DMA_CCR_DIR   | DMA_CCR_MEM2MEM));
 197:Drivers/STM32G0xx_HAL_Driver/Src/stm32g0xx_hal_dma.c **** 
 198:Drivers/STM32G0xx_HAL_Driver/Src/stm32g0xx_hal_dma.c ****   /* Set the DMA Channel configuration */
 199:Drivers/STM32G0xx_HAL_Driver/Src/stm32g0xx_hal_dma.c ****   SET_BIT(hdma->Instance->CCR, (hdma->Init.Direction           |                               \
 200:Drivers/STM32G0xx_HAL_Driver/Src/stm32g0xx_hal_dma.c ****                                 hdma->Init.PeriphInc           | hdma->Init.MemInc           | \
 201:Drivers/STM32G0xx_HAL_Driver/Src/stm32g0xx_hal_dma.c ****                                 hdma->Init.PeriphDataAlignment | hdma->Init.MemDataAlignment | \
 202:Drivers/STM32G0xx_HAL_Driver/Src/stm32g0xx_hal_dma.c ****                                 hdma->Init.Mode                | hdma->Init.Priority));
 203:Drivers/STM32G0xx_HAL_Driver/Src/stm32g0xx_hal_dma.c **** 
ARM GAS  /tmp/ccbqyIjO.s 			page 5


 204:Drivers/STM32G0xx_HAL_Driver/Src/stm32g0xx_hal_dma.c ****   /* Initialize parameters for DMAMUX channel :
 205:Drivers/STM32G0xx_HAL_Driver/Src/stm32g0xx_hal_dma.c ****      DMAmuxChannel, DMAmuxChannelStatus and DMAmuxChannelStatusMask
 206:Drivers/STM32G0xx_HAL_Driver/Src/stm32g0xx_hal_dma.c ****   */
 207:Drivers/STM32G0xx_HAL_Driver/Src/stm32g0xx_hal_dma.c ****   DMA_CalcDMAMUXChannelBaseAndMask(hdma);
 208:Drivers/STM32G0xx_HAL_Driver/Src/stm32g0xx_hal_dma.c **** 
 209:Drivers/STM32G0xx_HAL_Driver/Src/stm32g0xx_hal_dma.c ****   if (hdma->Init.Direction == DMA_MEMORY_TO_MEMORY)
 210:Drivers/STM32G0xx_HAL_Driver/Src/stm32g0xx_hal_dma.c ****   {
 211:Drivers/STM32G0xx_HAL_Driver/Src/stm32g0xx_hal_dma.c ****     /* if memory to memory force the request to 0*/
 212:Drivers/STM32G0xx_HAL_Driver/Src/stm32g0xx_hal_dma.c ****     hdma->Init.Request = DMA_REQUEST_MEM2MEM;
 213:Drivers/STM32G0xx_HAL_Driver/Src/stm32g0xx_hal_dma.c ****   }
 214:Drivers/STM32G0xx_HAL_Driver/Src/stm32g0xx_hal_dma.c **** 
 215:Drivers/STM32G0xx_HAL_Driver/Src/stm32g0xx_hal_dma.c ****   /* Set peripheral request  to DMAMUX channel */
 216:Drivers/STM32G0xx_HAL_Driver/Src/stm32g0xx_hal_dma.c ****   hdma->DMAmuxChannel->CCR = (hdma->Init.Request & DMAMUX_CxCR_DMAREQ_ID);
 217:Drivers/STM32G0xx_HAL_Driver/Src/stm32g0xx_hal_dma.c **** 
 218:Drivers/STM32G0xx_HAL_Driver/Src/stm32g0xx_hal_dma.c ****   /* Clear the DMAMUX synchro overrun flag */
 219:Drivers/STM32G0xx_HAL_Driver/Src/stm32g0xx_hal_dma.c ****   hdma->DMAmuxChannelStatus->CFR = hdma->DMAmuxChannelStatusMask;
 220:Drivers/STM32G0xx_HAL_Driver/Src/stm32g0xx_hal_dma.c **** 
 221:Drivers/STM32G0xx_HAL_Driver/Src/stm32g0xx_hal_dma.c ****   if (((hdma->Init.Request >  0UL) && (hdma->Init.Request <= DMA_REQUEST_GENERATOR3)))
 222:Drivers/STM32G0xx_HAL_Driver/Src/stm32g0xx_hal_dma.c ****   {
 223:Drivers/STM32G0xx_HAL_Driver/Src/stm32g0xx_hal_dma.c ****     /* Initialize parameters for DMAMUX request generator :
 224:Drivers/STM32G0xx_HAL_Driver/Src/stm32g0xx_hal_dma.c ****        DMAmuxRequestGen, DMAmuxRequestGenStatus and DMAmuxRequestGenStatusMask
 225:Drivers/STM32G0xx_HAL_Driver/Src/stm32g0xx_hal_dma.c ****     */
 226:Drivers/STM32G0xx_HAL_Driver/Src/stm32g0xx_hal_dma.c ****     DMA_CalcDMAMUXRequestGenBaseAndMask(hdma);
 227:Drivers/STM32G0xx_HAL_Driver/Src/stm32g0xx_hal_dma.c **** 
 228:Drivers/STM32G0xx_HAL_Driver/Src/stm32g0xx_hal_dma.c ****     /* Reset the DMAMUX request generator register*/
 229:Drivers/STM32G0xx_HAL_Driver/Src/stm32g0xx_hal_dma.c ****     hdma->DMAmuxRequestGen->RGCR = 0U;
 230:Drivers/STM32G0xx_HAL_Driver/Src/stm32g0xx_hal_dma.c **** 
 231:Drivers/STM32G0xx_HAL_Driver/Src/stm32g0xx_hal_dma.c ****     /* Clear the DMAMUX request generator overrun flag */
 232:Drivers/STM32G0xx_HAL_Driver/Src/stm32g0xx_hal_dma.c ****     hdma->DMAmuxRequestGenStatus->RGCFR = hdma->DMAmuxRequestGenStatusMask;
 233:Drivers/STM32G0xx_HAL_Driver/Src/stm32g0xx_hal_dma.c ****   }
 234:Drivers/STM32G0xx_HAL_Driver/Src/stm32g0xx_hal_dma.c ****   else
 235:Drivers/STM32G0xx_HAL_Driver/Src/stm32g0xx_hal_dma.c ****   {
 236:Drivers/STM32G0xx_HAL_Driver/Src/stm32g0xx_hal_dma.c ****     hdma->DMAmuxRequestGen = 0U;
 237:Drivers/STM32G0xx_HAL_Driver/Src/stm32g0xx_hal_dma.c ****     hdma->DMAmuxRequestGenStatus = 0U;
 238:Drivers/STM32G0xx_HAL_Driver/Src/stm32g0xx_hal_dma.c ****     hdma->DMAmuxRequestGenStatusMask = 0U;
 239:Drivers/STM32G0xx_HAL_Driver/Src/stm32g0xx_hal_dma.c ****   }
 240:Drivers/STM32G0xx_HAL_Driver/Src/stm32g0xx_hal_dma.c **** 
 241:Drivers/STM32G0xx_HAL_Driver/Src/stm32g0xx_hal_dma.c ****   /* Initialize the error code */
 242:Drivers/STM32G0xx_HAL_Driver/Src/stm32g0xx_hal_dma.c ****   hdma->ErrorCode = HAL_DMA_ERROR_NONE;
 243:Drivers/STM32G0xx_HAL_Driver/Src/stm32g0xx_hal_dma.c **** 
 244:Drivers/STM32G0xx_HAL_Driver/Src/stm32g0xx_hal_dma.c ****   /* Initialize the DMA state*/
 245:Drivers/STM32G0xx_HAL_Driver/Src/stm32g0xx_hal_dma.c ****   hdma->State = HAL_DMA_STATE_READY;
 246:Drivers/STM32G0xx_HAL_Driver/Src/stm32g0xx_hal_dma.c **** 
 247:Drivers/STM32G0xx_HAL_Driver/Src/stm32g0xx_hal_dma.c ****   /* Release Lock */
 248:Drivers/STM32G0xx_HAL_Driver/Src/stm32g0xx_hal_dma.c ****   __HAL_UNLOCK(hdma);
 249:Drivers/STM32G0xx_HAL_Driver/Src/stm32g0xx_hal_dma.c **** 
 250:Drivers/STM32G0xx_HAL_Driver/Src/stm32g0xx_hal_dma.c ****   return HAL_OK;
 251:Drivers/STM32G0xx_HAL_Driver/Src/stm32g0xx_hal_dma.c **** }
 252:Drivers/STM32G0xx_HAL_Driver/Src/stm32g0xx_hal_dma.c **** 
 253:Drivers/STM32G0xx_HAL_Driver/Src/stm32g0xx_hal_dma.c **** /**
 254:Drivers/STM32G0xx_HAL_Driver/Src/stm32g0xx_hal_dma.c ****   * @brief DeInitialize the DMA peripheral.
 255:Drivers/STM32G0xx_HAL_Driver/Src/stm32g0xx_hal_dma.c ****   * @param hdma Pointer to a DMA_HandleTypeDef structure that contains
 256:Drivers/STM32G0xx_HAL_Driver/Src/stm32g0xx_hal_dma.c ****   *             the configuration information for the specified DMA Channel.
 257:Drivers/STM32G0xx_HAL_Driver/Src/stm32g0xx_hal_dma.c ****   * @retval HAL status
 258:Drivers/STM32G0xx_HAL_Driver/Src/stm32g0xx_hal_dma.c ****   */
 259:Drivers/STM32G0xx_HAL_Driver/Src/stm32g0xx_hal_dma.c **** HAL_StatusTypeDef HAL_DMA_DeInit(DMA_HandleTypeDef *hdma)
 260:Drivers/STM32G0xx_HAL_Driver/Src/stm32g0xx_hal_dma.c **** {
ARM GAS  /tmp/ccbqyIjO.s 			page 6


 261:Drivers/STM32G0xx_HAL_Driver/Src/stm32g0xx_hal_dma.c ****   /* Check the DMA handle allocation */
 262:Drivers/STM32G0xx_HAL_Driver/Src/stm32g0xx_hal_dma.c ****   if (NULL == hdma)
 263:Drivers/STM32G0xx_HAL_Driver/Src/stm32g0xx_hal_dma.c ****   {
 264:Drivers/STM32G0xx_HAL_Driver/Src/stm32g0xx_hal_dma.c ****     return HAL_ERROR;
 265:Drivers/STM32G0xx_HAL_Driver/Src/stm32g0xx_hal_dma.c ****   }
 266:Drivers/STM32G0xx_HAL_Driver/Src/stm32g0xx_hal_dma.c **** 
 267:Drivers/STM32G0xx_HAL_Driver/Src/stm32g0xx_hal_dma.c ****   /* Check the parameters */
 268:Drivers/STM32G0xx_HAL_Driver/Src/stm32g0xx_hal_dma.c ****   assert_param(IS_DMA_ALL_INSTANCE(hdma->Instance));
 269:Drivers/STM32G0xx_HAL_Driver/Src/stm32g0xx_hal_dma.c **** 
 270:Drivers/STM32G0xx_HAL_Driver/Src/stm32g0xx_hal_dma.c ****   /* Disable the selected DMA Channelx */
 271:Drivers/STM32G0xx_HAL_Driver/Src/stm32g0xx_hal_dma.c ****   __HAL_DMA_DISABLE(hdma);
 272:Drivers/STM32G0xx_HAL_Driver/Src/stm32g0xx_hal_dma.c **** 
 273:Drivers/STM32G0xx_HAL_Driver/Src/stm32g0xx_hal_dma.c ****   /* Compute the channel index */
 274:Drivers/STM32G0xx_HAL_Driver/Src/stm32g0xx_hal_dma.c **** #if defined(DMA2)
 275:Drivers/STM32G0xx_HAL_Driver/Src/stm32g0xx_hal_dma.c ****   if ((uint32_t)(hdma->Instance) < (uint32_t)(DMA2_Channel1))
 276:Drivers/STM32G0xx_HAL_Driver/Src/stm32g0xx_hal_dma.c ****   {
 277:Drivers/STM32G0xx_HAL_Driver/Src/stm32g0xx_hal_dma.c ****     /* DMA1 */
 278:Drivers/STM32G0xx_HAL_Driver/Src/stm32g0xx_hal_dma.c ****     hdma->ChannelIndex = (((uint32_t)hdma->Instance - (uint32_t)DMA1_Channel1) / ((uint32_t)DMA1_Ch
 279:Drivers/STM32G0xx_HAL_Driver/Src/stm32g0xx_hal_dma.c ****     hdma->DmaBaseAddress = DMA1;
 280:Drivers/STM32G0xx_HAL_Driver/Src/stm32g0xx_hal_dma.c ****   }
 281:Drivers/STM32G0xx_HAL_Driver/Src/stm32g0xx_hal_dma.c ****   else
 282:Drivers/STM32G0xx_HAL_Driver/Src/stm32g0xx_hal_dma.c ****   {
 283:Drivers/STM32G0xx_HAL_Driver/Src/stm32g0xx_hal_dma.c ****     /* DMA2 */
 284:Drivers/STM32G0xx_HAL_Driver/Src/stm32g0xx_hal_dma.c ****     hdma->ChannelIndex = (((uint32_t)hdma->Instance - (uint32_t)DMA2_Channel1) / ((uint32_t)DMA2_Ch
 285:Drivers/STM32G0xx_HAL_Driver/Src/stm32g0xx_hal_dma.c ****     hdma->DmaBaseAddress = DMA2;
 286:Drivers/STM32G0xx_HAL_Driver/Src/stm32g0xx_hal_dma.c ****   }
 287:Drivers/STM32G0xx_HAL_Driver/Src/stm32g0xx_hal_dma.c **** #else
 288:Drivers/STM32G0xx_HAL_Driver/Src/stm32g0xx_hal_dma.c ****   hdma->ChannelIndex = (((uint32_t)hdma->Instance - (uint32_t)DMA1_Channel1) / ((uint32_t)DMA1_Chan
 289:Drivers/STM32G0xx_HAL_Driver/Src/stm32g0xx_hal_dma.c **** #endif /* DMA2 */
 290:Drivers/STM32G0xx_HAL_Driver/Src/stm32g0xx_hal_dma.c **** 
 291:Drivers/STM32G0xx_HAL_Driver/Src/stm32g0xx_hal_dma.c ****   /* Reset DMA Channel control register */
 292:Drivers/STM32G0xx_HAL_Driver/Src/stm32g0xx_hal_dma.c ****   hdma->Instance->CCR = 0U;
 293:Drivers/STM32G0xx_HAL_Driver/Src/stm32g0xx_hal_dma.c **** 
 294:Drivers/STM32G0xx_HAL_Driver/Src/stm32g0xx_hal_dma.c ****   /* Clear all flags */
 295:Drivers/STM32G0xx_HAL_Driver/Src/stm32g0xx_hal_dma.c **** #if defined(DMA2)
 296:Drivers/STM32G0xx_HAL_Driver/Src/stm32g0xx_hal_dma.c ****   hdma->DmaBaseAddress->IFCR = (DMA_ISR_GIF1 << (hdma->ChannelIndex & 0x1CU));
 297:Drivers/STM32G0xx_HAL_Driver/Src/stm32g0xx_hal_dma.c **** #else
 298:Drivers/STM32G0xx_HAL_Driver/Src/stm32g0xx_hal_dma.c ****   __HAL_DMA_CLEAR_FLAG(hdma, (DMA_FLAG_GI1 << (hdma->ChannelIndex & 0x1CU)));
 299:Drivers/STM32G0xx_HAL_Driver/Src/stm32g0xx_hal_dma.c **** #endif /* DMA2 */
 300:Drivers/STM32G0xx_HAL_Driver/Src/stm32g0xx_hal_dma.c **** 
 301:Drivers/STM32G0xx_HAL_Driver/Src/stm32g0xx_hal_dma.c ****   /* Initialize parameters for DMAMUX channel :
 302:Drivers/STM32G0xx_HAL_Driver/Src/stm32g0xx_hal_dma.c ****      DMAmuxChannel, DMAmuxChannelStatus and DMAmuxChannelStatusMask */
 303:Drivers/STM32G0xx_HAL_Driver/Src/stm32g0xx_hal_dma.c **** 
 304:Drivers/STM32G0xx_HAL_Driver/Src/stm32g0xx_hal_dma.c ****   DMA_CalcDMAMUXChannelBaseAndMask(hdma);
 305:Drivers/STM32G0xx_HAL_Driver/Src/stm32g0xx_hal_dma.c **** 
 306:Drivers/STM32G0xx_HAL_Driver/Src/stm32g0xx_hal_dma.c ****   /* Reset the DMAMUX channel that corresponds to the DMA channel */
 307:Drivers/STM32G0xx_HAL_Driver/Src/stm32g0xx_hal_dma.c ****   hdma->DMAmuxChannel->CCR = 0U;
 308:Drivers/STM32G0xx_HAL_Driver/Src/stm32g0xx_hal_dma.c **** 
 309:Drivers/STM32G0xx_HAL_Driver/Src/stm32g0xx_hal_dma.c ****   /* Clear the DMAMUX synchro overrun flag */
 310:Drivers/STM32G0xx_HAL_Driver/Src/stm32g0xx_hal_dma.c ****   hdma->DMAmuxChannelStatus->CFR = hdma->DMAmuxChannelStatusMask;
 311:Drivers/STM32G0xx_HAL_Driver/Src/stm32g0xx_hal_dma.c **** 
 312:Drivers/STM32G0xx_HAL_Driver/Src/stm32g0xx_hal_dma.c ****   /* Reset Request generator parameters if any */
 313:Drivers/STM32G0xx_HAL_Driver/Src/stm32g0xx_hal_dma.c ****   if (((hdma->Init.Request >  0UL) && (hdma->Init.Request <= DMA_REQUEST_GENERATOR3)))
 314:Drivers/STM32G0xx_HAL_Driver/Src/stm32g0xx_hal_dma.c ****   {
 315:Drivers/STM32G0xx_HAL_Driver/Src/stm32g0xx_hal_dma.c ****     /* Initialize parameters for DMAMUX request generator :
 316:Drivers/STM32G0xx_HAL_Driver/Src/stm32g0xx_hal_dma.c ****        DMAmuxRequestGen, DMAmuxRequestGenStatus and DMAmuxRequestGenStatusMask
 317:Drivers/STM32G0xx_HAL_Driver/Src/stm32g0xx_hal_dma.c ****     */
ARM GAS  /tmp/ccbqyIjO.s 			page 7


 318:Drivers/STM32G0xx_HAL_Driver/Src/stm32g0xx_hal_dma.c ****     DMA_CalcDMAMUXRequestGenBaseAndMask(hdma);
 319:Drivers/STM32G0xx_HAL_Driver/Src/stm32g0xx_hal_dma.c **** 
 320:Drivers/STM32G0xx_HAL_Driver/Src/stm32g0xx_hal_dma.c ****     /* Reset the DMAMUX request generator register*/
 321:Drivers/STM32G0xx_HAL_Driver/Src/stm32g0xx_hal_dma.c ****     hdma->DMAmuxRequestGen->RGCR = 0U;
 322:Drivers/STM32G0xx_HAL_Driver/Src/stm32g0xx_hal_dma.c **** 
 323:Drivers/STM32G0xx_HAL_Driver/Src/stm32g0xx_hal_dma.c ****     /* Clear the DMAMUX request generator overrun flag */
 324:Drivers/STM32G0xx_HAL_Driver/Src/stm32g0xx_hal_dma.c ****     hdma->DMAmuxRequestGenStatus->RGCFR = hdma->DMAmuxRequestGenStatusMask;
 325:Drivers/STM32G0xx_HAL_Driver/Src/stm32g0xx_hal_dma.c ****   }
 326:Drivers/STM32G0xx_HAL_Driver/Src/stm32g0xx_hal_dma.c **** 
 327:Drivers/STM32G0xx_HAL_Driver/Src/stm32g0xx_hal_dma.c ****   hdma->DMAmuxRequestGen = 0U;
 328:Drivers/STM32G0xx_HAL_Driver/Src/stm32g0xx_hal_dma.c ****   hdma->DMAmuxRequestGenStatus = 0U;
 329:Drivers/STM32G0xx_HAL_Driver/Src/stm32g0xx_hal_dma.c ****   hdma->DMAmuxRequestGenStatusMask = 0U;
 330:Drivers/STM32G0xx_HAL_Driver/Src/stm32g0xx_hal_dma.c **** 
 331:Drivers/STM32G0xx_HAL_Driver/Src/stm32g0xx_hal_dma.c ****   /* Clean callbacks */
 332:Drivers/STM32G0xx_HAL_Driver/Src/stm32g0xx_hal_dma.c ****   hdma->XferCpltCallback = NULL;
 333:Drivers/STM32G0xx_HAL_Driver/Src/stm32g0xx_hal_dma.c ****   hdma->XferHalfCpltCallback = NULL;
 334:Drivers/STM32G0xx_HAL_Driver/Src/stm32g0xx_hal_dma.c ****   hdma->XferErrorCallback = NULL;
 335:Drivers/STM32G0xx_HAL_Driver/Src/stm32g0xx_hal_dma.c ****   hdma->XferAbortCallback = NULL;
 336:Drivers/STM32G0xx_HAL_Driver/Src/stm32g0xx_hal_dma.c **** 
 337:Drivers/STM32G0xx_HAL_Driver/Src/stm32g0xx_hal_dma.c ****   /* Initialize the error code */
 338:Drivers/STM32G0xx_HAL_Driver/Src/stm32g0xx_hal_dma.c ****   hdma->ErrorCode = HAL_DMA_ERROR_NONE;
 339:Drivers/STM32G0xx_HAL_Driver/Src/stm32g0xx_hal_dma.c **** 
 340:Drivers/STM32G0xx_HAL_Driver/Src/stm32g0xx_hal_dma.c ****   /* Initialize the DMA state */
 341:Drivers/STM32G0xx_HAL_Driver/Src/stm32g0xx_hal_dma.c ****   hdma->State = HAL_DMA_STATE_RESET;
 342:Drivers/STM32G0xx_HAL_Driver/Src/stm32g0xx_hal_dma.c **** 
 343:Drivers/STM32G0xx_HAL_Driver/Src/stm32g0xx_hal_dma.c ****   /* Release Lock */
 344:Drivers/STM32G0xx_HAL_Driver/Src/stm32g0xx_hal_dma.c ****   __HAL_UNLOCK(hdma);
 345:Drivers/STM32G0xx_HAL_Driver/Src/stm32g0xx_hal_dma.c **** 
 346:Drivers/STM32G0xx_HAL_Driver/Src/stm32g0xx_hal_dma.c ****   return HAL_OK;
 347:Drivers/STM32G0xx_HAL_Driver/Src/stm32g0xx_hal_dma.c **** }
 348:Drivers/STM32G0xx_HAL_Driver/Src/stm32g0xx_hal_dma.c **** 
 349:Drivers/STM32G0xx_HAL_Driver/Src/stm32g0xx_hal_dma.c **** /**
 350:Drivers/STM32G0xx_HAL_Driver/Src/stm32g0xx_hal_dma.c ****   * @}
 351:Drivers/STM32G0xx_HAL_Driver/Src/stm32g0xx_hal_dma.c ****   */
 352:Drivers/STM32G0xx_HAL_Driver/Src/stm32g0xx_hal_dma.c **** 
 353:Drivers/STM32G0xx_HAL_Driver/Src/stm32g0xx_hal_dma.c **** /** @defgroup DMA_Exported_Functions_Group2 Input and Output operation functions
 354:Drivers/STM32G0xx_HAL_Driver/Src/stm32g0xx_hal_dma.c ****   *  @brief   Input and Output operation functions
 355:Drivers/STM32G0xx_HAL_Driver/Src/stm32g0xx_hal_dma.c ****   *
 356:Drivers/STM32G0xx_HAL_Driver/Src/stm32g0xx_hal_dma.c **** @verbatim
 357:Drivers/STM32G0xx_HAL_Driver/Src/stm32g0xx_hal_dma.c ****  ===============================================================================
 358:Drivers/STM32G0xx_HAL_Driver/Src/stm32g0xx_hal_dma.c ****                       #####  IO operation functions  #####
 359:Drivers/STM32G0xx_HAL_Driver/Src/stm32g0xx_hal_dma.c ****  ===============================================================================
 360:Drivers/STM32G0xx_HAL_Driver/Src/stm32g0xx_hal_dma.c ****     [..]  This section provides functions allowing to:
 361:Drivers/STM32G0xx_HAL_Driver/Src/stm32g0xx_hal_dma.c ****       (+) Configure the source, destination address and data length and Start DMA transfer
 362:Drivers/STM32G0xx_HAL_Driver/Src/stm32g0xx_hal_dma.c ****       (+) Configure the source, destination address and data length and
 363:Drivers/STM32G0xx_HAL_Driver/Src/stm32g0xx_hal_dma.c ****           Start DMA transfer with interrupt
 364:Drivers/STM32G0xx_HAL_Driver/Src/stm32g0xx_hal_dma.c ****       (+) Abort DMA transfer
 365:Drivers/STM32G0xx_HAL_Driver/Src/stm32g0xx_hal_dma.c ****       (+) Poll for transfer complete
 366:Drivers/STM32G0xx_HAL_Driver/Src/stm32g0xx_hal_dma.c ****       (+) Handle DMA interrupt request
 367:Drivers/STM32G0xx_HAL_Driver/Src/stm32g0xx_hal_dma.c ****       (+) Register and Unregister DMA callbacks
 368:Drivers/STM32G0xx_HAL_Driver/Src/stm32g0xx_hal_dma.c **** 
 369:Drivers/STM32G0xx_HAL_Driver/Src/stm32g0xx_hal_dma.c **** @endverbatim
 370:Drivers/STM32G0xx_HAL_Driver/Src/stm32g0xx_hal_dma.c ****   * @{
 371:Drivers/STM32G0xx_HAL_Driver/Src/stm32g0xx_hal_dma.c ****   */
 372:Drivers/STM32G0xx_HAL_Driver/Src/stm32g0xx_hal_dma.c **** 
 373:Drivers/STM32G0xx_HAL_Driver/Src/stm32g0xx_hal_dma.c **** /**
 374:Drivers/STM32G0xx_HAL_Driver/Src/stm32g0xx_hal_dma.c ****   * @brief Start the DMA Transfer.
ARM GAS  /tmp/ccbqyIjO.s 			page 8


 375:Drivers/STM32G0xx_HAL_Driver/Src/stm32g0xx_hal_dma.c ****   * @param hdma Pointer to a DMA_HandleTypeDef structure that contains
 376:Drivers/STM32G0xx_HAL_Driver/Src/stm32g0xx_hal_dma.c ****   *             the configuration information for the specified DMA Channel.
 377:Drivers/STM32G0xx_HAL_Driver/Src/stm32g0xx_hal_dma.c ****   * @param SrcAddress The source memory Buffer address
 378:Drivers/STM32G0xx_HAL_Driver/Src/stm32g0xx_hal_dma.c ****   * @param DstAddress The destination memory Buffer address
 379:Drivers/STM32G0xx_HAL_Driver/Src/stm32g0xx_hal_dma.c ****   * @param DataLength The length of data to be transferred from source to destination
 380:Drivers/STM32G0xx_HAL_Driver/Src/stm32g0xx_hal_dma.c ****   * @retval HAL status
 381:Drivers/STM32G0xx_HAL_Driver/Src/stm32g0xx_hal_dma.c ****   */
 382:Drivers/STM32G0xx_HAL_Driver/Src/stm32g0xx_hal_dma.c **** HAL_StatusTypeDef HAL_DMA_Start(DMA_HandleTypeDef *hdma, uint32_t SrcAddress, uint32_t DstAddress, 
 383:Drivers/STM32G0xx_HAL_Driver/Src/stm32g0xx_hal_dma.c **** {
 384:Drivers/STM32G0xx_HAL_Driver/Src/stm32g0xx_hal_dma.c ****   HAL_StatusTypeDef status = HAL_OK;
 385:Drivers/STM32G0xx_HAL_Driver/Src/stm32g0xx_hal_dma.c **** 
 386:Drivers/STM32G0xx_HAL_Driver/Src/stm32g0xx_hal_dma.c ****   /* Check the parameters */
 387:Drivers/STM32G0xx_HAL_Driver/Src/stm32g0xx_hal_dma.c ****   assert_param(IS_DMA_BUFFER_SIZE(DataLength));
 388:Drivers/STM32G0xx_HAL_Driver/Src/stm32g0xx_hal_dma.c **** 
 389:Drivers/STM32G0xx_HAL_Driver/Src/stm32g0xx_hal_dma.c ****   /* Process locked */
 390:Drivers/STM32G0xx_HAL_Driver/Src/stm32g0xx_hal_dma.c ****   __HAL_LOCK(hdma);
 391:Drivers/STM32G0xx_HAL_Driver/Src/stm32g0xx_hal_dma.c **** 
 392:Drivers/STM32G0xx_HAL_Driver/Src/stm32g0xx_hal_dma.c ****   if (hdma->State == HAL_DMA_STATE_READY)
 393:Drivers/STM32G0xx_HAL_Driver/Src/stm32g0xx_hal_dma.c ****   {
 394:Drivers/STM32G0xx_HAL_Driver/Src/stm32g0xx_hal_dma.c ****     /* Change DMA peripheral state */
 395:Drivers/STM32G0xx_HAL_Driver/Src/stm32g0xx_hal_dma.c ****     hdma->State = HAL_DMA_STATE_BUSY;
 396:Drivers/STM32G0xx_HAL_Driver/Src/stm32g0xx_hal_dma.c **** 
 397:Drivers/STM32G0xx_HAL_Driver/Src/stm32g0xx_hal_dma.c ****     /* Initialize the error code */
 398:Drivers/STM32G0xx_HAL_Driver/Src/stm32g0xx_hal_dma.c ****     hdma->ErrorCode = HAL_DMA_ERROR_NONE;
 399:Drivers/STM32G0xx_HAL_Driver/Src/stm32g0xx_hal_dma.c **** 
 400:Drivers/STM32G0xx_HAL_Driver/Src/stm32g0xx_hal_dma.c ****     /* Disable the peripheral */
 401:Drivers/STM32G0xx_HAL_Driver/Src/stm32g0xx_hal_dma.c ****     __HAL_DMA_DISABLE(hdma);
 402:Drivers/STM32G0xx_HAL_Driver/Src/stm32g0xx_hal_dma.c **** 
 403:Drivers/STM32G0xx_HAL_Driver/Src/stm32g0xx_hal_dma.c ****     /* Configure the source, destination address and the data length & clear flags*/
 404:Drivers/STM32G0xx_HAL_Driver/Src/stm32g0xx_hal_dma.c ****     DMA_SetConfig(hdma, SrcAddress, DstAddress, DataLength);
 405:Drivers/STM32G0xx_HAL_Driver/Src/stm32g0xx_hal_dma.c **** 
 406:Drivers/STM32G0xx_HAL_Driver/Src/stm32g0xx_hal_dma.c ****     /* Enable the Peripheral */
 407:Drivers/STM32G0xx_HAL_Driver/Src/stm32g0xx_hal_dma.c ****     __HAL_DMA_ENABLE(hdma);
 408:Drivers/STM32G0xx_HAL_Driver/Src/stm32g0xx_hal_dma.c ****   }
 409:Drivers/STM32G0xx_HAL_Driver/Src/stm32g0xx_hal_dma.c ****   else
 410:Drivers/STM32G0xx_HAL_Driver/Src/stm32g0xx_hal_dma.c ****   {
 411:Drivers/STM32G0xx_HAL_Driver/Src/stm32g0xx_hal_dma.c ****     /* Change the error code */
 412:Drivers/STM32G0xx_HAL_Driver/Src/stm32g0xx_hal_dma.c ****     hdma->ErrorCode = HAL_DMA_ERROR_BUSY;
 413:Drivers/STM32G0xx_HAL_Driver/Src/stm32g0xx_hal_dma.c **** 
 414:Drivers/STM32G0xx_HAL_Driver/Src/stm32g0xx_hal_dma.c ****     /* Process Unlocked */
 415:Drivers/STM32G0xx_HAL_Driver/Src/stm32g0xx_hal_dma.c ****     __HAL_UNLOCK(hdma);
 416:Drivers/STM32G0xx_HAL_Driver/Src/stm32g0xx_hal_dma.c **** 
 417:Drivers/STM32G0xx_HAL_Driver/Src/stm32g0xx_hal_dma.c ****     /* Return error status */
 418:Drivers/STM32G0xx_HAL_Driver/Src/stm32g0xx_hal_dma.c ****     status = HAL_ERROR;
 419:Drivers/STM32G0xx_HAL_Driver/Src/stm32g0xx_hal_dma.c ****   }
 420:Drivers/STM32G0xx_HAL_Driver/Src/stm32g0xx_hal_dma.c **** 
 421:Drivers/STM32G0xx_HAL_Driver/Src/stm32g0xx_hal_dma.c ****   return status;
 422:Drivers/STM32G0xx_HAL_Driver/Src/stm32g0xx_hal_dma.c **** }
 423:Drivers/STM32G0xx_HAL_Driver/Src/stm32g0xx_hal_dma.c **** 
 424:Drivers/STM32G0xx_HAL_Driver/Src/stm32g0xx_hal_dma.c **** /**
 425:Drivers/STM32G0xx_HAL_Driver/Src/stm32g0xx_hal_dma.c ****   * @brief Start the DMA Transfer with interrupt enabled.
 426:Drivers/STM32G0xx_HAL_Driver/Src/stm32g0xx_hal_dma.c ****   * @param hdma Pointer to a DMA_HandleTypeDef structure that contains
 427:Drivers/STM32G0xx_HAL_Driver/Src/stm32g0xx_hal_dma.c ****   *             the configuration information for the specified DMA Channel.
 428:Drivers/STM32G0xx_HAL_Driver/Src/stm32g0xx_hal_dma.c ****   * @param SrcAddress The source memory Buffer address
 429:Drivers/STM32G0xx_HAL_Driver/Src/stm32g0xx_hal_dma.c ****   * @param DstAddress The destination memory Buffer address
 430:Drivers/STM32G0xx_HAL_Driver/Src/stm32g0xx_hal_dma.c ****   * @param DataLength The length of data to be transferred from source to destination
 431:Drivers/STM32G0xx_HAL_Driver/Src/stm32g0xx_hal_dma.c ****   * @retval HAL status
ARM GAS  /tmp/ccbqyIjO.s 			page 9


 432:Drivers/STM32G0xx_HAL_Driver/Src/stm32g0xx_hal_dma.c ****   */
 433:Drivers/STM32G0xx_HAL_Driver/Src/stm32g0xx_hal_dma.c **** HAL_StatusTypeDef HAL_DMA_Start_IT(DMA_HandleTypeDef *hdma, uint32_t SrcAddress, uint32_t DstAddres
 434:Drivers/STM32G0xx_HAL_Driver/Src/stm32g0xx_hal_dma.c ****                                    uint32_t DataLength)
 435:Drivers/STM32G0xx_HAL_Driver/Src/stm32g0xx_hal_dma.c **** {
 436:Drivers/STM32G0xx_HAL_Driver/Src/stm32g0xx_hal_dma.c ****   HAL_StatusTypeDef status = HAL_OK;
 437:Drivers/STM32G0xx_HAL_Driver/Src/stm32g0xx_hal_dma.c **** 
 438:Drivers/STM32G0xx_HAL_Driver/Src/stm32g0xx_hal_dma.c ****   /* Check the parameters */
 439:Drivers/STM32G0xx_HAL_Driver/Src/stm32g0xx_hal_dma.c ****   assert_param(IS_DMA_BUFFER_SIZE(DataLength));
 440:Drivers/STM32G0xx_HAL_Driver/Src/stm32g0xx_hal_dma.c **** 
 441:Drivers/STM32G0xx_HAL_Driver/Src/stm32g0xx_hal_dma.c ****   /* Process locked */
 442:Drivers/STM32G0xx_HAL_Driver/Src/stm32g0xx_hal_dma.c ****   __HAL_LOCK(hdma);
 443:Drivers/STM32G0xx_HAL_Driver/Src/stm32g0xx_hal_dma.c **** 
 444:Drivers/STM32G0xx_HAL_Driver/Src/stm32g0xx_hal_dma.c ****   if (hdma->State == HAL_DMA_STATE_READY)
 445:Drivers/STM32G0xx_HAL_Driver/Src/stm32g0xx_hal_dma.c ****   {
 446:Drivers/STM32G0xx_HAL_Driver/Src/stm32g0xx_hal_dma.c ****     /* Change DMA peripheral state */
 447:Drivers/STM32G0xx_HAL_Driver/Src/stm32g0xx_hal_dma.c ****     hdma->State = HAL_DMA_STATE_BUSY;
 448:Drivers/STM32G0xx_HAL_Driver/Src/stm32g0xx_hal_dma.c ****     hdma->ErrorCode = HAL_DMA_ERROR_NONE;
 449:Drivers/STM32G0xx_HAL_Driver/Src/stm32g0xx_hal_dma.c **** 
 450:Drivers/STM32G0xx_HAL_Driver/Src/stm32g0xx_hal_dma.c ****     /* Disable the peripheral */
 451:Drivers/STM32G0xx_HAL_Driver/Src/stm32g0xx_hal_dma.c ****     __HAL_DMA_DISABLE(hdma);
 452:Drivers/STM32G0xx_HAL_Driver/Src/stm32g0xx_hal_dma.c **** 
 453:Drivers/STM32G0xx_HAL_Driver/Src/stm32g0xx_hal_dma.c ****     /* Configure the source, destination address and the data length & clear flags*/
 454:Drivers/STM32G0xx_HAL_Driver/Src/stm32g0xx_hal_dma.c ****     DMA_SetConfig(hdma, SrcAddress, DstAddress, DataLength);
 455:Drivers/STM32G0xx_HAL_Driver/Src/stm32g0xx_hal_dma.c **** 
 456:Drivers/STM32G0xx_HAL_Driver/Src/stm32g0xx_hal_dma.c ****     /* Enable the transfer complete interrupt */
 457:Drivers/STM32G0xx_HAL_Driver/Src/stm32g0xx_hal_dma.c ****     /* Enable the transfer Error interrupt */
 458:Drivers/STM32G0xx_HAL_Driver/Src/stm32g0xx_hal_dma.c ****     if (NULL != hdma->XferHalfCpltCallback)
 459:Drivers/STM32G0xx_HAL_Driver/Src/stm32g0xx_hal_dma.c ****     {
 460:Drivers/STM32G0xx_HAL_Driver/Src/stm32g0xx_hal_dma.c ****       /* Enable the Half transfer complete interrupt as well */
 461:Drivers/STM32G0xx_HAL_Driver/Src/stm32g0xx_hal_dma.c ****       __HAL_DMA_ENABLE_IT(hdma, (DMA_IT_TC | DMA_IT_HT | DMA_IT_TE));
 462:Drivers/STM32G0xx_HAL_Driver/Src/stm32g0xx_hal_dma.c ****     }
 463:Drivers/STM32G0xx_HAL_Driver/Src/stm32g0xx_hal_dma.c ****     else
 464:Drivers/STM32G0xx_HAL_Driver/Src/stm32g0xx_hal_dma.c ****     {
 465:Drivers/STM32G0xx_HAL_Driver/Src/stm32g0xx_hal_dma.c ****       __HAL_DMA_DISABLE_IT(hdma, DMA_IT_HT);
 466:Drivers/STM32G0xx_HAL_Driver/Src/stm32g0xx_hal_dma.c ****       __HAL_DMA_ENABLE_IT(hdma, (DMA_IT_TC | DMA_IT_TE));
 467:Drivers/STM32G0xx_HAL_Driver/Src/stm32g0xx_hal_dma.c ****     }
 468:Drivers/STM32G0xx_HAL_Driver/Src/stm32g0xx_hal_dma.c **** 
 469:Drivers/STM32G0xx_HAL_Driver/Src/stm32g0xx_hal_dma.c ****     /* Check if DMAMUX Synchronization is enabled*/
 470:Drivers/STM32G0xx_HAL_Driver/Src/stm32g0xx_hal_dma.c ****     if ((hdma->DMAmuxChannel->CCR & DMAMUX_CxCR_SE) != 0U)
 471:Drivers/STM32G0xx_HAL_Driver/Src/stm32g0xx_hal_dma.c ****     {
 472:Drivers/STM32G0xx_HAL_Driver/Src/stm32g0xx_hal_dma.c ****       /* Enable DMAMUX sync overrun IT*/
 473:Drivers/STM32G0xx_HAL_Driver/Src/stm32g0xx_hal_dma.c ****       hdma->DMAmuxChannel->CCR |= DMAMUX_CxCR_SOIE;
 474:Drivers/STM32G0xx_HAL_Driver/Src/stm32g0xx_hal_dma.c ****     }
 475:Drivers/STM32G0xx_HAL_Driver/Src/stm32g0xx_hal_dma.c **** 
 476:Drivers/STM32G0xx_HAL_Driver/Src/stm32g0xx_hal_dma.c ****     if (hdma->DMAmuxRequestGen != 0U)
 477:Drivers/STM32G0xx_HAL_Driver/Src/stm32g0xx_hal_dma.c ****     {
 478:Drivers/STM32G0xx_HAL_Driver/Src/stm32g0xx_hal_dma.c ****       /* if using DMAMUX request generator, enable the DMAMUX request generator overrun IT*/
 479:Drivers/STM32G0xx_HAL_Driver/Src/stm32g0xx_hal_dma.c ****       /* enable the request gen overrun IT*/
 480:Drivers/STM32G0xx_HAL_Driver/Src/stm32g0xx_hal_dma.c ****       hdma->DMAmuxRequestGen->RGCR |= DMAMUX_RGxCR_OIE;
 481:Drivers/STM32G0xx_HAL_Driver/Src/stm32g0xx_hal_dma.c ****     }
 482:Drivers/STM32G0xx_HAL_Driver/Src/stm32g0xx_hal_dma.c **** 
 483:Drivers/STM32G0xx_HAL_Driver/Src/stm32g0xx_hal_dma.c ****     /* Enable the Peripheral */
 484:Drivers/STM32G0xx_HAL_Driver/Src/stm32g0xx_hal_dma.c ****     __HAL_DMA_ENABLE(hdma);
 485:Drivers/STM32G0xx_HAL_Driver/Src/stm32g0xx_hal_dma.c ****   }
 486:Drivers/STM32G0xx_HAL_Driver/Src/stm32g0xx_hal_dma.c ****   else
 487:Drivers/STM32G0xx_HAL_Driver/Src/stm32g0xx_hal_dma.c ****   {
 488:Drivers/STM32G0xx_HAL_Driver/Src/stm32g0xx_hal_dma.c ****     /* Change the error code */
ARM GAS  /tmp/ccbqyIjO.s 			page 10


 489:Drivers/STM32G0xx_HAL_Driver/Src/stm32g0xx_hal_dma.c ****     hdma->ErrorCode = HAL_DMA_ERROR_BUSY;
 490:Drivers/STM32G0xx_HAL_Driver/Src/stm32g0xx_hal_dma.c **** 
 491:Drivers/STM32G0xx_HAL_Driver/Src/stm32g0xx_hal_dma.c ****     /* Process Unlocked */
 492:Drivers/STM32G0xx_HAL_Driver/Src/stm32g0xx_hal_dma.c ****     __HAL_UNLOCK(hdma);
 493:Drivers/STM32G0xx_HAL_Driver/Src/stm32g0xx_hal_dma.c **** 
 494:Drivers/STM32G0xx_HAL_Driver/Src/stm32g0xx_hal_dma.c ****     /* Return error status */
 495:Drivers/STM32G0xx_HAL_Driver/Src/stm32g0xx_hal_dma.c ****     status = HAL_ERROR;
 496:Drivers/STM32G0xx_HAL_Driver/Src/stm32g0xx_hal_dma.c ****   }
 497:Drivers/STM32G0xx_HAL_Driver/Src/stm32g0xx_hal_dma.c **** 
 498:Drivers/STM32G0xx_HAL_Driver/Src/stm32g0xx_hal_dma.c ****   return status;
 499:Drivers/STM32G0xx_HAL_Driver/Src/stm32g0xx_hal_dma.c **** }
 500:Drivers/STM32G0xx_HAL_Driver/Src/stm32g0xx_hal_dma.c **** 
 501:Drivers/STM32G0xx_HAL_Driver/Src/stm32g0xx_hal_dma.c **** /**
 502:Drivers/STM32G0xx_HAL_Driver/Src/stm32g0xx_hal_dma.c ****   * @brief Abort the DMA Transfer.
 503:Drivers/STM32G0xx_HAL_Driver/Src/stm32g0xx_hal_dma.c ****   * @param hdma Pointer to a DMA_HandleTypeDef structure that contains
 504:Drivers/STM32G0xx_HAL_Driver/Src/stm32g0xx_hal_dma.c ****   *             the configuration information for the specified DMA Channel.
 505:Drivers/STM32G0xx_HAL_Driver/Src/stm32g0xx_hal_dma.c ****   * @retval HAL status
 506:Drivers/STM32G0xx_HAL_Driver/Src/stm32g0xx_hal_dma.c ****   */
 507:Drivers/STM32G0xx_HAL_Driver/Src/stm32g0xx_hal_dma.c **** HAL_StatusTypeDef HAL_DMA_Abort(DMA_HandleTypeDef *hdma)
 508:Drivers/STM32G0xx_HAL_Driver/Src/stm32g0xx_hal_dma.c **** {
 509:Drivers/STM32G0xx_HAL_Driver/Src/stm32g0xx_hal_dma.c ****   /* Check the DMA peripheral handle */
 510:Drivers/STM32G0xx_HAL_Driver/Src/stm32g0xx_hal_dma.c ****   if (NULL == hdma)
 511:Drivers/STM32G0xx_HAL_Driver/Src/stm32g0xx_hal_dma.c ****   {
 512:Drivers/STM32G0xx_HAL_Driver/Src/stm32g0xx_hal_dma.c ****     return HAL_ERROR;
 513:Drivers/STM32G0xx_HAL_Driver/Src/stm32g0xx_hal_dma.c ****   }
 514:Drivers/STM32G0xx_HAL_Driver/Src/stm32g0xx_hal_dma.c **** 
 515:Drivers/STM32G0xx_HAL_Driver/Src/stm32g0xx_hal_dma.c ****   /* Check the DMA peripheral state */
 516:Drivers/STM32G0xx_HAL_Driver/Src/stm32g0xx_hal_dma.c ****   if (hdma->State != HAL_DMA_STATE_BUSY)
 517:Drivers/STM32G0xx_HAL_Driver/Src/stm32g0xx_hal_dma.c ****   {
 518:Drivers/STM32G0xx_HAL_Driver/Src/stm32g0xx_hal_dma.c ****     hdma->ErrorCode = HAL_DMA_ERROR_NO_XFER;
 519:Drivers/STM32G0xx_HAL_Driver/Src/stm32g0xx_hal_dma.c **** 
 520:Drivers/STM32G0xx_HAL_Driver/Src/stm32g0xx_hal_dma.c ****     /* Process Unlocked */
 521:Drivers/STM32G0xx_HAL_Driver/Src/stm32g0xx_hal_dma.c ****     __HAL_UNLOCK(hdma);
 522:Drivers/STM32G0xx_HAL_Driver/Src/stm32g0xx_hal_dma.c **** 
 523:Drivers/STM32G0xx_HAL_Driver/Src/stm32g0xx_hal_dma.c ****     return HAL_ERROR;
 524:Drivers/STM32G0xx_HAL_Driver/Src/stm32g0xx_hal_dma.c ****   }
 525:Drivers/STM32G0xx_HAL_Driver/Src/stm32g0xx_hal_dma.c ****   else
 526:Drivers/STM32G0xx_HAL_Driver/Src/stm32g0xx_hal_dma.c ****   {
 527:Drivers/STM32G0xx_HAL_Driver/Src/stm32g0xx_hal_dma.c ****     /* Disable DMA IT */
 528:Drivers/STM32G0xx_HAL_Driver/Src/stm32g0xx_hal_dma.c ****     __HAL_DMA_DISABLE_IT(hdma, (DMA_IT_TC | DMA_IT_HT | DMA_IT_TE));
 529:Drivers/STM32G0xx_HAL_Driver/Src/stm32g0xx_hal_dma.c **** 
 530:Drivers/STM32G0xx_HAL_Driver/Src/stm32g0xx_hal_dma.c ****     /* disable the DMAMUX sync overrun IT*/
 531:Drivers/STM32G0xx_HAL_Driver/Src/stm32g0xx_hal_dma.c ****     hdma->DMAmuxChannel->CCR &= ~DMAMUX_CxCR_SOIE;
 532:Drivers/STM32G0xx_HAL_Driver/Src/stm32g0xx_hal_dma.c **** 
 533:Drivers/STM32G0xx_HAL_Driver/Src/stm32g0xx_hal_dma.c ****     /* Disable the channel */
 534:Drivers/STM32G0xx_HAL_Driver/Src/stm32g0xx_hal_dma.c ****     __HAL_DMA_DISABLE(hdma);
 535:Drivers/STM32G0xx_HAL_Driver/Src/stm32g0xx_hal_dma.c **** 
 536:Drivers/STM32G0xx_HAL_Driver/Src/stm32g0xx_hal_dma.c ****     /* Clear all flags */
 537:Drivers/STM32G0xx_HAL_Driver/Src/stm32g0xx_hal_dma.c **** #if defined(DMA2)
 538:Drivers/STM32G0xx_HAL_Driver/Src/stm32g0xx_hal_dma.c ****     hdma->DmaBaseAddress->IFCR = (DMA_ISR_GIF1 << (hdma->ChannelIndex & 0x1CU));
 539:Drivers/STM32G0xx_HAL_Driver/Src/stm32g0xx_hal_dma.c **** #else
 540:Drivers/STM32G0xx_HAL_Driver/Src/stm32g0xx_hal_dma.c ****     __HAL_DMA_CLEAR_FLAG(hdma, ((DMA_FLAG_GI1) << (hdma->ChannelIndex  & 0x1CU)));
 541:Drivers/STM32G0xx_HAL_Driver/Src/stm32g0xx_hal_dma.c **** #endif /* DMA2 */
 542:Drivers/STM32G0xx_HAL_Driver/Src/stm32g0xx_hal_dma.c **** 
 543:Drivers/STM32G0xx_HAL_Driver/Src/stm32g0xx_hal_dma.c ****     /* Clear the DMAMUX synchro overrun flag */
 544:Drivers/STM32G0xx_HAL_Driver/Src/stm32g0xx_hal_dma.c ****     hdma->DMAmuxChannelStatus->CFR = hdma->DMAmuxChannelStatusMask;
 545:Drivers/STM32G0xx_HAL_Driver/Src/stm32g0xx_hal_dma.c **** 
ARM GAS  /tmp/ccbqyIjO.s 			page 11


 546:Drivers/STM32G0xx_HAL_Driver/Src/stm32g0xx_hal_dma.c ****     if (hdma->DMAmuxRequestGen != 0U)
 547:Drivers/STM32G0xx_HAL_Driver/Src/stm32g0xx_hal_dma.c ****     {
 548:Drivers/STM32G0xx_HAL_Driver/Src/stm32g0xx_hal_dma.c ****       /* if using DMAMUX request generator, disable the DMAMUX request generator overrun IT*/
 549:Drivers/STM32G0xx_HAL_Driver/Src/stm32g0xx_hal_dma.c ****       /* disable the request gen overrun IT*/
 550:Drivers/STM32G0xx_HAL_Driver/Src/stm32g0xx_hal_dma.c ****       hdma->DMAmuxRequestGen->RGCR &= ~DMAMUX_RGxCR_OIE;
 551:Drivers/STM32G0xx_HAL_Driver/Src/stm32g0xx_hal_dma.c **** 
 552:Drivers/STM32G0xx_HAL_Driver/Src/stm32g0xx_hal_dma.c ****       /* Clear the DMAMUX request generator overrun flag */
 553:Drivers/STM32G0xx_HAL_Driver/Src/stm32g0xx_hal_dma.c ****       hdma->DMAmuxRequestGenStatus->RGCFR = hdma->DMAmuxRequestGenStatusMask;
 554:Drivers/STM32G0xx_HAL_Driver/Src/stm32g0xx_hal_dma.c ****     }
 555:Drivers/STM32G0xx_HAL_Driver/Src/stm32g0xx_hal_dma.c **** 
 556:Drivers/STM32G0xx_HAL_Driver/Src/stm32g0xx_hal_dma.c ****     /* Change the DMA state */
 557:Drivers/STM32G0xx_HAL_Driver/Src/stm32g0xx_hal_dma.c ****     hdma->State = HAL_DMA_STATE_READY;
 558:Drivers/STM32G0xx_HAL_Driver/Src/stm32g0xx_hal_dma.c **** 
 559:Drivers/STM32G0xx_HAL_Driver/Src/stm32g0xx_hal_dma.c ****     /* Process Unlocked */
 560:Drivers/STM32G0xx_HAL_Driver/Src/stm32g0xx_hal_dma.c ****     __HAL_UNLOCK(hdma);
 561:Drivers/STM32G0xx_HAL_Driver/Src/stm32g0xx_hal_dma.c ****   }
 562:Drivers/STM32G0xx_HAL_Driver/Src/stm32g0xx_hal_dma.c **** 
 563:Drivers/STM32G0xx_HAL_Driver/Src/stm32g0xx_hal_dma.c ****   return HAL_OK;
 564:Drivers/STM32G0xx_HAL_Driver/Src/stm32g0xx_hal_dma.c **** }
 565:Drivers/STM32G0xx_HAL_Driver/Src/stm32g0xx_hal_dma.c **** 
 566:Drivers/STM32G0xx_HAL_Driver/Src/stm32g0xx_hal_dma.c **** /**
 567:Drivers/STM32G0xx_HAL_Driver/Src/stm32g0xx_hal_dma.c ****   * @brief Aborts the DMA Transfer in Interrupt mode.
 568:Drivers/STM32G0xx_HAL_Driver/Src/stm32g0xx_hal_dma.c ****   * @param hdma Pointer to a DMA_HandleTypeDef structure that contains
 569:Drivers/STM32G0xx_HAL_Driver/Src/stm32g0xx_hal_dma.c ****   *             the configuration information for the specified DMA Channel.
 570:Drivers/STM32G0xx_HAL_Driver/Src/stm32g0xx_hal_dma.c ****   * @retval HAL status
 571:Drivers/STM32G0xx_HAL_Driver/Src/stm32g0xx_hal_dma.c ****   */
 572:Drivers/STM32G0xx_HAL_Driver/Src/stm32g0xx_hal_dma.c **** HAL_StatusTypeDef HAL_DMA_Abort_IT(DMA_HandleTypeDef *hdma)
 573:Drivers/STM32G0xx_HAL_Driver/Src/stm32g0xx_hal_dma.c **** {
 574:Drivers/STM32G0xx_HAL_Driver/Src/stm32g0xx_hal_dma.c ****   HAL_StatusTypeDef status = HAL_OK;
 575:Drivers/STM32G0xx_HAL_Driver/Src/stm32g0xx_hal_dma.c **** 
 576:Drivers/STM32G0xx_HAL_Driver/Src/stm32g0xx_hal_dma.c ****   if (hdma->State != HAL_DMA_STATE_BUSY)
 577:Drivers/STM32G0xx_HAL_Driver/Src/stm32g0xx_hal_dma.c ****   {
 578:Drivers/STM32G0xx_HAL_Driver/Src/stm32g0xx_hal_dma.c ****     /* no transfer ongoing */
 579:Drivers/STM32G0xx_HAL_Driver/Src/stm32g0xx_hal_dma.c ****     hdma->ErrorCode = HAL_DMA_ERROR_NO_XFER;
 580:Drivers/STM32G0xx_HAL_Driver/Src/stm32g0xx_hal_dma.c **** 
 581:Drivers/STM32G0xx_HAL_Driver/Src/stm32g0xx_hal_dma.c ****     status = HAL_ERROR;
 582:Drivers/STM32G0xx_HAL_Driver/Src/stm32g0xx_hal_dma.c ****   }
 583:Drivers/STM32G0xx_HAL_Driver/Src/stm32g0xx_hal_dma.c ****   else
 584:Drivers/STM32G0xx_HAL_Driver/Src/stm32g0xx_hal_dma.c ****   {
 585:Drivers/STM32G0xx_HAL_Driver/Src/stm32g0xx_hal_dma.c ****     /* Disable DMA IT */
 586:Drivers/STM32G0xx_HAL_Driver/Src/stm32g0xx_hal_dma.c ****     __HAL_DMA_DISABLE_IT(hdma, (DMA_IT_TC | DMA_IT_HT | DMA_IT_TE));
 587:Drivers/STM32G0xx_HAL_Driver/Src/stm32g0xx_hal_dma.c **** 
 588:Drivers/STM32G0xx_HAL_Driver/Src/stm32g0xx_hal_dma.c ****     /* Disable the channel */
 589:Drivers/STM32G0xx_HAL_Driver/Src/stm32g0xx_hal_dma.c ****     __HAL_DMA_DISABLE(hdma);
 590:Drivers/STM32G0xx_HAL_Driver/Src/stm32g0xx_hal_dma.c **** 
 591:Drivers/STM32G0xx_HAL_Driver/Src/stm32g0xx_hal_dma.c ****     /* disable the DMAMUX sync overrun IT*/
 592:Drivers/STM32G0xx_HAL_Driver/Src/stm32g0xx_hal_dma.c ****     hdma->DMAmuxChannel->CCR &= ~DMAMUX_CxCR_SOIE;
 593:Drivers/STM32G0xx_HAL_Driver/Src/stm32g0xx_hal_dma.c **** 
 594:Drivers/STM32G0xx_HAL_Driver/Src/stm32g0xx_hal_dma.c ****     /* Clear all flags */
 595:Drivers/STM32G0xx_HAL_Driver/Src/stm32g0xx_hal_dma.c **** #if defined(DMA2)
 596:Drivers/STM32G0xx_HAL_Driver/Src/stm32g0xx_hal_dma.c ****     hdma->DmaBaseAddress->IFCR = (DMA_ISR_GIF1 << (hdma->ChannelIndex & 0x1CU));
 597:Drivers/STM32G0xx_HAL_Driver/Src/stm32g0xx_hal_dma.c **** #else
 598:Drivers/STM32G0xx_HAL_Driver/Src/stm32g0xx_hal_dma.c ****     __HAL_DMA_CLEAR_FLAG(hdma, ((DMA_FLAG_GI1) << (hdma->ChannelIndex & 0x1CU)));
 599:Drivers/STM32G0xx_HAL_Driver/Src/stm32g0xx_hal_dma.c **** #endif /* DMA2 */
 600:Drivers/STM32G0xx_HAL_Driver/Src/stm32g0xx_hal_dma.c **** 
 601:Drivers/STM32G0xx_HAL_Driver/Src/stm32g0xx_hal_dma.c ****     /* Clear the DMAMUX synchro overrun flag */
 602:Drivers/STM32G0xx_HAL_Driver/Src/stm32g0xx_hal_dma.c ****     hdma->DMAmuxChannelStatus->CFR = hdma->DMAmuxChannelStatusMask;
ARM GAS  /tmp/ccbqyIjO.s 			page 12


 603:Drivers/STM32G0xx_HAL_Driver/Src/stm32g0xx_hal_dma.c **** 
 604:Drivers/STM32G0xx_HAL_Driver/Src/stm32g0xx_hal_dma.c ****     if (hdma->DMAmuxRequestGen != 0U)
 605:Drivers/STM32G0xx_HAL_Driver/Src/stm32g0xx_hal_dma.c ****     {
 606:Drivers/STM32G0xx_HAL_Driver/Src/stm32g0xx_hal_dma.c ****       /* if using DMAMUX request generator, disable the DMAMUX request generator overrun IT*/
 607:Drivers/STM32G0xx_HAL_Driver/Src/stm32g0xx_hal_dma.c ****       /* disable the request gen overrun IT*/
 608:Drivers/STM32G0xx_HAL_Driver/Src/stm32g0xx_hal_dma.c ****       hdma->DMAmuxRequestGen->RGCR &= ~DMAMUX_RGxCR_OIE;
 609:Drivers/STM32G0xx_HAL_Driver/Src/stm32g0xx_hal_dma.c **** 
 610:Drivers/STM32G0xx_HAL_Driver/Src/stm32g0xx_hal_dma.c ****       /* Clear the DMAMUX request generator overrun flag */
 611:Drivers/STM32G0xx_HAL_Driver/Src/stm32g0xx_hal_dma.c ****       hdma->DMAmuxRequestGenStatus->RGCFR = hdma->DMAmuxRequestGenStatusMask;
 612:Drivers/STM32G0xx_HAL_Driver/Src/stm32g0xx_hal_dma.c ****     }
 613:Drivers/STM32G0xx_HAL_Driver/Src/stm32g0xx_hal_dma.c **** 
 614:Drivers/STM32G0xx_HAL_Driver/Src/stm32g0xx_hal_dma.c ****     /* Change the DMA state */
 615:Drivers/STM32G0xx_HAL_Driver/Src/stm32g0xx_hal_dma.c ****     hdma->State = HAL_DMA_STATE_READY;
 616:Drivers/STM32G0xx_HAL_Driver/Src/stm32g0xx_hal_dma.c **** 
 617:Drivers/STM32G0xx_HAL_Driver/Src/stm32g0xx_hal_dma.c ****     /* Process Unlocked */
 618:Drivers/STM32G0xx_HAL_Driver/Src/stm32g0xx_hal_dma.c ****     __HAL_UNLOCK(hdma);
 619:Drivers/STM32G0xx_HAL_Driver/Src/stm32g0xx_hal_dma.c **** 
 620:Drivers/STM32G0xx_HAL_Driver/Src/stm32g0xx_hal_dma.c ****     /* Call User Abort callback */
 621:Drivers/STM32G0xx_HAL_Driver/Src/stm32g0xx_hal_dma.c ****     if (hdma->XferAbortCallback != NULL)
 622:Drivers/STM32G0xx_HAL_Driver/Src/stm32g0xx_hal_dma.c ****     {
 623:Drivers/STM32G0xx_HAL_Driver/Src/stm32g0xx_hal_dma.c ****       hdma->XferAbortCallback(hdma);
 624:Drivers/STM32G0xx_HAL_Driver/Src/stm32g0xx_hal_dma.c ****     }
 625:Drivers/STM32G0xx_HAL_Driver/Src/stm32g0xx_hal_dma.c ****   }
 626:Drivers/STM32G0xx_HAL_Driver/Src/stm32g0xx_hal_dma.c ****   return status;
 627:Drivers/STM32G0xx_HAL_Driver/Src/stm32g0xx_hal_dma.c **** }
 628:Drivers/STM32G0xx_HAL_Driver/Src/stm32g0xx_hal_dma.c **** 
 629:Drivers/STM32G0xx_HAL_Driver/Src/stm32g0xx_hal_dma.c **** /**
 630:Drivers/STM32G0xx_HAL_Driver/Src/stm32g0xx_hal_dma.c ****   * @brief Polling for transfer complete.
 631:Drivers/STM32G0xx_HAL_Driver/Src/stm32g0xx_hal_dma.c ****   * @param hdma Pointer to a DMA_HandleTypeDef structure that contains
 632:Drivers/STM32G0xx_HAL_Driver/Src/stm32g0xx_hal_dma.c ****   *             the configuration information for the specified DMA Channel.
 633:Drivers/STM32G0xx_HAL_Driver/Src/stm32g0xx_hal_dma.c ****   * @param CompleteLevel Specifies the DMA level complete.
 634:Drivers/STM32G0xx_HAL_Driver/Src/stm32g0xx_hal_dma.c ****   * @param Timeout Timeout duration.
 635:Drivers/STM32G0xx_HAL_Driver/Src/stm32g0xx_hal_dma.c ****   * @retval HAL status
 636:Drivers/STM32G0xx_HAL_Driver/Src/stm32g0xx_hal_dma.c ****   */
 637:Drivers/STM32G0xx_HAL_Driver/Src/stm32g0xx_hal_dma.c **** HAL_StatusTypeDef HAL_DMA_PollForTransfer(DMA_HandleTypeDef *hdma, HAL_DMA_LevelCompleteTypeDef Com
 638:Drivers/STM32G0xx_HAL_Driver/Src/stm32g0xx_hal_dma.c ****                                           uint32_t Timeout)
 639:Drivers/STM32G0xx_HAL_Driver/Src/stm32g0xx_hal_dma.c **** {
 640:Drivers/STM32G0xx_HAL_Driver/Src/stm32g0xx_hal_dma.c ****   uint32_t temp;
 641:Drivers/STM32G0xx_HAL_Driver/Src/stm32g0xx_hal_dma.c ****   uint32_t tickstart;
 642:Drivers/STM32G0xx_HAL_Driver/Src/stm32g0xx_hal_dma.c **** 
 643:Drivers/STM32G0xx_HAL_Driver/Src/stm32g0xx_hal_dma.c ****   if (hdma->State != HAL_DMA_STATE_BUSY)
 644:Drivers/STM32G0xx_HAL_Driver/Src/stm32g0xx_hal_dma.c ****   {
 645:Drivers/STM32G0xx_HAL_Driver/Src/stm32g0xx_hal_dma.c ****     /* no transfer ongoing */
 646:Drivers/STM32G0xx_HAL_Driver/Src/stm32g0xx_hal_dma.c ****     hdma->ErrorCode = HAL_DMA_ERROR_NO_XFER;
 647:Drivers/STM32G0xx_HAL_Driver/Src/stm32g0xx_hal_dma.c ****     __HAL_UNLOCK(hdma);
 648:Drivers/STM32G0xx_HAL_Driver/Src/stm32g0xx_hal_dma.c ****     return HAL_ERROR;
 649:Drivers/STM32G0xx_HAL_Driver/Src/stm32g0xx_hal_dma.c ****   }
 650:Drivers/STM32G0xx_HAL_Driver/Src/stm32g0xx_hal_dma.c **** 
 651:Drivers/STM32G0xx_HAL_Driver/Src/stm32g0xx_hal_dma.c ****   /* Polling mode not supported in circular mode */
 652:Drivers/STM32G0xx_HAL_Driver/Src/stm32g0xx_hal_dma.c ****   if ((hdma->Instance->CCR & DMA_CCR_CIRC) != 0U)
 653:Drivers/STM32G0xx_HAL_Driver/Src/stm32g0xx_hal_dma.c ****   {
 654:Drivers/STM32G0xx_HAL_Driver/Src/stm32g0xx_hal_dma.c ****     hdma->ErrorCode = HAL_DMA_ERROR_NOT_SUPPORTED;
 655:Drivers/STM32G0xx_HAL_Driver/Src/stm32g0xx_hal_dma.c ****     return HAL_ERROR;
 656:Drivers/STM32G0xx_HAL_Driver/Src/stm32g0xx_hal_dma.c ****   }
 657:Drivers/STM32G0xx_HAL_Driver/Src/stm32g0xx_hal_dma.c **** 
 658:Drivers/STM32G0xx_HAL_Driver/Src/stm32g0xx_hal_dma.c ****   /* Get the level transfer complete flag */
 659:Drivers/STM32G0xx_HAL_Driver/Src/stm32g0xx_hal_dma.c ****   if (HAL_DMA_FULL_TRANSFER == CompleteLevel)
ARM GAS  /tmp/ccbqyIjO.s 			page 13


 660:Drivers/STM32G0xx_HAL_Driver/Src/stm32g0xx_hal_dma.c ****   {
 661:Drivers/STM32G0xx_HAL_Driver/Src/stm32g0xx_hal_dma.c ****     /* Transfer Complete flag */
 662:Drivers/STM32G0xx_HAL_Driver/Src/stm32g0xx_hal_dma.c ****     temp = DMA_FLAG_TC1 << (hdma->ChannelIndex & 0x1CU);
 663:Drivers/STM32G0xx_HAL_Driver/Src/stm32g0xx_hal_dma.c ****   }
 664:Drivers/STM32G0xx_HAL_Driver/Src/stm32g0xx_hal_dma.c ****   else
 665:Drivers/STM32G0xx_HAL_Driver/Src/stm32g0xx_hal_dma.c ****   {
 666:Drivers/STM32G0xx_HAL_Driver/Src/stm32g0xx_hal_dma.c ****     /* Half Transfer Complete flag */
 667:Drivers/STM32G0xx_HAL_Driver/Src/stm32g0xx_hal_dma.c ****     temp = DMA_FLAG_HT1 << (hdma->ChannelIndex & 0x1CU);
 668:Drivers/STM32G0xx_HAL_Driver/Src/stm32g0xx_hal_dma.c ****   }
 669:Drivers/STM32G0xx_HAL_Driver/Src/stm32g0xx_hal_dma.c **** 
 670:Drivers/STM32G0xx_HAL_Driver/Src/stm32g0xx_hal_dma.c ****   /* Get tick */
 671:Drivers/STM32G0xx_HAL_Driver/Src/stm32g0xx_hal_dma.c ****   tickstart = HAL_GetTick();
 672:Drivers/STM32G0xx_HAL_Driver/Src/stm32g0xx_hal_dma.c **** 
 673:Drivers/STM32G0xx_HAL_Driver/Src/stm32g0xx_hal_dma.c **** #if defined(DMA2)
 674:Drivers/STM32G0xx_HAL_Driver/Src/stm32g0xx_hal_dma.c ****   while ((hdma->DmaBaseAddress->ISR & temp) == 0U)
 675:Drivers/STM32G0xx_HAL_Driver/Src/stm32g0xx_hal_dma.c ****   {
 676:Drivers/STM32G0xx_HAL_Driver/Src/stm32g0xx_hal_dma.c ****     if ((hdma->DmaBaseAddress->ISR & (DMA_FLAG_TE1 << (hdma->ChannelIndex & 0x1CU))) != 0U)
 677:Drivers/STM32G0xx_HAL_Driver/Src/stm32g0xx_hal_dma.c ****     {
 678:Drivers/STM32G0xx_HAL_Driver/Src/stm32g0xx_hal_dma.c ****       /* When a DMA transfer error occurs */
 679:Drivers/STM32G0xx_HAL_Driver/Src/stm32g0xx_hal_dma.c ****       /* A hardware clear of its EN bits is performed */
 680:Drivers/STM32G0xx_HAL_Driver/Src/stm32g0xx_hal_dma.c ****       /* Clear all flags */
 681:Drivers/STM32G0xx_HAL_Driver/Src/stm32g0xx_hal_dma.c ****       hdma->DmaBaseAddress->IFCR = (DMA_ISR_GIF1 << (hdma->ChannelIndex & 0x1CU));
 682:Drivers/STM32G0xx_HAL_Driver/Src/stm32g0xx_hal_dma.c **** 
 683:Drivers/STM32G0xx_HAL_Driver/Src/stm32g0xx_hal_dma.c ****       /* Update error code */
 684:Drivers/STM32G0xx_HAL_Driver/Src/stm32g0xx_hal_dma.c ****       hdma->ErrorCode = HAL_DMA_ERROR_TE;
 685:Drivers/STM32G0xx_HAL_Driver/Src/stm32g0xx_hal_dma.c **** 
 686:Drivers/STM32G0xx_HAL_Driver/Src/stm32g0xx_hal_dma.c ****       /* Change the DMA state */
 687:Drivers/STM32G0xx_HAL_Driver/Src/stm32g0xx_hal_dma.c ****       hdma->State = HAL_DMA_STATE_READY;
 688:Drivers/STM32G0xx_HAL_Driver/Src/stm32g0xx_hal_dma.c **** 
 689:Drivers/STM32G0xx_HAL_Driver/Src/stm32g0xx_hal_dma.c ****       /* Process Unlocked */
 690:Drivers/STM32G0xx_HAL_Driver/Src/stm32g0xx_hal_dma.c ****       __HAL_UNLOCK(hdma);
 691:Drivers/STM32G0xx_HAL_Driver/Src/stm32g0xx_hal_dma.c **** 
 692:Drivers/STM32G0xx_HAL_Driver/Src/stm32g0xx_hal_dma.c ****       return HAL_ERROR;
 693:Drivers/STM32G0xx_HAL_Driver/Src/stm32g0xx_hal_dma.c ****     }
 694:Drivers/STM32G0xx_HAL_Driver/Src/stm32g0xx_hal_dma.c **** #else
 695:Drivers/STM32G0xx_HAL_Driver/Src/stm32g0xx_hal_dma.c ****   while (0U == __HAL_DMA_GET_FLAG(hdma, temp))
 696:Drivers/STM32G0xx_HAL_Driver/Src/stm32g0xx_hal_dma.c ****   {
 697:Drivers/STM32G0xx_HAL_Driver/Src/stm32g0xx_hal_dma.c ****     if (0U != __HAL_DMA_GET_FLAG(hdma, (DMA_FLAG_TE1 << (hdma->ChannelIndex & 0x1CU))))
 698:Drivers/STM32G0xx_HAL_Driver/Src/stm32g0xx_hal_dma.c ****     {
 699:Drivers/STM32G0xx_HAL_Driver/Src/stm32g0xx_hal_dma.c ****       /* When a DMA transfer error occurs */
 700:Drivers/STM32G0xx_HAL_Driver/Src/stm32g0xx_hal_dma.c ****       /* A hardware clear of its EN bits is performed */
 701:Drivers/STM32G0xx_HAL_Driver/Src/stm32g0xx_hal_dma.c ****       /* Clear all flags */
 702:Drivers/STM32G0xx_HAL_Driver/Src/stm32g0xx_hal_dma.c ****       __HAL_DMA_CLEAR_FLAG(hdma, ((DMA_FLAG_GI1) << (hdma->ChannelIndex & 0x1CU)));
 703:Drivers/STM32G0xx_HAL_Driver/Src/stm32g0xx_hal_dma.c **** 
 704:Drivers/STM32G0xx_HAL_Driver/Src/stm32g0xx_hal_dma.c ****       /* Update error code */
 705:Drivers/STM32G0xx_HAL_Driver/Src/stm32g0xx_hal_dma.c ****       hdma->ErrorCode = HAL_DMA_ERROR_TE;
 706:Drivers/STM32G0xx_HAL_Driver/Src/stm32g0xx_hal_dma.c **** 
 707:Drivers/STM32G0xx_HAL_Driver/Src/stm32g0xx_hal_dma.c ****       /* Change the DMA state */
 708:Drivers/STM32G0xx_HAL_Driver/Src/stm32g0xx_hal_dma.c ****       hdma->State = HAL_DMA_STATE_READY;
 709:Drivers/STM32G0xx_HAL_Driver/Src/stm32g0xx_hal_dma.c **** 
 710:Drivers/STM32G0xx_HAL_Driver/Src/stm32g0xx_hal_dma.c ****       /* Process Unlocked */
 711:Drivers/STM32G0xx_HAL_Driver/Src/stm32g0xx_hal_dma.c ****       __HAL_UNLOCK(hdma);
 712:Drivers/STM32G0xx_HAL_Driver/Src/stm32g0xx_hal_dma.c **** 
 713:Drivers/STM32G0xx_HAL_Driver/Src/stm32g0xx_hal_dma.c ****       return HAL_ERROR;
 714:Drivers/STM32G0xx_HAL_Driver/Src/stm32g0xx_hal_dma.c ****     }
 715:Drivers/STM32G0xx_HAL_Driver/Src/stm32g0xx_hal_dma.c **** #endif /* DMA2 */
 716:Drivers/STM32G0xx_HAL_Driver/Src/stm32g0xx_hal_dma.c ****     /* Check for the Timeout */
ARM GAS  /tmp/ccbqyIjO.s 			page 14


 717:Drivers/STM32G0xx_HAL_Driver/Src/stm32g0xx_hal_dma.c ****     if (Timeout != HAL_MAX_DELAY)
 718:Drivers/STM32G0xx_HAL_Driver/Src/stm32g0xx_hal_dma.c ****     {
 719:Drivers/STM32G0xx_HAL_Driver/Src/stm32g0xx_hal_dma.c ****       if (((HAL_GetTick() - tickstart) > Timeout) || (Timeout == 0U))
 720:Drivers/STM32G0xx_HAL_Driver/Src/stm32g0xx_hal_dma.c ****       {
 721:Drivers/STM32G0xx_HAL_Driver/Src/stm32g0xx_hal_dma.c ****         /* Update error code */
 722:Drivers/STM32G0xx_HAL_Driver/Src/stm32g0xx_hal_dma.c ****         hdma->ErrorCode = HAL_DMA_ERROR_TIMEOUT;
 723:Drivers/STM32G0xx_HAL_Driver/Src/stm32g0xx_hal_dma.c **** 
 724:Drivers/STM32G0xx_HAL_Driver/Src/stm32g0xx_hal_dma.c ****         /* Change the DMA state */
 725:Drivers/STM32G0xx_HAL_Driver/Src/stm32g0xx_hal_dma.c ****         hdma->State = HAL_DMA_STATE_READY;
 726:Drivers/STM32G0xx_HAL_Driver/Src/stm32g0xx_hal_dma.c **** 
 727:Drivers/STM32G0xx_HAL_Driver/Src/stm32g0xx_hal_dma.c ****         /* Process Unlocked */
 728:Drivers/STM32G0xx_HAL_Driver/Src/stm32g0xx_hal_dma.c ****         __HAL_UNLOCK(hdma);
 729:Drivers/STM32G0xx_HAL_Driver/Src/stm32g0xx_hal_dma.c **** 
 730:Drivers/STM32G0xx_HAL_Driver/Src/stm32g0xx_hal_dma.c ****         return HAL_ERROR;
 731:Drivers/STM32G0xx_HAL_Driver/Src/stm32g0xx_hal_dma.c ****       }
 732:Drivers/STM32G0xx_HAL_Driver/Src/stm32g0xx_hal_dma.c ****     }
 733:Drivers/STM32G0xx_HAL_Driver/Src/stm32g0xx_hal_dma.c ****   }
 734:Drivers/STM32G0xx_HAL_Driver/Src/stm32g0xx_hal_dma.c **** 
 735:Drivers/STM32G0xx_HAL_Driver/Src/stm32g0xx_hal_dma.c ****   /*Check for DMAMUX Request generator (if used) overrun status */
 736:Drivers/STM32G0xx_HAL_Driver/Src/stm32g0xx_hal_dma.c ****   if (hdma->DMAmuxRequestGen != 0U)
 737:Drivers/STM32G0xx_HAL_Driver/Src/stm32g0xx_hal_dma.c ****   {
 738:Drivers/STM32G0xx_HAL_Driver/Src/stm32g0xx_hal_dma.c ****     /* if using DMAMUX request generator Check for DMAMUX request generator overrun */
 739:Drivers/STM32G0xx_HAL_Driver/Src/stm32g0xx_hal_dma.c ****     if ((hdma->DMAmuxRequestGenStatus->RGSR & hdma->DMAmuxRequestGenStatusMask) != 0U)
 740:Drivers/STM32G0xx_HAL_Driver/Src/stm32g0xx_hal_dma.c ****     {
 741:Drivers/STM32G0xx_HAL_Driver/Src/stm32g0xx_hal_dma.c ****       /* Disable the request gen overrun interrupt */
 742:Drivers/STM32G0xx_HAL_Driver/Src/stm32g0xx_hal_dma.c ****       hdma->DMAmuxRequestGen->RGCR |= DMAMUX_RGxCR_OIE;
 743:Drivers/STM32G0xx_HAL_Driver/Src/stm32g0xx_hal_dma.c **** 
 744:Drivers/STM32G0xx_HAL_Driver/Src/stm32g0xx_hal_dma.c ****       /* Clear the DMAMUX request generator overrun flag */
 745:Drivers/STM32G0xx_HAL_Driver/Src/stm32g0xx_hal_dma.c ****       hdma->DMAmuxRequestGenStatus->RGCFR = hdma->DMAmuxRequestGenStatusMask;
 746:Drivers/STM32G0xx_HAL_Driver/Src/stm32g0xx_hal_dma.c **** 
 747:Drivers/STM32G0xx_HAL_Driver/Src/stm32g0xx_hal_dma.c ****       /* Update error code */
 748:Drivers/STM32G0xx_HAL_Driver/Src/stm32g0xx_hal_dma.c ****       hdma->ErrorCode |= HAL_DMA_ERROR_REQGEN;
 749:Drivers/STM32G0xx_HAL_Driver/Src/stm32g0xx_hal_dma.c ****     }
 750:Drivers/STM32G0xx_HAL_Driver/Src/stm32g0xx_hal_dma.c ****   }
 751:Drivers/STM32G0xx_HAL_Driver/Src/stm32g0xx_hal_dma.c **** 
 752:Drivers/STM32G0xx_HAL_Driver/Src/stm32g0xx_hal_dma.c ****   /* Check for DMAMUX Synchronization overrun */
 753:Drivers/STM32G0xx_HAL_Driver/Src/stm32g0xx_hal_dma.c ****   if ((hdma->DMAmuxChannelStatus->CSR & hdma->DMAmuxChannelStatusMask) != 0U)
 754:Drivers/STM32G0xx_HAL_Driver/Src/stm32g0xx_hal_dma.c ****   {
 755:Drivers/STM32G0xx_HAL_Driver/Src/stm32g0xx_hal_dma.c ****     /* Clear the DMAMUX synchro overrun flag */
 756:Drivers/STM32G0xx_HAL_Driver/Src/stm32g0xx_hal_dma.c ****     hdma->DMAmuxChannelStatus->CFR = hdma->DMAmuxChannelStatusMask;
 757:Drivers/STM32G0xx_HAL_Driver/Src/stm32g0xx_hal_dma.c **** 
 758:Drivers/STM32G0xx_HAL_Driver/Src/stm32g0xx_hal_dma.c ****     /* Update error code */
 759:Drivers/STM32G0xx_HAL_Driver/Src/stm32g0xx_hal_dma.c ****     hdma->ErrorCode |= HAL_DMA_ERROR_SYNC;
 760:Drivers/STM32G0xx_HAL_Driver/Src/stm32g0xx_hal_dma.c ****   }
 761:Drivers/STM32G0xx_HAL_Driver/Src/stm32g0xx_hal_dma.c **** 
 762:Drivers/STM32G0xx_HAL_Driver/Src/stm32g0xx_hal_dma.c ****   if (HAL_DMA_FULL_TRANSFER == CompleteLevel)
 763:Drivers/STM32G0xx_HAL_Driver/Src/stm32g0xx_hal_dma.c ****   {
 764:Drivers/STM32G0xx_HAL_Driver/Src/stm32g0xx_hal_dma.c ****     /* Clear the transfer complete flag */
 765:Drivers/STM32G0xx_HAL_Driver/Src/stm32g0xx_hal_dma.c **** #if defined(DMA2)
 766:Drivers/STM32G0xx_HAL_Driver/Src/stm32g0xx_hal_dma.c ****     hdma->DmaBaseAddress->IFCR = (DMA_FLAG_TC1 << (hdma->ChannelIndex & 0x1CU));
 767:Drivers/STM32G0xx_HAL_Driver/Src/stm32g0xx_hal_dma.c **** #else
 768:Drivers/STM32G0xx_HAL_Driver/Src/stm32g0xx_hal_dma.c ****     __HAL_DMA_CLEAR_FLAG(hdma, (DMA_FLAG_TC1 << (hdma->ChannelIndex & 0x1CU)));
 769:Drivers/STM32G0xx_HAL_Driver/Src/stm32g0xx_hal_dma.c **** #endif /* DMA2 */
 770:Drivers/STM32G0xx_HAL_Driver/Src/stm32g0xx_hal_dma.c **** 
 771:Drivers/STM32G0xx_HAL_Driver/Src/stm32g0xx_hal_dma.c ****     /* Process unlocked */
 772:Drivers/STM32G0xx_HAL_Driver/Src/stm32g0xx_hal_dma.c ****     __HAL_UNLOCK(hdma);
 773:Drivers/STM32G0xx_HAL_Driver/Src/stm32g0xx_hal_dma.c **** 
ARM GAS  /tmp/ccbqyIjO.s 			page 15


 774:Drivers/STM32G0xx_HAL_Driver/Src/stm32g0xx_hal_dma.c ****     /* The selected Channelx EN bit is cleared (DMA is disabled and
 775:Drivers/STM32G0xx_HAL_Driver/Src/stm32g0xx_hal_dma.c ****     all transfers are complete) */
 776:Drivers/STM32G0xx_HAL_Driver/Src/stm32g0xx_hal_dma.c ****     hdma->State = HAL_DMA_STATE_READY;
 777:Drivers/STM32G0xx_HAL_Driver/Src/stm32g0xx_hal_dma.c ****   }
 778:Drivers/STM32G0xx_HAL_Driver/Src/stm32g0xx_hal_dma.c ****   else
 779:Drivers/STM32G0xx_HAL_Driver/Src/stm32g0xx_hal_dma.c ****   {
 780:Drivers/STM32G0xx_HAL_Driver/Src/stm32g0xx_hal_dma.c ****     /* Clear the half transfer complete flag */
 781:Drivers/STM32G0xx_HAL_Driver/Src/stm32g0xx_hal_dma.c **** #if defined(DMA2)
 782:Drivers/STM32G0xx_HAL_Driver/Src/stm32g0xx_hal_dma.c ****     hdma->DmaBaseAddress->IFCR = (DMA_FLAG_HT1 << (hdma->ChannelIndex & 0x1CU));
 783:Drivers/STM32G0xx_HAL_Driver/Src/stm32g0xx_hal_dma.c **** #else
 784:Drivers/STM32G0xx_HAL_Driver/Src/stm32g0xx_hal_dma.c ****     __HAL_DMA_CLEAR_FLAG(hdma, (DMA_FLAG_HT1 << (hdma->ChannelIndex & 0x1CU)));
 785:Drivers/STM32G0xx_HAL_Driver/Src/stm32g0xx_hal_dma.c **** #endif /* DMA2 */
 786:Drivers/STM32G0xx_HAL_Driver/Src/stm32g0xx_hal_dma.c ****   }
 787:Drivers/STM32G0xx_HAL_Driver/Src/stm32g0xx_hal_dma.c **** 
 788:Drivers/STM32G0xx_HAL_Driver/Src/stm32g0xx_hal_dma.c ****   return HAL_OK;
 789:Drivers/STM32G0xx_HAL_Driver/Src/stm32g0xx_hal_dma.c **** }
 790:Drivers/STM32G0xx_HAL_Driver/Src/stm32g0xx_hal_dma.c **** 
 791:Drivers/STM32G0xx_HAL_Driver/Src/stm32g0xx_hal_dma.c **** /**
 792:Drivers/STM32G0xx_HAL_Driver/Src/stm32g0xx_hal_dma.c ****   * @brief Handle DMA interrupt request.
 793:Drivers/STM32G0xx_HAL_Driver/Src/stm32g0xx_hal_dma.c ****   * @param hdma Pointer to a DMA_HandleTypeDef structure that contains
 794:Drivers/STM32G0xx_HAL_Driver/Src/stm32g0xx_hal_dma.c ****   *             the configuration information for the specified DMA Channel.
 795:Drivers/STM32G0xx_HAL_Driver/Src/stm32g0xx_hal_dma.c ****   * @retval None
 796:Drivers/STM32G0xx_HAL_Driver/Src/stm32g0xx_hal_dma.c ****   */
 797:Drivers/STM32G0xx_HAL_Driver/Src/stm32g0xx_hal_dma.c **** void HAL_DMA_IRQHandler(DMA_HandleTypeDef *hdma)
 798:Drivers/STM32G0xx_HAL_Driver/Src/stm32g0xx_hal_dma.c **** {
 799:Drivers/STM32G0xx_HAL_Driver/Src/stm32g0xx_hal_dma.c **** #if defined(DMA2)
 800:Drivers/STM32G0xx_HAL_Driver/Src/stm32g0xx_hal_dma.c ****   uint32_t flag_it = hdma->DmaBaseAddress->ISR;
 801:Drivers/STM32G0xx_HAL_Driver/Src/stm32g0xx_hal_dma.c **** #else
 802:Drivers/STM32G0xx_HAL_Driver/Src/stm32g0xx_hal_dma.c ****   uint32_t flag_it = DMA1->ISR;
 803:Drivers/STM32G0xx_HAL_Driver/Src/stm32g0xx_hal_dma.c **** #endif /* DMA2 */
 804:Drivers/STM32G0xx_HAL_Driver/Src/stm32g0xx_hal_dma.c ****   uint32_t source_it = hdma->Instance->CCR;
 805:Drivers/STM32G0xx_HAL_Driver/Src/stm32g0xx_hal_dma.c **** 
 806:Drivers/STM32G0xx_HAL_Driver/Src/stm32g0xx_hal_dma.c ****   /* Half Transfer Complete Interrupt management ******************************/
 807:Drivers/STM32G0xx_HAL_Driver/Src/stm32g0xx_hal_dma.c ****   if (((flag_it & (DMA_FLAG_HT1 << (hdma->ChannelIndex & 0x1CU))) != 0U) && ((source_it & DMA_IT_HT
 808:Drivers/STM32G0xx_HAL_Driver/Src/stm32g0xx_hal_dma.c ****   {
 809:Drivers/STM32G0xx_HAL_Driver/Src/stm32g0xx_hal_dma.c ****       /* Disable the half transfer interrupt if the DMA mode is not CIRCULAR */
 810:Drivers/STM32G0xx_HAL_Driver/Src/stm32g0xx_hal_dma.c ****       if ((hdma->Instance->CCR & DMA_CCR_CIRC) == 0U)
 811:Drivers/STM32G0xx_HAL_Driver/Src/stm32g0xx_hal_dma.c ****       {
 812:Drivers/STM32G0xx_HAL_Driver/Src/stm32g0xx_hal_dma.c ****         /* Disable the half transfer interrupt */
 813:Drivers/STM32G0xx_HAL_Driver/Src/stm32g0xx_hal_dma.c ****         __HAL_DMA_DISABLE_IT(hdma, DMA_IT_HT);
 814:Drivers/STM32G0xx_HAL_Driver/Src/stm32g0xx_hal_dma.c ****       }
 815:Drivers/STM32G0xx_HAL_Driver/Src/stm32g0xx_hal_dma.c ****       /* Clear the half transfer complete flag */
 816:Drivers/STM32G0xx_HAL_Driver/Src/stm32g0xx_hal_dma.c **** #if defined(DMA2)
 817:Drivers/STM32G0xx_HAL_Driver/Src/stm32g0xx_hal_dma.c ****       hdma->DmaBaseAddress->IFCR = DMA_ISR_HTIF1 << (hdma->ChannelIndex & 0x1CU);
 818:Drivers/STM32G0xx_HAL_Driver/Src/stm32g0xx_hal_dma.c **** #else
 819:Drivers/STM32G0xx_HAL_Driver/Src/stm32g0xx_hal_dma.c ****       __HAL_DMA_CLEAR_FLAG(hdma, (DMA_FLAG_HT1 << (hdma->ChannelIndex & 0x1CU)));
 820:Drivers/STM32G0xx_HAL_Driver/Src/stm32g0xx_hal_dma.c **** #endif /* DMA2 */
 821:Drivers/STM32G0xx_HAL_Driver/Src/stm32g0xx_hal_dma.c **** 
 822:Drivers/STM32G0xx_HAL_Driver/Src/stm32g0xx_hal_dma.c ****       /* DMA peripheral state is not updated in Half Transfer */
 823:Drivers/STM32G0xx_HAL_Driver/Src/stm32g0xx_hal_dma.c ****       /* but in Transfer Complete case */
 824:Drivers/STM32G0xx_HAL_Driver/Src/stm32g0xx_hal_dma.c **** 
 825:Drivers/STM32G0xx_HAL_Driver/Src/stm32g0xx_hal_dma.c ****       if (hdma->XferHalfCpltCallback != NULL)
 826:Drivers/STM32G0xx_HAL_Driver/Src/stm32g0xx_hal_dma.c ****       {
 827:Drivers/STM32G0xx_HAL_Driver/Src/stm32g0xx_hal_dma.c ****         /* Half transfer callback */
 828:Drivers/STM32G0xx_HAL_Driver/Src/stm32g0xx_hal_dma.c ****         hdma->XferHalfCpltCallback(hdma);
 829:Drivers/STM32G0xx_HAL_Driver/Src/stm32g0xx_hal_dma.c ****       }
 830:Drivers/STM32G0xx_HAL_Driver/Src/stm32g0xx_hal_dma.c ****   }
ARM GAS  /tmp/ccbqyIjO.s 			page 16


 831:Drivers/STM32G0xx_HAL_Driver/Src/stm32g0xx_hal_dma.c **** 
 832:Drivers/STM32G0xx_HAL_Driver/Src/stm32g0xx_hal_dma.c ****   /* Transfer Complete Interrupt management ***********************************/
 833:Drivers/STM32G0xx_HAL_Driver/Src/stm32g0xx_hal_dma.c ****   else if ((0U != (flag_it & (DMA_FLAG_TC1 << (hdma->ChannelIndex & 0x1CU)))) && (0U != (source_it 
 834:Drivers/STM32G0xx_HAL_Driver/Src/stm32g0xx_hal_dma.c ****   {
 835:Drivers/STM32G0xx_HAL_Driver/Src/stm32g0xx_hal_dma.c ****       if ((hdma->Instance->CCR & DMA_CCR_CIRC) == 0U)
 836:Drivers/STM32G0xx_HAL_Driver/Src/stm32g0xx_hal_dma.c ****       {
 837:Drivers/STM32G0xx_HAL_Driver/Src/stm32g0xx_hal_dma.c ****         /* Disable the transfer complete and error interrupt */
 838:Drivers/STM32G0xx_HAL_Driver/Src/stm32g0xx_hal_dma.c ****         __HAL_DMA_DISABLE_IT(hdma, DMA_IT_TE | DMA_IT_TC);
 839:Drivers/STM32G0xx_HAL_Driver/Src/stm32g0xx_hal_dma.c **** 
 840:Drivers/STM32G0xx_HAL_Driver/Src/stm32g0xx_hal_dma.c ****         /* Change the DMA state */
 841:Drivers/STM32G0xx_HAL_Driver/Src/stm32g0xx_hal_dma.c ****         hdma->State = HAL_DMA_STATE_READY;
 842:Drivers/STM32G0xx_HAL_Driver/Src/stm32g0xx_hal_dma.c ****       }
 843:Drivers/STM32G0xx_HAL_Driver/Src/stm32g0xx_hal_dma.c ****       /* Clear the transfer complete flag */
 844:Drivers/STM32G0xx_HAL_Driver/Src/stm32g0xx_hal_dma.c ****       __HAL_DMA_CLEAR_FLAG(hdma, (DMA_FLAG_TC1 << (hdma->ChannelIndex & 0x1CU)));
 845:Drivers/STM32G0xx_HAL_Driver/Src/stm32g0xx_hal_dma.c **** 
 846:Drivers/STM32G0xx_HAL_Driver/Src/stm32g0xx_hal_dma.c ****       /* Process Unlocked */
 847:Drivers/STM32G0xx_HAL_Driver/Src/stm32g0xx_hal_dma.c ****       __HAL_UNLOCK(hdma);
 848:Drivers/STM32G0xx_HAL_Driver/Src/stm32g0xx_hal_dma.c **** 
 849:Drivers/STM32G0xx_HAL_Driver/Src/stm32g0xx_hal_dma.c ****       if (hdma->XferCpltCallback != NULL)
 850:Drivers/STM32G0xx_HAL_Driver/Src/stm32g0xx_hal_dma.c ****       {
 851:Drivers/STM32G0xx_HAL_Driver/Src/stm32g0xx_hal_dma.c ****         /* Transfer complete callback */
 852:Drivers/STM32G0xx_HAL_Driver/Src/stm32g0xx_hal_dma.c ****         hdma->XferCpltCallback(hdma);
 853:Drivers/STM32G0xx_HAL_Driver/Src/stm32g0xx_hal_dma.c ****       }
 854:Drivers/STM32G0xx_HAL_Driver/Src/stm32g0xx_hal_dma.c ****   }
 855:Drivers/STM32G0xx_HAL_Driver/Src/stm32g0xx_hal_dma.c **** 
 856:Drivers/STM32G0xx_HAL_Driver/Src/stm32g0xx_hal_dma.c ****   /* Transfer Error Interrupt management **************************************/
 857:Drivers/STM32G0xx_HAL_Driver/Src/stm32g0xx_hal_dma.c ****   else if (((flag_it & (DMA_FLAG_TE1 << (hdma->ChannelIndex & 0x1CU))) != 0U) && ((source_it & DMA_
 858:Drivers/STM32G0xx_HAL_Driver/Src/stm32g0xx_hal_dma.c ****   {
 859:Drivers/STM32G0xx_HAL_Driver/Src/stm32g0xx_hal_dma.c ****     /* When a DMA transfer error occurs */
 860:Drivers/STM32G0xx_HAL_Driver/Src/stm32g0xx_hal_dma.c ****     /* A hardware clear of its EN bits is performed */
 861:Drivers/STM32G0xx_HAL_Driver/Src/stm32g0xx_hal_dma.c ****     /* Disable ALL DMA IT */
 862:Drivers/STM32G0xx_HAL_Driver/Src/stm32g0xx_hal_dma.c ****     __HAL_DMA_DISABLE_IT(hdma, (DMA_IT_TC | DMA_IT_HT | DMA_IT_TE));
 863:Drivers/STM32G0xx_HAL_Driver/Src/stm32g0xx_hal_dma.c **** 
 864:Drivers/STM32G0xx_HAL_Driver/Src/stm32g0xx_hal_dma.c ****     /* Clear all flags */
 865:Drivers/STM32G0xx_HAL_Driver/Src/stm32g0xx_hal_dma.c **** #if defined(DMA2)
 866:Drivers/STM32G0xx_HAL_Driver/Src/stm32g0xx_hal_dma.c ****     hdma->DmaBaseAddress->IFCR = (DMA_ISR_GIF1 << (hdma->ChannelIndex & 0x1CU));
 867:Drivers/STM32G0xx_HAL_Driver/Src/stm32g0xx_hal_dma.c **** #else
 868:Drivers/STM32G0xx_HAL_Driver/Src/stm32g0xx_hal_dma.c ****     __HAL_DMA_CLEAR_FLAG(hdma, (DMA_FLAG_GI1 << (hdma->ChannelIndex & 0x1CU)));
 869:Drivers/STM32G0xx_HAL_Driver/Src/stm32g0xx_hal_dma.c **** #endif /* DMA2 */
 870:Drivers/STM32G0xx_HAL_Driver/Src/stm32g0xx_hal_dma.c **** 
 871:Drivers/STM32G0xx_HAL_Driver/Src/stm32g0xx_hal_dma.c ****     /* Update error code */
 872:Drivers/STM32G0xx_HAL_Driver/Src/stm32g0xx_hal_dma.c ****     hdma->ErrorCode = HAL_DMA_ERROR_TE;
 873:Drivers/STM32G0xx_HAL_Driver/Src/stm32g0xx_hal_dma.c **** 
 874:Drivers/STM32G0xx_HAL_Driver/Src/stm32g0xx_hal_dma.c ****     /* Change the DMA state */
 875:Drivers/STM32G0xx_HAL_Driver/Src/stm32g0xx_hal_dma.c ****     hdma->State = HAL_DMA_STATE_READY;
 876:Drivers/STM32G0xx_HAL_Driver/Src/stm32g0xx_hal_dma.c **** 
 877:Drivers/STM32G0xx_HAL_Driver/Src/stm32g0xx_hal_dma.c ****     /* Process Unlocked */
 878:Drivers/STM32G0xx_HAL_Driver/Src/stm32g0xx_hal_dma.c ****     __HAL_UNLOCK(hdma);
 879:Drivers/STM32G0xx_HAL_Driver/Src/stm32g0xx_hal_dma.c **** 
 880:Drivers/STM32G0xx_HAL_Driver/Src/stm32g0xx_hal_dma.c ****     if (hdma->XferErrorCallback != NULL)
 881:Drivers/STM32G0xx_HAL_Driver/Src/stm32g0xx_hal_dma.c ****     {
 882:Drivers/STM32G0xx_HAL_Driver/Src/stm32g0xx_hal_dma.c ****       /* Transfer error callback */
 883:Drivers/STM32G0xx_HAL_Driver/Src/stm32g0xx_hal_dma.c ****       hdma->XferErrorCallback(hdma);
 884:Drivers/STM32G0xx_HAL_Driver/Src/stm32g0xx_hal_dma.c ****     }
 885:Drivers/STM32G0xx_HAL_Driver/Src/stm32g0xx_hal_dma.c ****   }
 886:Drivers/STM32G0xx_HAL_Driver/Src/stm32g0xx_hal_dma.c ****   else
 887:Drivers/STM32G0xx_HAL_Driver/Src/stm32g0xx_hal_dma.c ****   {
ARM GAS  /tmp/ccbqyIjO.s 			page 17


 888:Drivers/STM32G0xx_HAL_Driver/Src/stm32g0xx_hal_dma.c ****     /* Nothing To Do */
 889:Drivers/STM32G0xx_HAL_Driver/Src/stm32g0xx_hal_dma.c ****   }
 890:Drivers/STM32G0xx_HAL_Driver/Src/stm32g0xx_hal_dma.c ****   return;
 891:Drivers/STM32G0xx_HAL_Driver/Src/stm32g0xx_hal_dma.c **** }
 892:Drivers/STM32G0xx_HAL_Driver/Src/stm32g0xx_hal_dma.c **** 
 893:Drivers/STM32G0xx_HAL_Driver/Src/stm32g0xx_hal_dma.c **** /**
 894:Drivers/STM32G0xx_HAL_Driver/Src/stm32g0xx_hal_dma.c ****   * @brief Register callbacks
 895:Drivers/STM32G0xx_HAL_Driver/Src/stm32g0xx_hal_dma.c ****   * @param hdma Pointer to a DMA_HandleTypeDef structure that contains
 896:Drivers/STM32G0xx_HAL_Driver/Src/stm32g0xx_hal_dma.c ****   *             the configuration information for the specified DMA Channel.
 897:Drivers/STM32G0xx_HAL_Driver/Src/stm32g0xx_hal_dma.c ****   * @param CallbackID User Callback identifier
 898:Drivers/STM32G0xx_HAL_Driver/Src/stm32g0xx_hal_dma.c ****   *                   a HAL_DMA_CallbackIDTypeDef ENUM as parameter.
 899:Drivers/STM32G0xx_HAL_Driver/Src/stm32g0xx_hal_dma.c ****   * @param pCallback Pointer to private callback function which has pointer to
 900:Drivers/STM32G0xx_HAL_Driver/Src/stm32g0xx_hal_dma.c ****   *                  a DMA_HandleTypeDef structure as parameter.
 901:Drivers/STM32G0xx_HAL_Driver/Src/stm32g0xx_hal_dma.c ****   * @retval HAL status
 902:Drivers/STM32G0xx_HAL_Driver/Src/stm32g0xx_hal_dma.c ****   */
 903:Drivers/STM32G0xx_HAL_Driver/Src/stm32g0xx_hal_dma.c **** HAL_StatusTypeDef HAL_DMA_RegisterCallback(DMA_HandleTypeDef *hdma, HAL_DMA_CallbackIDTypeDef Callb
 904:Drivers/STM32G0xx_HAL_Driver/Src/stm32g0xx_hal_dma.c **** {
 905:Drivers/STM32G0xx_HAL_Driver/Src/stm32g0xx_hal_dma.c ****   HAL_StatusTypeDef status = HAL_OK;
 906:Drivers/STM32G0xx_HAL_Driver/Src/stm32g0xx_hal_dma.c **** 
 907:Drivers/STM32G0xx_HAL_Driver/Src/stm32g0xx_hal_dma.c ****   /* Process locked */
 908:Drivers/STM32G0xx_HAL_Driver/Src/stm32g0xx_hal_dma.c ****   __HAL_LOCK(hdma);
 909:Drivers/STM32G0xx_HAL_Driver/Src/stm32g0xx_hal_dma.c **** 
 910:Drivers/STM32G0xx_HAL_Driver/Src/stm32g0xx_hal_dma.c ****   if (hdma->State == HAL_DMA_STATE_READY)
 911:Drivers/STM32G0xx_HAL_Driver/Src/stm32g0xx_hal_dma.c ****   {
 912:Drivers/STM32G0xx_HAL_Driver/Src/stm32g0xx_hal_dma.c ****     switch (CallbackID)
 913:Drivers/STM32G0xx_HAL_Driver/Src/stm32g0xx_hal_dma.c ****     {
 914:Drivers/STM32G0xx_HAL_Driver/Src/stm32g0xx_hal_dma.c ****       case  HAL_DMA_XFER_CPLT_CB_ID:
 915:Drivers/STM32G0xx_HAL_Driver/Src/stm32g0xx_hal_dma.c ****         hdma->XferCpltCallback = pCallback;
 916:Drivers/STM32G0xx_HAL_Driver/Src/stm32g0xx_hal_dma.c ****         break;
 917:Drivers/STM32G0xx_HAL_Driver/Src/stm32g0xx_hal_dma.c **** 
 918:Drivers/STM32G0xx_HAL_Driver/Src/stm32g0xx_hal_dma.c ****       case  HAL_DMA_XFER_HALFCPLT_CB_ID:
 919:Drivers/STM32G0xx_HAL_Driver/Src/stm32g0xx_hal_dma.c ****         hdma->XferHalfCpltCallback = pCallback;
 920:Drivers/STM32G0xx_HAL_Driver/Src/stm32g0xx_hal_dma.c ****         break;
 921:Drivers/STM32G0xx_HAL_Driver/Src/stm32g0xx_hal_dma.c **** 
 922:Drivers/STM32G0xx_HAL_Driver/Src/stm32g0xx_hal_dma.c ****       case  HAL_DMA_XFER_ERROR_CB_ID:
 923:Drivers/STM32G0xx_HAL_Driver/Src/stm32g0xx_hal_dma.c ****         hdma->XferErrorCallback = pCallback;
 924:Drivers/STM32G0xx_HAL_Driver/Src/stm32g0xx_hal_dma.c ****         break;
 925:Drivers/STM32G0xx_HAL_Driver/Src/stm32g0xx_hal_dma.c **** 
 926:Drivers/STM32G0xx_HAL_Driver/Src/stm32g0xx_hal_dma.c ****       case  HAL_DMA_XFER_ABORT_CB_ID:
 927:Drivers/STM32G0xx_HAL_Driver/Src/stm32g0xx_hal_dma.c ****         hdma->XferAbortCallback = pCallback;
 928:Drivers/STM32G0xx_HAL_Driver/Src/stm32g0xx_hal_dma.c ****         break;
 929:Drivers/STM32G0xx_HAL_Driver/Src/stm32g0xx_hal_dma.c **** 
 930:Drivers/STM32G0xx_HAL_Driver/Src/stm32g0xx_hal_dma.c ****       default:
 931:Drivers/STM32G0xx_HAL_Driver/Src/stm32g0xx_hal_dma.c ****         status = HAL_ERROR;
 932:Drivers/STM32G0xx_HAL_Driver/Src/stm32g0xx_hal_dma.c ****         break;
 933:Drivers/STM32G0xx_HAL_Driver/Src/stm32g0xx_hal_dma.c ****     }
 934:Drivers/STM32G0xx_HAL_Driver/Src/stm32g0xx_hal_dma.c ****   }
 935:Drivers/STM32G0xx_HAL_Driver/Src/stm32g0xx_hal_dma.c ****   else
 936:Drivers/STM32G0xx_HAL_Driver/Src/stm32g0xx_hal_dma.c ****   {
 937:Drivers/STM32G0xx_HAL_Driver/Src/stm32g0xx_hal_dma.c ****     status = HAL_ERROR;
 938:Drivers/STM32G0xx_HAL_Driver/Src/stm32g0xx_hal_dma.c ****   }
 939:Drivers/STM32G0xx_HAL_Driver/Src/stm32g0xx_hal_dma.c **** 
 940:Drivers/STM32G0xx_HAL_Driver/Src/stm32g0xx_hal_dma.c ****   /* Release Lock */
 941:Drivers/STM32G0xx_HAL_Driver/Src/stm32g0xx_hal_dma.c ****   __HAL_UNLOCK(hdma);
 942:Drivers/STM32G0xx_HAL_Driver/Src/stm32g0xx_hal_dma.c **** 
 943:Drivers/STM32G0xx_HAL_Driver/Src/stm32g0xx_hal_dma.c ****   return status;
 944:Drivers/STM32G0xx_HAL_Driver/Src/stm32g0xx_hal_dma.c **** }
ARM GAS  /tmp/ccbqyIjO.s 			page 18


 945:Drivers/STM32G0xx_HAL_Driver/Src/stm32g0xx_hal_dma.c **** 
 946:Drivers/STM32G0xx_HAL_Driver/Src/stm32g0xx_hal_dma.c **** /**
 947:Drivers/STM32G0xx_HAL_Driver/Src/stm32g0xx_hal_dma.c ****   * @brief UnRegister callbacks
 948:Drivers/STM32G0xx_HAL_Driver/Src/stm32g0xx_hal_dma.c ****   * @param hdma Pointer to a DMA_HandleTypeDef structure that contains
 949:Drivers/STM32G0xx_HAL_Driver/Src/stm32g0xx_hal_dma.c ****   *             the configuration information for the specified DMA Channel.
 950:Drivers/STM32G0xx_HAL_Driver/Src/stm32g0xx_hal_dma.c ****   * @param CallbackID User Callback identifier
 951:Drivers/STM32G0xx_HAL_Driver/Src/stm32g0xx_hal_dma.c ****   *                   a HAL_DMA_CallbackIDTypeDef ENUM as parameter.
 952:Drivers/STM32G0xx_HAL_Driver/Src/stm32g0xx_hal_dma.c ****   * @retval HAL status
 953:Drivers/STM32G0xx_HAL_Driver/Src/stm32g0xx_hal_dma.c ****   */
 954:Drivers/STM32G0xx_HAL_Driver/Src/stm32g0xx_hal_dma.c **** HAL_StatusTypeDef HAL_DMA_UnRegisterCallback(DMA_HandleTypeDef *hdma, HAL_DMA_CallbackIDTypeDef Cal
 955:Drivers/STM32G0xx_HAL_Driver/Src/stm32g0xx_hal_dma.c **** {
 956:Drivers/STM32G0xx_HAL_Driver/Src/stm32g0xx_hal_dma.c ****   HAL_StatusTypeDef status = HAL_OK;
 957:Drivers/STM32G0xx_HAL_Driver/Src/stm32g0xx_hal_dma.c **** 
 958:Drivers/STM32G0xx_HAL_Driver/Src/stm32g0xx_hal_dma.c ****   /* Process locked */
 959:Drivers/STM32G0xx_HAL_Driver/Src/stm32g0xx_hal_dma.c ****   __HAL_LOCK(hdma);
 960:Drivers/STM32G0xx_HAL_Driver/Src/stm32g0xx_hal_dma.c **** 
 961:Drivers/STM32G0xx_HAL_Driver/Src/stm32g0xx_hal_dma.c ****   if (hdma->State == HAL_DMA_STATE_READY)
 962:Drivers/STM32G0xx_HAL_Driver/Src/stm32g0xx_hal_dma.c ****   {
 963:Drivers/STM32G0xx_HAL_Driver/Src/stm32g0xx_hal_dma.c ****     switch (CallbackID)
 964:Drivers/STM32G0xx_HAL_Driver/Src/stm32g0xx_hal_dma.c ****     {
 965:Drivers/STM32G0xx_HAL_Driver/Src/stm32g0xx_hal_dma.c ****       case  HAL_DMA_XFER_CPLT_CB_ID:
 966:Drivers/STM32G0xx_HAL_Driver/Src/stm32g0xx_hal_dma.c ****         hdma->XferCpltCallback = NULL;
 967:Drivers/STM32G0xx_HAL_Driver/Src/stm32g0xx_hal_dma.c ****         break;
 968:Drivers/STM32G0xx_HAL_Driver/Src/stm32g0xx_hal_dma.c **** 
 969:Drivers/STM32G0xx_HAL_Driver/Src/stm32g0xx_hal_dma.c ****       case  HAL_DMA_XFER_HALFCPLT_CB_ID:
 970:Drivers/STM32G0xx_HAL_Driver/Src/stm32g0xx_hal_dma.c ****         hdma->XferHalfCpltCallback = NULL;
 971:Drivers/STM32G0xx_HAL_Driver/Src/stm32g0xx_hal_dma.c ****         break;
 972:Drivers/STM32G0xx_HAL_Driver/Src/stm32g0xx_hal_dma.c **** 
 973:Drivers/STM32G0xx_HAL_Driver/Src/stm32g0xx_hal_dma.c ****       case  HAL_DMA_XFER_ERROR_CB_ID:
 974:Drivers/STM32G0xx_HAL_Driver/Src/stm32g0xx_hal_dma.c ****         hdma->XferErrorCallback = NULL;
 975:Drivers/STM32G0xx_HAL_Driver/Src/stm32g0xx_hal_dma.c ****         break;
 976:Drivers/STM32G0xx_HAL_Driver/Src/stm32g0xx_hal_dma.c **** 
 977:Drivers/STM32G0xx_HAL_Driver/Src/stm32g0xx_hal_dma.c ****       case  HAL_DMA_XFER_ABORT_CB_ID:
 978:Drivers/STM32G0xx_HAL_Driver/Src/stm32g0xx_hal_dma.c ****         hdma->XferAbortCallback = NULL;
 979:Drivers/STM32G0xx_HAL_Driver/Src/stm32g0xx_hal_dma.c ****         break;
 980:Drivers/STM32G0xx_HAL_Driver/Src/stm32g0xx_hal_dma.c **** 
 981:Drivers/STM32G0xx_HAL_Driver/Src/stm32g0xx_hal_dma.c ****       case   HAL_DMA_XFER_ALL_CB_ID:
 982:Drivers/STM32G0xx_HAL_Driver/Src/stm32g0xx_hal_dma.c ****         hdma->XferCpltCallback = NULL;
 983:Drivers/STM32G0xx_HAL_Driver/Src/stm32g0xx_hal_dma.c ****         hdma->XferHalfCpltCallback = NULL;
 984:Drivers/STM32G0xx_HAL_Driver/Src/stm32g0xx_hal_dma.c ****         hdma->XferErrorCallback = NULL;
 985:Drivers/STM32G0xx_HAL_Driver/Src/stm32g0xx_hal_dma.c ****         hdma->XferAbortCallback = NULL;
 986:Drivers/STM32G0xx_HAL_Driver/Src/stm32g0xx_hal_dma.c ****         break;
 987:Drivers/STM32G0xx_HAL_Driver/Src/stm32g0xx_hal_dma.c **** 
 988:Drivers/STM32G0xx_HAL_Driver/Src/stm32g0xx_hal_dma.c ****       default:
 989:Drivers/STM32G0xx_HAL_Driver/Src/stm32g0xx_hal_dma.c ****         status = HAL_ERROR;
 990:Drivers/STM32G0xx_HAL_Driver/Src/stm32g0xx_hal_dma.c ****         break;
 991:Drivers/STM32G0xx_HAL_Driver/Src/stm32g0xx_hal_dma.c ****     }
 992:Drivers/STM32G0xx_HAL_Driver/Src/stm32g0xx_hal_dma.c ****   }
 993:Drivers/STM32G0xx_HAL_Driver/Src/stm32g0xx_hal_dma.c ****   else
 994:Drivers/STM32G0xx_HAL_Driver/Src/stm32g0xx_hal_dma.c ****   {
 995:Drivers/STM32G0xx_HAL_Driver/Src/stm32g0xx_hal_dma.c ****     status = HAL_ERROR;
 996:Drivers/STM32G0xx_HAL_Driver/Src/stm32g0xx_hal_dma.c ****   }
 997:Drivers/STM32G0xx_HAL_Driver/Src/stm32g0xx_hal_dma.c **** 
 998:Drivers/STM32G0xx_HAL_Driver/Src/stm32g0xx_hal_dma.c ****   /* Release Lock */
 999:Drivers/STM32G0xx_HAL_Driver/Src/stm32g0xx_hal_dma.c ****   __HAL_UNLOCK(hdma);
1000:Drivers/STM32G0xx_HAL_Driver/Src/stm32g0xx_hal_dma.c **** 
1001:Drivers/STM32G0xx_HAL_Driver/Src/stm32g0xx_hal_dma.c ****   return status;
ARM GAS  /tmp/ccbqyIjO.s 			page 19


1002:Drivers/STM32G0xx_HAL_Driver/Src/stm32g0xx_hal_dma.c **** }
1003:Drivers/STM32G0xx_HAL_Driver/Src/stm32g0xx_hal_dma.c **** 
1004:Drivers/STM32G0xx_HAL_Driver/Src/stm32g0xx_hal_dma.c **** /**
1005:Drivers/STM32G0xx_HAL_Driver/Src/stm32g0xx_hal_dma.c ****   * @}
1006:Drivers/STM32G0xx_HAL_Driver/Src/stm32g0xx_hal_dma.c ****   */
1007:Drivers/STM32G0xx_HAL_Driver/Src/stm32g0xx_hal_dma.c **** 
1008:Drivers/STM32G0xx_HAL_Driver/Src/stm32g0xx_hal_dma.c **** 
1009:Drivers/STM32G0xx_HAL_Driver/Src/stm32g0xx_hal_dma.c **** 
1010:Drivers/STM32G0xx_HAL_Driver/Src/stm32g0xx_hal_dma.c **** /** @defgroup DMA_Exported_Functions_Group3 Peripheral State and Errors functions
1011:Drivers/STM32G0xx_HAL_Driver/Src/stm32g0xx_hal_dma.c ****   *  @brief    Peripheral State and Errors functions
1012:Drivers/STM32G0xx_HAL_Driver/Src/stm32g0xx_hal_dma.c ****   *
1013:Drivers/STM32G0xx_HAL_Driver/Src/stm32g0xx_hal_dma.c **** @verbatim
1014:Drivers/STM32G0xx_HAL_Driver/Src/stm32g0xx_hal_dma.c ****  ===============================================================================
1015:Drivers/STM32G0xx_HAL_Driver/Src/stm32g0xx_hal_dma.c ****             ##### Peripheral State and Errors functions #####
1016:Drivers/STM32G0xx_HAL_Driver/Src/stm32g0xx_hal_dma.c ****  ===============================================================================
1017:Drivers/STM32G0xx_HAL_Driver/Src/stm32g0xx_hal_dma.c ****     [..]
1018:Drivers/STM32G0xx_HAL_Driver/Src/stm32g0xx_hal_dma.c ****     This subsection provides functions allowing to
1019:Drivers/STM32G0xx_HAL_Driver/Src/stm32g0xx_hal_dma.c ****       (+) Check the DMA state
1020:Drivers/STM32G0xx_HAL_Driver/Src/stm32g0xx_hal_dma.c ****       (+) Get error code
1021:Drivers/STM32G0xx_HAL_Driver/Src/stm32g0xx_hal_dma.c **** 
1022:Drivers/STM32G0xx_HAL_Driver/Src/stm32g0xx_hal_dma.c **** @endverbatim
1023:Drivers/STM32G0xx_HAL_Driver/Src/stm32g0xx_hal_dma.c ****   * @{
1024:Drivers/STM32G0xx_HAL_Driver/Src/stm32g0xx_hal_dma.c ****   */
1025:Drivers/STM32G0xx_HAL_Driver/Src/stm32g0xx_hal_dma.c **** 
1026:Drivers/STM32G0xx_HAL_Driver/Src/stm32g0xx_hal_dma.c **** /**
1027:Drivers/STM32G0xx_HAL_Driver/Src/stm32g0xx_hal_dma.c ****   * @brief Return the DMA handle state.
1028:Drivers/STM32G0xx_HAL_Driver/Src/stm32g0xx_hal_dma.c ****   * @param hdma Pointer to a DMA_HandleTypeDef structure that contains
1029:Drivers/STM32G0xx_HAL_Driver/Src/stm32g0xx_hal_dma.c ****   *             the configuration information for the specified DMA Channel.
1030:Drivers/STM32G0xx_HAL_Driver/Src/stm32g0xx_hal_dma.c ****   * @retval HAL state
1031:Drivers/STM32G0xx_HAL_Driver/Src/stm32g0xx_hal_dma.c ****   */
1032:Drivers/STM32G0xx_HAL_Driver/Src/stm32g0xx_hal_dma.c **** HAL_DMA_StateTypeDef HAL_DMA_GetState(DMA_HandleTypeDef *hdma)
1033:Drivers/STM32G0xx_HAL_Driver/Src/stm32g0xx_hal_dma.c **** {
1034:Drivers/STM32G0xx_HAL_Driver/Src/stm32g0xx_hal_dma.c ****   /* Return DMA handle state */
1035:Drivers/STM32G0xx_HAL_Driver/Src/stm32g0xx_hal_dma.c ****   return hdma->State;
1036:Drivers/STM32G0xx_HAL_Driver/Src/stm32g0xx_hal_dma.c **** }
1037:Drivers/STM32G0xx_HAL_Driver/Src/stm32g0xx_hal_dma.c **** 
1038:Drivers/STM32G0xx_HAL_Driver/Src/stm32g0xx_hal_dma.c **** /**
1039:Drivers/STM32G0xx_HAL_Driver/Src/stm32g0xx_hal_dma.c ****   * @brief Return the DMA error code.
1040:Drivers/STM32G0xx_HAL_Driver/Src/stm32g0xx_hal_dma.c ****   * @param hdma Pointer to a DMA_HandleTypeDef structure that contains
1041:Drivers/STM32G0xx_HAL_Driver/Src/stm32g0xx_hal_dma.c ****   *             the configuration information for the specified DMA Channel.
1042:Drivers/STM32G0xx_HAL_Driver/Src/stm32g0xx_hal_dma.c ****   * @retval DMA Error Code
1043:Drivers/STM32G0xx_HAL_Driver/Src/stm32g0xx_hal_dma.c ****   */
1044:Drivers/STM32G0xx_HAL_Driver/Src/stm32g0xx_hal_dma.c **** uint32_t HAL_DMA_GetError(DMA_HandleTypeDef *hdma)
1045:Drivers/STM32G0xx_HAL_Driver/Src/stm32g0xx_hal_dma.c **** {
1046:Drivers/STM32G0xx_HAL_Driver/Src/stm32g0xx_hal_dma.c ****   /* Return the DMA error code */
1047:Drivers/STM32G0xx_HAL_Driver/Src/stm32g0xx_hal_dma.c ****   return hdma->ErrorCode;
1048:Drivers/STM32G0xx_HAL_Driver/Src/stm32g0xx_hal_dma.c **** }
1049:Drivers/STM32G0xx_HAL_Driver/Src/stm32g0xx_hal_dma.c **** 
1050:Drivers/STM32G0xx_HAL_Driver/Src/stm32g0xx_hal_dma.c **** /**
1051:Drivers/STM32G0xx_HAL_Driver/Src/stm32g0xx_hal_dma.c ****   * @}
1052:Drivers/STM32G0xx_HAL_Driver/Src/stm32g0xx_hal_dma.c ****   */
1053:Drivers/STM32G0xx_HAL_Driver/Src/stm32g0xx_hal_dma.c **** 
1054:Drivers/STM32G0xx_HAL_Driver/Src/stm32g0xx_hal_dma.c **** /**
1055:Drivers/STM32G0xx_HAL_Driver/Src/stm32g0xx_hal_dma.c ****   * @}
1056:Drivers/STM32G0xx_HAL_Driver/Src/stm32g0xx_hal_dma.c ****   */
1057:Drivers/STM32G0xx_HAL_Driver/Src/stm32g0xx_hal_dma.c **** 
1058:Drivers/STM32G0xx_HAL_Driver/Src/stm32g0xx_hal_dma.c **** /** @addtogroup DMA_Private_Functions
ARM GAS  /tmp/ccbqyIjO.s 			page 20


1059:Drivers/STM32G0xx_HAL_Driver/Src/stm32g0xx_hal_dma.c ****   * @{
1060:Drivers/STM32G0xx_HAL_Driver/Src/stm32g0xx_hal_dma.c ****   */
1061:Drivers/STM32G0xx_HAL_Driver/Src/stm32g0xx_hal_dma.c **** 
1062:Drivers/STM32G0xx_HAL_Driver/Src/stm32g0xx_hal_dma.c **** /**
1063:Drivers/STM32G0xx_HAL_Driver/Src/stm32g0xx_hal_dma.c ****   * @brief Sets the DMA Transfer parameter.
1064:Drivers/STM32G0xx_HAL_Driver/Src/stm32g0xx_hal_dma.c ****   * @param hdma Pointer to a DMA_HandleTypeDef structure that contains
1065:Drivers/STM32G0xx_HAL_Driver/Src/stm32g0xx_hal_dma.c ****   *             the configuration information for the specified DMA Channel.
1066:Drivers/STM32G0xx_HAL_Driver/Src/stm32g0xx_hal_dma.c ****   * @param SrcAddress The source memory Buffer address
1067:Drivers/STM32G0xx_HAL_Driver/Src/stm32g0xx_hal_dma.c ****   * @param DstAddress The destination memory Buffer address
1068:Drivers/STM32G0xx_HAL_Driver/Src/stm32g0xx_hal_dma.c ****   * @param DataLength The length of data to be transferred from source to destination
1069:Drivers/STM32G0xx_HAL_Driver/Src/stm32g0xx_hal_dma.c ****   * @retval HAL status
1070:Drivers/STM32G0xx_HAL_Driver/Src/stm32g0xx_hal_dma.c ****   */
1071:Drivers/STM32G0xx_HAL_Driver/Src/stm32g0xx_hal_dma.c **** static void DMA_SetConfig(DMA_HandleTypeDef *hdma, uint32_t SrcAddress, uint32_t DstAddress, uint32
1072:Drivers/STM32G0xx_HAL_Driver/Src/stm32g0xx_hal_dma.c **** {
  27              		.loc 1 1072 1 view -0
  28              		.cfi_startproc
  29              		@ args = 0, pretend = 0, frame = 0
  30              		@ frame_needed = 0, uses_anonymous_args = 0
1073:Drivers/STM32G0xx_HAL_Driver/Src/stm32g0xx_hal_dma.c ****   /* Clear the DMAMUX synchro overrun flag */
1074:Drivers/STM32G0xx_HAL_Driver/Src/stm32g0xx_hal_dma.c ****   hdma->DMAmuxChannelStatus->CFR = hdma->DMAmuxChannelStatusMask;
  31              		.loc 1 1074 3 view .LVU1
1072:Drivers/STM32G0xx_HAL_Driver/Src/stm32g0xx_hal_dma.c ****   /* Clear the DMAMUX synchro overrun flag */
  32              		.loc 1 1072 1 is_stmt 0 view .LVU2
  33 0000 F0B5     		push	{r4, r5, r6, r7, lr}
  34              	.LCFI0:
  35              		.cfi_def_cfa_offset 20
  36              		.cfi_offset 4, -20
  37              		.cfi_offset 5, -16
  38              		.cfi_offset 6, -12
  39              		.cfi_offset 7, -8
  40              		.cfi_offset 14, -4
  41              		.loc 1 1074 7 view .LVU3
  42 0002 846C     		ldr	r4, [r0, #72]
  43              		.loc 1 1074 40 view .LVU4
  44 0004 C56C     		ldr	r5, [r0, #76]
  45              		.loc 1 1074 34 view .LVU5
  46 0006 6560     		str	r5, [r4, #4]
1075:Drivers/STM32G0xx_HAL_Driver/Src/stm32g0xx_hal_dma.c **** 
1076:Drivers/STM32G0xx_HAL_Driver/Src/stm32g0xx_hal_dma.c ****   if (hdma->DMAmuxRequestGen != 0U)
  47              		.loc 1 1076 3 is_stmt 1 view .LVU6
  48              		.loc 1 1076 6 is_stmt 0 view .LVU7
  49 0008 046D     		ldr	r4, [r0, #80]
  50 000a 002C     		cmp	r4, #0
  51 000c 02D0     		beq	.L2
1077:Drivers/STM32G0xx_HAL_Driver/Src/stm32g0xx_hal_dma.c ****   {
1078:Drivers/STM32G0xx_HAL_Driver/Src/stm32g0xx_hal_dma.c ****     /* Clear the DMAMUX request generator overrun flag */
1079:Drivers/STM32G0xx_HAL_Driver/Src/stm32g0xx_hal_dma.c ****     hdma->DMAmuxRequestGenStatus->RGCFR = hdma->DMAmuxRequestGenStatusMask;
  52              		.loc 1 1079 5 is_stmt 1 view .LVU8
  53              		.loc 1 1079 9 is_stmt 0 view .LVU9
  54 000e 446D     		ldr	r4, [r0, #84]
  55              		.loc 1 1079 47 view .LVU10
  56 0010 856D     		ldr	r5, [r0, #88]
  57              		.loc 1 1079 41 view .LVU11
  58 0012 6560     		str	r5, [r4, #4]
  59              	.L2:
1080:Drivers/STM32G0xx_HAL_Driver/Src/stm32g0xx_hal_dma.c ****   }
1081:Drivers/STM32G0xx_HAL_Driver/Src/stm32g0xx_hal_dma.c **** 
ARM GAS  /tmp/ccbqyIjO.s 			page 21


1082:Drivers/STM32G0xx_HAL_Driver/Src/stm32g0xx_hal_dma.c ****   /* Clear all flags */
1083:Drivers/STM32G0xx_HAL_Driver/Src/stm32g0xx_hal_dma.c **** #if defined(DMA2)
1084:Drivers/STM32G0xx_HAL_Driver/Src/stm32g0xx_hal_dma.c ****   hdma->DmaBaseAddress->IFCR = (DMA_ISR_GIF1 << (hdma->ChannelIndex & 0x1CU));
1085:Drivers/STM32G0xx_HAL_Driver/Src/stm32g0xx_hal_dma.c **** #else
1086:Drivers/STM32G0xx_HAL_Driver/Src/stm32g0xx_hal_dma.c ****   __HAL_DMA_CLEAR_FLAG(hdma, (DMA_FLAG_GI1 << (hdma->ChannelIndex & 0x1CU)));
  60              		.loc 1 1086 3 is_stmt 1 view .LVU12
  61 0014 1C24     		movs	r4, #28
  62 0016 056C     		ldr	r5, [r0, #64]
  63 0018 084E     		ldr	r6, .L8
  64 001a 2540     		ands	r5, r4
  65 001c 1B3C     		subs	r4, r4, #27
  66 001e AC40     		lsls	r4, r4, r5
  67 0020 7768     		ldr	r7, [r6, #4]
  68 0022 3C43     		orrs	r4, r7
  69 0024 7460     		str	r4, [r6, #4]
1087:Drivers/STM32G0xx_HAL_Driver/Src/stm32g0xx_hal_dma.c **** #endif /* DMA2 */
1088:Drivers/STM32G0xx_HAL_Driver/Src/stm32g0xx_hal_dma.c **** 
1089:Drivers/STM32G0xx_HAL_Driver/Src/stm32g0xx_hal_dma.c ****   /* Configure DMA Channel data length */
1090:Drivers/STM32G0xx_HAL_Driver/Src/stm32g0xx_hal_dma.c ****   hdma->Instance->CNDTR = DataLength;
  70              		.loc 1 1090 3 view .LVU13
  71              		.loc 1 1090 7 is_stmt 0 view .LVU14
  72 0026 0468     		ldr	r4, [r0]
  73              		.loc 1 1090 25 view .LVU15
  74 0028 6360     		str	r3, [r4, #4]
1091:Drivers/STM32G0xx_HAL_Driver/Src/stm32g0xx_hal_dma.c **** 
1092:Drivers/STM32G0xx_HAL_Driver/Src/stm32g0xx_hal_dma.c ****   /* Memory to Peripheral */
1093:Drivers/STM32G0xx_HAL_Driver/Src/stm32g0xx_hal_dma.c ****   if ((hdma->Init.Direction) == DMA_MEMORY_TO_PERIPH)
  75              		.loc 1 1093 3 is_stmt 1 view .LVU16
  76              		.loc 1 1093 6 is_stmt 0 view .LVU17
  77 002a 8368     		ldr	r3, [r0, #8]
  78              	.LVL1:
  79              		.loc 1 1093 6 view .LVU18
  80 002c 102B     		cmp	r3, #16
  81 002e 02D1     		bne	.L3
1094:Drivers/STM32G0xx_HAL_Driver/Src/stm32g0xx_hal_dma.c ****   {
1095:Drivers/STM32G0xx_HAL_Driver/Src/stm32g0xx_hal_dma.c ****     /* Configure DMA Channel destination address */
1096:Drivers/STM32G0xx_HAL_Driver/Src/stm32g0xx_hal_dma.c ****     hdma->Instance->CPAR = DstAddress;
  82              		.loc 1 1096 5 is_stmt 1 view .LVU19
  83              		.loc 1 1096 26 is_stmt 0 view .LVU20
  84 0030 A260     		str	r2, [r4, #8]
  85              	.LVL2:
1097:Drivers/STM32G0xx_HAL_Driver/Src/stm32g0xx_hal_dma.c **** 
1098:Drivers/STM32G0xx_HAL_Driver/Src/stm32g0xx_hal_dma.c ****     /* Configure DMA Channel source address */
1099:Drivers/STM32G0xx_HAL_Driver/Src/stm32g0xx_hal_dma.c ****     hdma->Instance->CMAR = SrcAddress;
  86              		.loc 1 1099 5 is_stmt 1 view .LVU21
  87              		.loc 1 1099 26 is_stmt 0 view .LVU22
  88 0032 E160     		str	r1, [r4, #12]
  89              	.L1:
1100:Drivers/STM32G0xx_HAL_Driver/Src/stm32g0xx_hal_dma.c ****   }
1101:Drivers/STM32G0xx_HAL_Driver/Src/stm32g0xx_hal_dma.c ****   /* Peripheral to Memory */
1102:Drivers/STM32G0xx_HAL_Driver/Src/stm32g0xx_hal_dma.c ****   else
1103:Drivers/STM32G0xx_HAL_Driver/Src/stm32g0xx_hal_dma.c ****   {
1104:Drivers/STM32G0xx_HAL_Driver/Src/stm32g0xx_hal_dma.c ****     /* Configure DMA Channel source address */
1105:Drivers/STM32G0xx_HAL_Driver/Src/stm32g0xx_hal_dma.c ****     hdma->Instance->CPAR = SrcAddress;
1106:Drivers/STM32G0xx_HAL_Driver/Src/stm32g0xx_hal_dma.c **** 
1107:Drivers/STM32G0xx_HAL_Driver/Src/stm32g0xx_hal_dma.c ****     /* Configure DMA Channel destination address */
1108:Drivers/STM32G0xx_HAL_Driver/Src/stm32g0xx_hal_dma.c ****     hdma->Instance->CMAR = DstAddress;
ARM GAS  /tmp/ccbqyIjO.s 			page 22


1109:Drivers/STM32G0xx_HAL_Driver/Src/stm32g0xx_hal_dma.c ****   }
1110:Drivers/STM32G0xx_HAL_Driver/Src/stm32g0xx_hal_dma.c **** }
  90              		.loc 1 1110 1 view .LVU23
  91              		@ sp needed
  92 0034 F0BD     		pop	{r4, r5, r6, r7, pc}
  93              	.LVL3:
  94              	.L3:
1105:Drivers/STM32G0xx_HAL_Driver/Src/stm32g0xx_hal_dma.c **** 
  95              		.loc 1 1105 5 is_stmt 1 view .LVU24
1105:Drivers/STM32G0xx_HAL_Driver/Src/stm32g0xx_hal_dma.c **** 
  96              		.loc 1 1105 26 is_stmt 0 view .LVU25
  97 0036 A160     		str	r1, [r4, #8]
  98              	.LVL4:
1108:Drivers/STM32G0xx_HAL_Driver/Src/stm32g0xx_hal_dma.c ****   }
  99              		.loc 1 1108 5 is_stmt 1 view .LVU26
1108:Drivers/STM32G0xx_HAL_Driver/Src/stm32g0xx_hal_dma.c ****   }
 100              		.loc 1 1108 26 is_stmt 0 view .LVU27
 101 0038 E260     		str	r2, [r4, #12]
 102              		.loc 1 1110 1 view .LVU28
 103 003a FBE7     		b	.L1
 104              	.L9:
 105              		.align	2
 106              	.L8:
 107 003c 00000240 		.word	1073872896
 108              		.cfi_endproc
 109              	.LFE432:
 111              		.global	__aeabi_uidiv
 112              		.section	.text.DMA_CalcDMAMUXChannelBaseAndMask,"ax",%progbits
 113              		.align	1
 114              		.syntax unified
 115              		.code	16
 116              		.thumb_func
 118              	DMA_CalcDMAMUXChannelBaseAndMask:
 119              	.LVL5:
 120              	.LFB433:
1111:Drivers/STM32G0xx_HAL_Driver/Src/stm32g0xx_hal_dma.c **** 
1112:Drivers/STM32G0xx_HAL_Driver/Src/stm32g0xx_hal_dma.c **** /**
1113:Drivers/STM32G0xx_HAL_Driver/Src/stm32g0xx_hal_dma.c ****   * @brief Updates the DMA handle with the DMAMUX  channel and status mask depending on channel num
1114:Drivers/STM32G0xx_HAL_Driver/Src/stm32g0xx_hal_dma.c ****   * @param hdma Pointer to a DMA_HandleTypeDef structure that contains
1115:Drivers/STM32G0xx_HAL_Driver/Src/stm32g0xx_hal_dma.c ****   *             the configuration information for the specified DMA Channel.
1116:Drivers/STM32G0xx_HAL_Driver/Src/stm32g0xx_hal_dma.c ****   * @retval None
1117:Drivers/STM32G0xx_HAL_Driver/Src/stm32g0xx_hal_dma.c ****   */
1118:Drivers/STM32G0xx_HAL_Driver/Src/stm32g0xx_hal_dma.c **** static void DMA_CalcDMAMUXChannelBaseAndMask(DMA_HandleTypeDef *hdma)
1119:Drivers/STM32G0xx_HAL_Driver/Src/stm32g0xx_hal_dma.c **** {
 121              		.loc 1 1119 1 is_stmt 1 view -0
 122              		.cfi_startproc
 123              		@ args = 0, pretend = 0, frame = 0
 124              		@ frame_needed = 0, uses_anonymous_args = 0
1120:Drivers/STM32G0xx_HAL_Driver/Src/stm32g0xx_hal_dma.c ****   uint32_t channel_number;
 125              		.loc 1 1120 3 view .LVU30
1121:Drivers/STM32G0xx_HAL_Driver/Src/stm32g0xx_hal_dma.c **** 
1122:Drivers/STM32G0xx_HAL_Driver/Src/stm32g0xx_hal_dma.c **** #if defined(DMA2)
1123:Drivers/STM32G0xx_HAL_Driver/Src/stm32g0xx_hal_dma.c ****   /* check if instance is not outside the DMA channel range */
1124:Drivers/STM32G0xx_HAL_Driver/Src/stm32g0xx_hal_dma.c ****   if ((uint32_t)hdma->Instance < (uint32_t)DMA2_Channel1)
1125:Drivers/STM32G0xx_HAL_Driver/Src/stm32g0xx_hal_dma.c ****   {
1126:Drivers/STM32G0xx_HAL_Driver/Src/stm32g0xx_hal_dma.c ****     /* DMA1 */
1127:Drivers/STM32G0xx_HAL_Driver/Src/stm32g0xx_hal_dma.c ****     /* Associate a DMA Channel to a DMAMUX channel */
ARM GAS  /tmp/ccbqyIjO.s 			page 23


1128:Drivers/STM32G0xx_HAL_Driver/Src/stm32g0xx_hal_dma.c ****     hdma->DMAmuxChannel = (DMAMUX1_Channel0 + (hdma->ChannelIndex >> 2U));
1129:Drivers/STM32G0xx_HAL_Driver/Src/stm32g0xx_hal_dma.c **** 
1130:Drivers/STM32G0xx_HAL_Driver/Src/stm32g0xx_hal_dma.c ****     /* Prepare channel_number used for DMAmuxChannelStatusMask computation */
1131:Drivers/STM32G0xx_HAL_Driver/Src/stm32g0xx_hal_dma.c ****     channel_number = (((uint32_t)hdma->Instance & 0xFFU) - 8U) / 20U;
1132:Drivers/STM32G0xx_HAL_Driver/Src/stm32g0xx_hal_dma.c ****   }
1133:Drivers/STM32G0xx_HAL_Driver/Src/stm32g0xx_hal_dma.c ****   else
1134:Drivers/STM32G0xx_HAL_Driver/Src/stm32g0xx_hal_dma.c ****   {
1135:Drivers/STM32G0xx_HAL_Driver/Src/stm32g0xx_hal_dma.c ****     /* DMA2 */
1136:Drivers/STM32G0xx_HAL_Driver/Src/stm32g0xx_hal_dma.c ****     /* Associate a DMA Channel to a DMAMUX channel */
1137:Drivers/STM32G0xx_HAL_Driver/Src/stm32g0xx_hal_dma.c ****     hdma->DMAmuxChannel = (DMAMUX1_Channel7 + (hdma->ChannelIndex >> 2U));
1138:Drivers/STM32G0xx_HAL_Driver/Src/stm32g0xx_hal_dma.c **** 
1139:Drivers/STM32G0xx_HAL_Driver/Src/stm32g0xx_hal_dma.c ****     /* Prepare channel_number used for DMAmuxChannelStatusMask computation */
1140:Drivers/STM32G0xx_HAL_Driver/Src/stm32g0xx_hal_dma.c ****     channel_number = (((((uint32_t)hdma->Instance & 0xFFU) - 8U) / 20U) + 7U);
1141:Drivers/STM32G0xx_HAL_Driver/Src/stm32g0xx_hal_dma.c ****   }
1142:Drivers/STM32G0xx_HAL_Driver/Src/stm32g0xx_hal_dma.c **** #else
1143:Drivers/STM32G0xx_HAL_Driver/Src/stm32g0xx_hal_dma.c ****   /* Associate a DMA Channel to a DMAMUX channel */
1144:Drivers/STM32G0xx_HAL_Driver/Src/stm32g0xx_hal_dma.c ****   hdma->DMAmuxChannel = (DMAMUX_Channel_TypeDef *)(uint32_t)((uint32_t)DMAMUX1_Channel0 + ((hdma->C
 126              		.loc 1 1144 3 view .LVU31
1119:Drivers/STM32G0xx_HAL_Driver/Src/stm32g0xx_hal_dma.c ****   uint32_t channel_number;
 127              		.loc 1 1119 1 is_stmt 0 view .LVU32
 128 0000 10B5     		push	{r4, lr}
 129              	.LCFI1:
 130              		.cfi_def_cfa_offset 8
 131              		.cfi_offset 4, -8
 132              		.cfi_offset 14, -4
1119:Drivers/STM32G0xx_HAL_Driver/Src/stm32g0xx_hal_dma.c ****   uint32_t channel_number;
 133              		.loc 1 1119 1 view .LVU33
 134 0002 0400     		movs	r4, r0
1145:Drivers/STM32G0xx_HAL_Driver/Src/stm32g0xx_hal_dma.c **** 
1146:Drivers/STM32G0xx_HAL_Driver/Src/stm32g0xx_hal_dma.c ****   /* Prepare channel_number used for DMAmuxChannelStatusMask computation */
1147:Drivers/STM32G0xx_HAL_Driver/Src/stm32g0xx_hal_dma.c ****   channel_number = (((uint32_t)hdma->Instance & 0xFFU) - 8U) / 20U;
1148:Drivers/STM32G0xx_HAL_Driver/Src/stm32g0xx_hal_dma.c **** #endif /* DMA2 */
1149:Drivers/STM32G0xx_HAL_Driver/Src/stm32g0xx_hal_dma.c **** 
1150:Drivers/STM32G0xx_HAL_Driver/Src/stm32g0xx_hal_dma.c ****   /* Initialize the field DMAmuxChannelStatus to DMAMUX1_ChannelStatus base */
1151:Drivers/STM32G0xx_HAL_Driver/Src/stm32g0xx_hal_dma.c ****   hdma->DMAmuxChannelStatus = DMAMUX1_ChannelStatus;
1152:Drivers/STM32G0xx_HAL_Driver/Src/stm32g0xx_hal_dma.c **** 
1153:Drivers/STM32G0xx_HAL_Driver/Src/stm32g0xx_hal_dma.c ****   /* Initialize the field DMAmuxChannelStatusMask with the corresponding index of the DMAMUX channe
1154:Drivers/STM32G0xx_HAL_Driver/Src/stm32g0xx_hal_dma.c ****   hdma->DMAmuxChannelStatusMask = 1UL << (channel_number & 0x1FU);
1155:Drivers/STM32G0xx_HAL_Driver/Src/stm32g0xx_hal_dma.c **** }
 135              		.loc 1 1155 1 view .LVU34
 136              		@ sp needed
1144:Drivers/STM32G0xx_HAL_Driver/Src/stm32g0xx_hal_dma.c **** 
 137              		.loc 1 1144 112 view .LVU35
 138 0004 036C     		ldr	r3, [r0, #64]
1144:Drivers/STM32G0xx_HAL_Driver/Src/stm32g0xx_hal_dma.c **** 
 139              		.loc 1 1144 51 view .LVU36
 140 0006 094A     		ldr	r2, .L11
1144:Drivers/STM32G0xx_HAL_Driver/Src/stm32g0xx_hal_dma.c **** 
 141              		.loc 1 1144 112 view .LVU37
 142 0008 9B08     		lsrs	r3, r3, #2
1144:Drivers/STM32G0xx_HAL_Driver/Src/stm32g0xx_hal_dma.c **** 
 143              		.loc 1 1144 51 view .LVU38
 144 000a 9B18     		adds	r3, r3, r2
 145 000c 9B00     		lsls	r3, r3, #2
1144:Drivers/STM32G0xx_HAL_Driver/Src/stm32g0xx_hal_dma.c **** 
 146              		.loc 1 1144 23 view .LVU39
 147 000e 4364     		str	r3, [r0, #68]
ARM GAS  /tmp/ccbqyIjO.s 			page 24


1147:Drivers/STM32G0xx_HAL_Driver/Src/stm32g0xx_hal_dma.c **** #endif /* DMA2 */
 148              		.loc 1 1147 3 is_stmt 1 view .LVU40
1147:Drivers/STM32G0xx_HAL_Driver/Src/stm32g0xx_hal_dma.c **** #endif /* DMA2 */
 149              		.loc 1 1147 47 is_stmt 0 view .LVU41
 150 0010 0068     		ldr	r0, [r0]
 151              	.LVL6:
1147:Drivers/STM32G0xx_HAL_Driver/Src/stm32g0xx_hal_dma.c **** #endif /* DMA2 */
 152              		.loc 1 1147 18 view .LVU42
 153 0012 1421     		movs	r1, #20
1147:Drivers/STM32G0xx_HAL_Driver/Src/stm32g0xx_hal_dma.c **** #endif /* DMA2 */
 154              		.loc 1 1147 47 view .LVU43
 155 0014 C0B2     		uxtb	r0, r0
1147:Drivers/STM32G0xx_HAL_Driver/Src/stm32g0xx_hal_dma.c **** #endif /* DMA2 */
 156              		.loc 1 1147 56 view .LVU44
 157 0016 0838     		subs	r0, r0, #8
1147:Drivers/STM32G0xx_HAL_Driver/Src/stm32g0xx_hal_dma.c **** #endif /* DMA2 */
 158              		.loc 1 1147 18 view .LVU45
 159 0018 FFF7FEFF 		bl	__aeabi_uidiv
 160              	.LVL7:
1151:Drivers/STM32G0xx_HAL_Driver/Src/stm32g0xx_hal_dma.c **** 
 161              		.loc 1 1151 3 is_stmt 1 view .LVU46
1151:Drivers/STM32G0xx_HAL_Driver/Src/stm32g0xx_hal_dma.c **** 
 162              		.loc 1 1151 29 is_stmt 0 view .LVU47
 163 001c 044B     		ldr	r3, .L11+4
 164 001e A364     		str	r3, [r4, #72]
1154:Drivers/STM32G0xx_HAL_Driver/Src/stm32g0xx_hal_dma.c **** }
 165              		.loc 1 1154 3 is_stmt 1 view .LVU48
1154:Drivers/STM32G0xx_HAL_Driver/Src/stm32g0xx_hal_dma.c **** }
 166              		.loc 1 1154 58 is_stmt 0 view .LVU49
 167 0020 1F23     		movs	r3, #31
 168 0022 1840     		ands	r0, r3
 169              	.LVL8:
1154:Drivers/STM32G0xx_HAL_Driver/Src/stm32g0xx_hal_dma.c **** }
 170              		.loc 1 1154 39 view .LVU50
 171 0024 1E3B     		subs	r3, r3, #30
 172 0026 8340     		lsls	r3, r3, r0
1154:Drivers/STM32G0xx_HAL_Driver/Src/stm32g0xx_hal_dma.c **** }
 173              		.loc 1 1154 33 view .LVU51
 174 0028 E364     		str	r3, [r4, #76]
 175              	.LVL9:
 176              		.loc 1 1155 1 view .LVU52
 177 002a 10BD     		pop	{r4, pc}
 178              	.L12:
 179              		.align	2
 180              	.L11:
 181 002c 00820010 		.word	268468736
 182 0030 80080240 		.word	1073875072
 183              		.cfi_endproc
 184              	.LFE433:
 186              		.section	.text.HAL_DMA_Init,"ax",%progbits
 187              		.align	1
 188              		.global	HAL_DMA_Init
 189              		.syntax unified
 190              		.code	16
 191              		.thumb_func
 193              	HAL_DMA_Init:
 194              	.LVL10:
ARM GAS  /tmp/ccbqyIjO.s 			page 25


 195              	.LFB420:
 153:Drivers/STM32G0xx_HAL_Driver/Src/stm32g0xx_hal_dma.c ****   /* Check the DMA handle allocation */
 196              		.loc 1 153 1 is_stmt 1 view -0
 197              		.cfi_startproc
 198              		@ args = 0, pretend = 0, frame = 0
 199              		@ frame_needed = 0, uses_anonymous_args = 0
 155:Drivers/STM32G0xx_HAL_Driver/Src/stm32g0xx_hal_dma.c ****   {
 200              		.loc 1 155 3 view .LVU54
 153:Drivers/STM32G0xx_HAL_Driver/Src/stm32g0xx_hal_dma.c ****   /* Check the DMA handle allocation */
 201              		.loc 1 153 1 is_stmt 0 view .LVU55
 202 0000 F8B5     		push	{r3, r4, r5, r6, r7, lr}
 203              	.LCFI2:
 204              		.cfi_def_cfa_offset 24
 205              		.cfi_offset 3, -24
 206              		.cfi_offset 4, -20
 207              		.cfi_offset 5, -16
 208              		.cfi_offset 6, -12
 209              		.cfi_offset 7, -8
 210              		.cfi_offset 14, -4
 153:Drivers/STM32G0xx_HAL_Driver/Src/stm32g0xx_hal_dma.c ****   /* Check the DMA handle allocation */
 211              		.loc 1 153 1 view .LVU56
 212 0002 0400     		movs	r4, r0
 157:Drivers/STM32G0xx_HAL_Driver/Src/stm32g0xx_hal_dma.c ****   }
 213              		.loc 1 157 12 view .LVU57
 214 0004 0120     		movs	r0, #1
 215              	.LVL11:
 155:Drivers/STM32G0xx_HAL_Driver/Src/stm32g0xx_hal_dma.c ****   {
 216              		.loc 1 155 6 view .LVU58
 217 0006 002C     		cmp	r4, #0
 218 0008 46D0     		beq	.L14
 161:Drivers/STM32G0xx_HAL_Driver/Src/stm32g0xx_hal_dma.c ****   assert_param(IS_DMA_DIRECTION(hdma->Init.Direction));
 219              		.loc 1 161 3 is_stmt 1 view .LVU59
 162:Drivers/STM32G0xx_HAL_Driver/Src/stm32g0xx_hal_dma.c ****   assert_param(IS_DMA_PERIPHERAL_INC_STATE(hdma->Init.PeriphInc));
 220              		.loc 1 162 3 view .LVU60
 163:Drivers/STM32G0xx_HAL_Driver/Src/stm32g0xx_hal_dma.c ****   assert_param(IS_DMA_MEMORY_INC_STATE(hdma->Init.MemInc));
 221              		.loc 1 163 3 view .LVU61
 164:Drivers/STM32G0xx_HAL_Driver/Src/stm32g0xx_hal_dma.c ****   assert_param(IS_DMA_PERIPHERAL_DATA_SIZE(hdma->Init.PeriphDataAlignment));
 222              		.loc 1 164 3 view .LVU62
 165:Drivers/STM32G0xx_HAL_Driver/Src/stm32g0xx_hal_dma.c ****   assert_param(IS_DMA_MEMORY_DATA_SIZE(hdma->Init.MemDataAlignment));
 223              		.loc 1 165 3 view .LVU63
 166:Drivers/STM32G0xx_HAL_Driver/Src/stm32g0xx_hal_dma.c ****   assert_param(IS_DMA_MODE(hdma->Init.Mode));
 224              		.loc 1 166 3 view .LVU64
 167:Drivers/STM32G0xx_HAL_Driver/Src/stm32g0xx_hal_dma.c ****   assert_param(IS_DMA_PRIORITY(hdma->Init.Priority));
 225              		.loc 1 167 3 view .LVU65
 168:Drivers/STM32G0xx_HAL_Driver/Src/stm32g0xx_hal_dma.c **** 
 226              		.loc 1 168 3 view .LVU66
 170:Drivers/STM32G0xx_HAL_Driver/Src/stm32g0xx_hal_dma.c **** 
 227              		.loc 1 170 3 view .LVU67
 187:Drivers/STM32G0xx_HAL_Driver/Src/stm32g0xx_hal_dma.c **** #endif /* DMA2 */
 228              		.loc 1 187 3 view .LVU68
 187:Drivers/STM32G0xx_HAL_Driver/Src/stm32g0xx_hal_dma.c **** #endif /* DMA2 */
 229              		.loc 1 187 40 is_stmt 0 view .LVU69
 230 000a 2568     		ldr	r5, [r4]
 187:Drivers/STM32G0xx_HAL_Driver/Src/stm32g0xx_hal_dma.c **** #endif /* DMA2 */
 231              		.loc 1 187 51 view .LVU70
 232 000c 254B     		ldr	r3, .L19
 187:Drivers/STM32G0xx_HAL_Driver/Src/stm32g0xx_hal_dma.c **** #endif /* DMA2 */
ARM GAS  /tmp/ccbqyIjO.s 			page 26


 233              		.loc 1 187 78 view .LVU71
 234 000e 1421     		movs	r1, #20
 187:Drivers/STM32G0xx_HAL_Driver/Src/stm32g0xx_hal_dma.c **** #endif /* DMA2 */
 235              		.loc 1 187 51 view .LVU72
 236 0010 E818     		adds	r0, r5, r3
 187:Drivers/STM32G0xx_HAL_Driver/Src/stm32g0xx_hal_dma.c **** #endif /* DMA2 */
 237              		.loc 1 187 78 view .LVU73
 238 0012 FFF7FEFF 		bl	__aeabi_uidiv
 239              	.LVL12:
 191:Drivers/STM32G0xx_HAL_Driver/Src/stm32g0xx_hal_dma.c **** 
 240              		.loc 1 191 15 view .LVU74
 241 0016 0223     		movs	r3, #2
 187:Drivers/STM32G0xx_HAL_Driver/Src/stm32g0xx_hal_dma.c **** #endif /* DMA2 */
 242              		.loc 1 187 133 view .LVU75
 243 0018 8000     		lsls	r0, r0, #2
 191:Drivers/STM32G0xx_HAL_Driver/Src/stm32g0xx_hal_dma.c **** 
 244              		.loc 1 191 15 view .LVU76
 245 001a A61D     		adds	r6, r4, #6
 187:Drivers/STM32G0xx_HAL_Driver/Src/stm32g0xx_hal_dma.c **** #endif /* DMA2 */
 246              		.loc 1 187 22 view .LVU77
 247 001c 2064     		str	r0, [r4, #64]
 191:Drivers/STM32G0xx_HAL_Driver/Src/stm32g0xx_hal_dma.c **** 
 248              		.loc 1 191 3 is_stmt 1 view .LVU78
 191:Drivers/STM32G0xx_HAL_Driver/Src/stm32g0xx_hal_dma.c **** 
 249              		.loc 1 191 15 is_stmt 0 view .LVU79
 250 001e F377     		strb	r3, [r6, #31]
 194:Drivers/STM32G0xx_HAL_Driver/Src/stm32g0xx_hal_dma.c ****                                   DMA_CCR_MINC  | DMA_CCR_PINC   | DMA_CCR_CIRC   | \
 251              		.loc 1 194 3 is_stmt 1 view .LVU80
 252 0020 2B68     		ldr	r3, [r5]
 253 0022 214A     		ldr	r2, .L19+4
 199:Drivers/STM32G0xx_HAL_Driver/Src/stm32g0xx_hal_dma.c ****                                 hdma->Init.PeriphInc           | hdma->Init.MemInc           | \
 254              		.loc 1 199 3 is_stmt 0 view .LVU81
 255 0024 A768     		ldr	r7, [r4, #8]
 194:Drivers/STM32G0xx_HAL_Driver/Src/stm32g0xx_hal_dma.c ****                                   DMA_CCR_MINC  | DMA_CCR_PINC   | DMA_CCR_CIRC   | \
 256              		.loc 1 194 3 view .LVU82
 257 0026 1340     		ands	r3, r2
 258 0028 2B60     		str	r3, [r5]
 199:Drivers/STM32G0xx_HAL_Driver/Src/stm32g0xx_hal_dma.c ****                                 hdma->Init.PeriphInc           | hdma->Init.MemInc           | \
 259              		.loc 1 199 3 is_stmt 1 view .LVU83
 260 002a E368     		ldr	r3, [r4, #12]
 261 002c 2169     		ldr	r1, [r4, #16]
 262 002e 3B43     		orrs	r3, r7
 263 0030 0B43     		orrs	r3, r1
 264 0032 6169     		ldr	r1, [r4, #20]
 265 0034 2A68     		ldr	r2, [r5]
 266 0036 0B43     		orrs	r3, r1
 267 0038 A169     		ldr	r1, [r4, #24]
 207:Drivers/STM32G0xx_HAL_Driver/Src/stm32g0xx_hal_dma.c **** 
 268              		.loc 1 207 3 is_stmt 0 view .LVU84
 269 003a 2000     		movs	r0, r4
 199:Drivers/STM32G0xx_HAL_Driver/Src/stm32g0xx_hal_dma.c ****                                 hdma->Init.PeriphInc           | hdma->Init.MemInc           | \
 270              		.loc 1 199 3 view .LVU85
 271 003c 0B43     		orrs	r3, r1
 272 003e E169     		ldr	r1, [r4, #28]
 273 0040 0B43     		orrs	r3, r1
 274 0042 216A     		ldr	r1, [r4, #32]
 275 0044 0B43     		orrs	r3, r1
ARM GAS  /tmp/ccbqyIjO.s 			page 27


 276 0046 1343     		orrs	r3, r2
 277 0048 2B60     		str	r3, [r5]
 207:Drivers/STM32G0xx_HAL_Driver/Src/stm32g0xx_hal_dma.c **** 
 278              		.loc 1 207 3 is_stmt 1 view .LVU86
 279 004a FFF7FEFF 		bl	DMA_CalcDMAMUXChannelBaseAndMask
 280              	.LVL13:
 209:Drivers/STM32G0xx_HAL_Driver/Src/stm32g0xx_hal_dma.c ****   {
 281              		.loc 1 209 3 view .LVU87
 209:Drivers/STM32G0xx_HAL_Driver/Src/stm32g0xx_hal_dma.c ****   {
 282              		.loc 1 209 6 is_stmt 0 view .LVU88
 283 004e 8023     		movs	r3, #128
 284 0050 DB01     		lsls	r3, r3, #7
 285 0052 9F42     		cmp	r7, r3
 286 0054 01D1     		bne	.L15
 212:Drivers/STM32G0xx_HAL_Driver/Src/stm32g0xx_hal_dma.c ****   }
 287              		.loc 1 212 5 is_stmt 1 view .LVU89
 212:Drivers/STM32G0xx_HAL_Driver/Src/stm32g0xx_hal_dma.c ****   }
 288              		.loc 1 212 24 is_stmt 0 view .LVU90
 289 0056 0023     		movs	r3, #0
 290 0058 6360     		str	r3, [r4, #4]
 291              	.L15:
 216:Drivers/STM32G0xx_HAL_Driver/Src/stm32g0xx_hal_dma.c **** 
 292              		.loc 1 216 3 is_stmt 1 view .LVU91
 216:Drivers/STM32G0xx_HAL_Driver/Src/stm32g0xx_hal_dma.c **** 
 293              		.loc 1 216 50 is_stmt 0 view .LVU92
 294 005a 3F23     		movs	r3, #63
 216:Drivers/STM32G0xx_HAL_Driver/Src/stm32g0xx_hal_dma.c **** 
 295              		.loc 1 216 41 view .LVU93
 296 005c 6268     		ldr	r2, [r4, #4]
 216:Drivers/STM32G0xx_HAL_Driver/Src/stm32g0xx_hal_dma.c **** 
 297              		.loc 1 216 7 view .LVU94
 298 005e 616C     		ldr	r1, [r4, #68]
 216:Drivers/STM32G0xx_HAL_Driver/Src/stm32g0xx_hal_dma.c **** 
 299              		.loc 1 216 50 view .LVU95
 300 0060 1340     		ands	r3, r2
 216:Drivers/STM32G0xx_HAL_Driver/Src/stm32g0xx_hal_dma.c **** 
 301              		.loc 1 216 28 view .LVU96
 302 0062 0B60     		str	r3, [r1]
 219:Drivers/STM32G0xx_HAL_Driver/Src/stm32g0xx_hal_dma.c **** 
 303              		.loc 1 219 3 is_stmt 1 view .LVU97
 219:Drivers/STM32G0xx_HAL_Driver/Src/stm32g0xx_hal_dma.c **** 
 304              		.loc 1 219 40 is_stmt 0 view .LVU98
 305 0064 E06C     		ldr	r0, [r4, #76]
 219:Drivers/STM32G0xx_HAL_Driver/Src/stm32g0xx_hal_dma.c **** 
 306              		.loc 1 219 7 view .LVU99
 307 0066 A16C     		ldr	r1, [r4, #72]
 221:Drivers/STM32G0xx_HAL_Driver/Src/stm32g0xx_hal_dma.c ****   {
 308              		.loc 1 221 36 view .LVU100
 309 0068 013A     		subs	r2, r2, #1
 219:Drivers/STM32G0xx_HAL_Driver/Src/stm32g0xx_hal_dma.c **** 
 310              		.loc 1 219 34 view .LVU101
 311 006a 4860     		str	r0, [r1, #4]
 221:Drivers/STM32G0xx_HAL_Driver/Src/stm32g0xx_hal_dma.c ****   {
 312              		.loc 1 221 3 is_stmt 1 view .LVU102
 221:Drivers/STM32G0xx_HAL_Driver/Src/stm32g0xx_hal_dma.c ****   {
 313              		.loc 1 221 6 is_stmt 0 view .LVU103
 314 006c 032A     		cmp	r2, #3
ARM GAS  /tmp/ccbqyIjO.s 			page 28


 315 006e 14D8     		bhi	.L16
 226:Drivers/STM32G0xx_HAL_Driver/Src/stm32g0xx_hal_dma.c **** 
 316              		.loc 1 226 5 is_stmt 1 view .LVU104
 317              	.LVL14:
 318              	.LBB4:
 319              	.LBI4:
1156:Drivers/STM32G0xx_HAL_Driver/Src/stm32g0xx_hal_dma.c **** 
1157:Drivers/STM32G0xx_HAL_Driver/Src/stm32g0xx_hal_dma.c **** /**
1158:Drivers/STM32G0xx_HAL_Driver/Src/stm32g0xx_hal_dma.c ****   * @brief Updates the DMA handle with the DMAMUX  request generator params
1159:Drivers/STM32G0xx_HAL_Driver/Src/stm32g0xx_hal_dma.c ****   * @param hdma Pointer to a DMA_HandleTypeDef structure that contains
1160:Drivers/STM32G0xx_HAL_Driver/Src/stm32g0xx_hal_dma.c ****   *             the configuration information for the specified DMA Channel.
1161:Drivers/STM32G0xx_HAL_Driver/Src/stm32g0xx_hal_dma.c ****   * @retval None
1162:Drivers/STM32G0xx_HAL_Driver/Src/stm32g0xx_hal_dma.c ****   */
1163:Drivers/STM32G0xx_HAL_Driver/Src/stm32g0xx_hal_dma.c **** 
1164:Drivers/STM32G0xx_HAL_Driver/Src/stm32g0xx_hal_dma.c **** static void DMA_CalcDMAMUXRequestGenBaseAndMask(DMA_HandleTypeDef *hdma)
 320              		.loc 1 1164 13 view .LVU105
 321              	.LBB5:
1165:Drivers/STM32G0xx_HAL_Driver/Src/stm32g0xx_hal_dma.c **** {
1166:Drivers/STM32G0xx_HAL_Driver/Src/stm32g0xx_hal_dma.c ****   uint32_t request =  hdma->Init.Request & DMAMUX_CxCR_DMAREQ_ID;
 322              		.loc 1 1166 3 view .LVU106
1167:Drivers/STM32G0xx_HAL_Driver/Src/stm32g0xx_hal_dma.c **** 
1168:Drivers/STM32G0xx_HAL_Driver/Src/stm32g0xx_hal_dma.c ****   /* DMA Channels are connected to DMAMUX1 request generator blocks*/
1169:Drivers/STM32G0xx_HAL_Driver/Src/stm32g0xx_hal_dma.c ****   hdma->DMAmuxRequestGen = (DMAMUX_RequestGen_TypeDef *)((uint32_t)(((uint32_t)DMAMUX1_RequestGener
 323              		.loc 1 1169 3 view .LVU107
 324              		.loc 1 1169 58 is_stmt 0 view .LVU108
 325 0070 0E4A     		ldr	r2, .L19+8
1170:Drivers/STM32G0xx_HAL_Driver/Src/stm32g0xx_hal_dma.c **** 
1171:Drivers/STM32G0xx_HAL_Driver/Src/stm32g0xx_hal_dma.c ****   hdma->DMAmuxRequestGenStatus = DMAMUX1_RequestGenStatus;
 326              		.loc 1 1171 32 view .LVU109
 327 0072 0F48     		ldr	r0, .L19+12
1169:Drivers/STM32G0xx_HAL_Driver/Src/stm32g0xx_hal_dma.c **** 
 328              		.loc 1 1169 58 view .LVU110
 329 0074 9918     		adds	r1, r3, r2
1172:Drivers/STM32G0xx_HAL_Driver/Src/stm32g0xx_hal_dma.c **** 
1173:Drivers/STM32G0xx_HAL_Driver/Src/stm32g0xx_hal_dma.c ****   /* here "Request" is either DMA_REQUEST_GENERATOR0 to DMA_REQUEST_GENERATOR3, i.e. <= 4*/
1174:Drivers/STM32G0xx_HAL_Driver/Src/stm32g0xx_hal_dma.c ****   hdma->DMAmuxRequestGenStatusMask = 1UL << ((request - 1U) & 0x3U);
 330              		.loc 1 1174 42 view .LVU111
 331 0076 0122     		movs	r2, #1
 332              		.loc 1 1174 55 view .LVU112
 333 0078 013B     		subs	r3, r3, #1
 334              	.LVL15:
 335              		.loc 1 1174 42 view .LVU113
 336 007a 9A40     		lsls	r2, r2, r3
 337              		.loc 1 1174 36 view .LVU114
 338 007c A265     		str	r2, [r4, #88]
 339              		.loc 1 1174 42 view .LVU115
 340 007e 1300     		movs	r3, r2
 341              	.LVL16:
 342              		.loc 1 1174 42 view .LVU116
 343              	.LBE5:
 344              	.LBE4:
 229:Drivers/STM32G0xx_HAL_Driver/Src/stm32g0xx_hal_dma.c **** 
 345              		.loc 1 229 34 view .LVU117
 346 0080 0022     		movs	r2, #0
 347              	.LBB7:
 348              	.LBB6:
1169:Drivers/STM32G0xx_HAL_Driver/Src/stm32g0xx_hal_dma.c **** 
ARM GAS  /tmp/ccbqyIjO.s 			page 29


 349              		.loc 1 1169 58 view .LVU118
 350 0082 8900     		lsls	r1, r1, #2
 351              	.LVL17:
1169:Drivers/STM32G0xx_HAL_Driver/Src/stm32g0xx_hal_dma.c **** 
 352              		.loc 1 1169 26 view .LVU119
 353 0084 2165     		str	r1, [r4, #80]
1171:Drivers/STM32G0xx_HAL_Driver/Src/stm32g0xx_hal_dma.c **** 
 354              		.loc 1 1171 3 is_stmt 1 view .LVU120
1171:Drivers/STM32G0xx_HAL_Driver/Src/stm32g0xx_hal_dma.c **** 
 355              		.loc 1 1171 32 is_stmt 0 view .LVU121
 356 0086 6065     		str	r0, [r4, #84]
 357              		.loc 1 1174 3 is_stmt 1 view .LVU122
 358              	.LVL18:
 359              		.loc 1 1174 3 is_stmt 0 view .LVU123
 360              	.LBE6:
 361              	.LBE7:
 229:Drivers/STM32G0xx_HAL_Driver/Src/stm32g0xx_hal_dma.c **** 
 362              		.loc 1 229 5 is_stmt 1 view .LVU124
 229:Drivers/STM32G0xx_HAL_Driver/Src/stm32g0xx_hal_dma.c **** 
 363              		.loc 1 229 34 is_stmt 0 view .LVU125
 364 0088 0A60     		str	r2, [r1]
 232:Drivers/STM32G0xx_HAL_Driver/Src/stm32g0xx_hal_dma.c ****   }
 365              		.loc 1 232 5 is_stmt 1 view .LVU126
 232:Drivers/STM32G0xx_HAL_Driver/Src/stm32g0xx_hal_dma.c ****   }
 366              		.loc 1 232 41 is_stmt 0 view .LVU127
 367 008a 4360     		str	r3, [r0, #4]
 368              	.L17:
 242:Drivers/STM32G0xx_HAL_Driver/Src/stm32g0xx_hal_dma.c **** 
 369              		.loc 1 242 3 is_stmt 1 view .LVU128
 242:Drivers/STM32G0xx_HAL_Driver/Src/stm32g0xx_hal_dma.c **** 
 370              		.loc 1 242 19 is_stmt 0 view .LVU129
 371 008c 0020     		movs	r0, #0
 245:Drivers/STM32G0xx_HAL_Driver/Src/stm32g0xx_hal_dma.c **** 
 372              		.loc 1 245 15 view .LVU130
 373 008e 0123     		movs	r3, #1
 242:Drivers/STM32G0xx_HAL_Driver/Src/stm32g0xx_hal_dma.c **** 
 374              		.loc 1 242 19 view .LVU131
 375 0090 E063     		str	r0, [r4, #60]
 245:Drivers/STM32G0xx_HAL_Driver/Src/stm32g0xx_hal_dma.c **** 
 376              		.loc 1 245 3 is_stmt 1 view .LVU132
 248:Drivers/STM32G0xx_HAL_Driver/Src/stm32g0xx_hal_dma.c **** 
 377              		.loc 1 248 3 is_stmt 0 view .LVU133
 378 0092 0534     		adds	r4, r4, #5
 379              	.LVL19:
 245:Drivers/STM32G0xx_HAL_Driver/Src/stm32g0xx_hal_dma.c **** 
 380              		.loc 1 245 15 view .LVU134
 381 0094 F377     		strb	r3, [r6, #31]
 248:Drivers/STM32G0xx_HAL_Driver/Src/stm32g0xx_hal_dma.c **** 
 382              		.loc 1 248 3 is_stmt 1 view .LVU135
 248:Drivers/STM32G0xx_HAL_Driver/Src/stm32g0xx_hal_dma.c **** 
 383              		.loc 1 248 3 view .LVU136
 384 0096 E077     		strb	r0, [r4, #31]
 248:Drivers/STM32G0xx_HAL_Driver/Src/stm32g0xx_hal_dma.c **** 
 385              		.loc 1 248 3 view .LVU137
 250:Drivers/STM32G0xx_HAL_Driver/Src/stm32g0xx_hal_dma.c **** }
 386              		.loc 1 250 3 view .LVU138
 387              	.LVL20:
ARM GAS  /tmp/ccbqyIjO.s 			page 30


 388              	.L14:
 251:Drivers/STM32G0xx_HAL_Driver/Src/stm32g0xx_hal_dma.c **** 
 389              		.loc 1 251 1 is_stmt 0 view .LVU139
 390              		@ sp needed
 391 0098 F8BD     		pop	{r3, r4, r5, r6, r7, pc}
 392              	.LVL21:
 393              	.L16:
 236:Drivers/STM32G0xx_HAL_Driver/Src/stm32g0xx_hal_dma.c ****     hdma->DMAmuxRequestGenStatus = 0U;
 394              		.loc 1 236 5 is_stmt 1 view .LVU140
 236:Drivers/STM32G0xx_HAL_Driver/Src/stm32g0xx_hal_dma.c ****     hdma->DMAmuxRequestGenStatus = 0U;
 395              		.loc 1 236 28 is_stmt 0 view .LVU141
 396 009a 0023     		movs	r3, #0
 397 009c 2365     		str	r3, [r4, #80]
 237:Drivers/STM32G0xx_HAL_Driver/Src/stm32g0xx_hal_dma.c ****     hdma->DMAmuxRequestGenStatusMask = 0U;
 398              		.loc 1 237 5 is_stmt 1 view .LVU142
 237:Drivers/STM32G0xx_HAL_Driver/Src/stm32g0xx_hal_dma.c ****     hdma->DMAmuxRequestGenStatusMask = 0U;
 399              		.loc 1 237 34 is_stmt 0 view .LVU143
 400 009e 6365     		str	r3, [r4, #84]
 238:Drivers/STM32G0xx_HAL_Driver/Src/stm32g0xx_hal_dma.c ****   }
 401              		.loc 1 238 5 is_stmt 1 view .LVU144
 238:Drivers/STM32G0xx_HAL_Driver/Src/stm32g0xx_hal_dma.c ****   }
 402              		.loc 1 238 38 is_stmt 0 view .LVU145
 403 00a0 A365     		str	r3, [r4, #88]
 404 00a2 F3E7     		b	.L17
 405              	.L20:
 406              		.align	2
 407              	.L19:
 408 00a4 F8FFFDBF 		.word	-1073872904
 409 00a8 0F80FFFF 		.word	-32753
 410 00ac 3F820010 		.word	268468799
 411 00b0 40090240 		.word	1073875264
 412              		.cfi_endproc
 413              	.LFE420:
 415              		.section	.text.HAL_DMA_DeInit,"ax",%progbits
 416              		.align	1
 417              		.global	HAL_DMA_DeInit
 418              		.syntax unified
 419              		.code	16
 420              		.thumb_func
 422              	HAL_DMA_DeInit:
 423              	.LVL22:
 424              	.LFB421:
 260:Drivers/STM32G0xx_HAL_Driver/Src/stm32g0xx_hal_dma.c ****   /* Check the DMA handle allocation */
 425              		.loc 1 260 1 is_stmt 1 view -0
 426              		.cfi_startproc
 427              		@ args = 0, pretend = 0, frame = 0
 428              		@ frame_needed = 0, uses_anonymous_args = 0
 262:Drivers/STM32G0xx_HAL_Driver/Src/stm32g0xx_hal_dma.c ****   {
 429              		.loc 1 262 3 view .LVU147
 260:Drivers/STM32G0xx_HAL_Driver/Src/stm32g0xx_hal_dma.c ****   /* Check the DMA handle allocation */
 430              		.loc 1 260 1 is_stmt 0 view .LVU148
 431 0000 F8B5     		push	{r3, r4, r5, r6, r7, lr}
 432              	.LCFI3:
 433              		.cfi_def_cfa_offset 24
 434              		.cfi_offset 3, -24
 435              		.cfi_offset 4, -20
 436              		.cfi_offset 5, -16
ARM GAS  /tmp/ccbqyIjO.s 			page 31


 437              		.cfi_offset 6, -12
 438              		.cfi_offset 7, -8
 439              		.cfi_offset 14, -4
 440 0002 0125     		movs	r5, #1
 260:Drivers/STM32G0xx_HAL_Driver/Src/stm32g0xx_hal_dma.c ****   /* Check the DMA handle allocation */
 441              		.loc 1 260 1 view .LVU149
 442 0004 0400     		movs	r4, r0
 264:Drivers/STM32G0xx_HAL_Driver/Src/stm32g0xx_hal_dma.c ****   }
 443              		.loc 1 264 12 view .LVU150
 444 0006 2800     		movs	r0, r5
 445              	.LVL23:
 262:Drivers/STM32G0xx_HAL_Driver/Src/stm32g0xx_hal_dma.c ****   {
 446              		.loc 1 262 6 view .LVU151
 447 0008 002C     		cmp	r4, #0
 448 000a 34D0     		beq	.L22
 268:Drivers/STM32G0xx_HAL_Driver/Src/stm32g0xx_hal_dma.c **** 
 449              		.loc 1 268 3 is_stmt 1 view .LVU152
 271:Drivers/STM32G0xx_HAL_Driver/Src/stm32g0xx_hal_dma.c **** 
 450              		.loc 1 271 3 view .LVU153
 451 000c 2768     		ldr	r7, [r4]
 288:Drivers/STM32G0xx_HAL_Driver/Src/stm32g0xx_hal_dma.c **** #endif /* DMA2 */
 452              		.loc 1 288 78 is_stmt 0 view .LVU154
 453 000e 1421     		movs	r1, #20
 271:Drivers/STM32G0xx_HAL_Driver/Src/stm32g0xx_hal_dma.c **** 
 454              		.loc 1 271 3 view .LVU155
 455 0010 3B68     		ldr	r3, [r7]
 292:Drivers/STM32G0xx_HAL_Driver/Src/stm32g0xx_hal_dma.c **** 
 456              		.loc 1 292 23 view .LVU156
 457 0012 0026     		movs	r6, #0
 271:Drivers/STM32G0xx_HAL_Driver/Src/stm32g0xx_hal_dma.c **** 
 458              		.loc 1 271 3 view .LVU157
 459 0014 AB43     		bics	r3, r5
 460 0016 3B60     		str	r3, [r7]
 288:Drivers/STM32G0xx_HAL_Driver/Src/stm32g0xx_hal_dma.c **** #endif /* DMA2 */
 461              		.loc 1 288 3 is_stmt 1 view .LVU158
 288:Drivers/STM32G0xx_HAL_Driver/Src/stm32g0xx_hal_dma.c **** #endif /* DMA2 */
 462              		.loc 1 288 51 is_stmt 0 view .LVU159
 463 0018 174B     		ldr	r3, .L25
 464 001a F818     		adds	r0, r7, r3
 288:Drivers/STM32G0xx_HAL_Driver/Src/stm32g0xx_hal_dma.c **** #endif /* DMA2 */
 465              		.loc 1 288 78 view .LVU160
 466 001c FFF7FEFF 		bl	__aeabi_uidiv
 467              	.LVL24:
 298:Drivers/STM32G0xx_HAL_Driver/Src/stm32g0xx_hal_dma.c **** #endif /* DMA2 */
 468              		.loc 1 298 3 view .LVU161
 469 0020 1C23     		movs	r3, #28
 288:Drivers/STM32G0xx_HAL_Driver/Src/stm32g0xx_hal_dma.c **** #endif /* DMA2 */
 470              		.loc 1 288 133 view .LVU162
 471 0022 8000     		lsls	r0, r0, #2
 288:Drivers/STM32G0xx_HAL_Driver/Src/stm32g0xx_hal_dma.c **** #endif /* DMA2 */
 472              		.loc 1 288 22 view .LVU163
 473 0024 2064     		str	r0, [r4, #64]
 292:Drivers/STM32G0xx_HAL_Driver/Src/stm32g0xx_hal_dma.c **** 
 474              		.loc 1 292 3 is_stmt 1 view .LVU164
 298:Drivers/STM32G0xx_HAL_Driver/Src/stm32g0xx_hal_dma.c **** #endif /* DMA2 */
 475              		.loc 1 298 3 is_stmt 0 view .LVU165
 476 0026 1840     		ands	r0, r3
ARM GAS  /tmp/ccbqyIjO.s 			page 32


 477 0028 2B00     		movs	r3, r5
 478 002a 8340     		lsls	r3, r3, r0
 479 002c 134A     		ldr	r2, .L25+4
 292:Drivers/STM32G0xx_HAL_Driver/Src/stm32g0xx_hal_dma.c **** 
 480              		.loc 1 292 23 view .LVU166
 481 002e 3E60     		str	r6, [r7]
 298:Drivers/STM32G0xx_HAL_Driver/Src/stm32g0xx_hal_dma.c **** #endif /* DMA2 */
 482              		.loc 1 298 3 is_stmt 1 view .LVU167
 483 0030 5168     		ldr	r1, [r2, #4]
 304:Drivers/STM32G0xx_HAL_Driver/Src/stm32g0xx_hal_dma.c **** 
 484              		.loc 1 304 3 is_stmt 0 view .LVU168
 485 0032 2000     		movs	r0, r4
 298:Drivers/STM32G0xx_HAL_Driver/Src/stm32g0xx_hal_dma.c **** #endif /* DMA2 */
 486              		.loc 1 298 3 view .LVU169
 487 0034 0B43     		orrs	r3, r1
 488 0036 5360     		str	r3, [r2, #4]
 304:Drivers/STM32G0xx_HAL_Driver/Src/stm32g0xx_hal_dma.c **** 
 489              		.loc 1 304 3 is_stmt 1 view .LVU170
 490 0038 FFF7FEFF 		bl	DMA_CalcDMAMUXChannelBaseAndMask
 491              	.LVL25:
 307:Drivers/STM32G0xx_HAL_Driver/Src/stm32g0xx_hal_dma.c **** 
 492              		.loc 1 307 3 view .LVU171
 307:Drivers/STM32G0xx_HAL_Driver/Src/stm32g0xx_hal_dma.c **** 
 493              		.loc 1 307 7 is_stmt 0 view .LVU172
 494 003c 636C     		ldr	r3, [r4, #68]
 310:Drivers/STM32G0xx_HAL_Driver/Src/stm32g0xx_hal_dma.c **** 
 495              		.loc 1 310 40 view .LVU173
 496 003e E26C     		ldr	r2, [r4, #76]
 307:Drivers/STM32G0xx_HAL_Driver/Src/stm32g0xx_hal_dma.c **** 
 497              		.loc 1 307 28 view .LVU174
 498 0040 1E60     		str	r6, [r3]
 310:Drivers/STM32G0xx_HAL_Driver/Src/stm32g0xx_hal_dma.c **** 
 499              		.loc 1 310 3 is_stmt 1 view .LVU175
 310:Drivers/STM32G0xx_HAL_Driver/Src/stm32g0xx_hal_dma.c **** 
 500              		.loc 1 310 7 is_stmt 0 view .LVU176
 501 0042 A36C     		ldr	r3, [r4, #72]
 310:Drivers/STM32G0xx_HAL_Driver/Src/stm32g0xx_hal_dma.c **** 
 502              		.loc 1 310 34 view .LVU177
 503 0044 5A60     		str	r2, [r3, #4]
 313:Drivers/STM32G0xx_HAL_Driver/Src/stm32g0xx_hal_dma.c ****   {
 504              		.loc 1 313 3 is_stmt 1 view .LVU178
 313:Drivers/STM32G0xx_HAL_Driver/Src/stm32g0xx_hal_dma.c ****   {
 505              		.loc 1 313 19 is_stmt 0 view .LVU179
 506 0046 6368     		ldr	r3, [r4, #4]
 313:Drivers/STM32G0xx_HAL_Driver/Src/stm32g0xx_hal_dma.c ****   {
 507              		.loc 1 313 36 view .LVU180
 508 0048 5A1E     		subs	r2, r3, #1
 313:Drivers/STM32G0xx_HAL_Driver/Src/stm32g0xx_hal_dma.c ****   {
 509              		.loc 1 313 6 view .LVU181
 510 004a 032A     		cmp	r2, #3
 511 004c 06D8     		bhi	.L23
 318:Drivers/STM32G0xx_HAL_Driver/Src/stm32g0xx_hal_dma.c **** 
 512              		.loc 1 318 5 is_stmt 1 view .LVU182
 513              	.LVL26:
 514              	.LBB10:
 515              	.LBI10:
1164:Drivers/STM32G0xx_HAL_Driver/Src/stm32g0xx_hal_dma.c **** {
ARM GAS  /tmp/ccbqyIjO.s 			page 33


 516              		.loc 1 1164 13 view .LVU183
 517              	.LBB11:
1166:Drivers/STM32G0xx_HAL_Driver/Src/stm32g0xx_hal_dma.c **** 
 518              		.loc 1 1166 3 view .LVU184
1169:Drivers/STM32G0xx_HAL_Driver/Src/stm32g0xx_hal_dma.c **** 
 519              		.loc 1 1169 3 view .LVU185
 520              		.loc 1 1174 42 is_stmt 0 view .LVU186
 521 004e 9540     		lsls	r5, r5, r2
1169:Drivers/STM32G0xx_HAL_Driver/Src/stm32g0xx_hal_dma.c **** 
 522              		.loc 1 1169 58 view .LVU187
 523 0050 0B49     		ldr	r1, .L25+8
 524 0052 5B18     		adds	r3, r3, r1
 525              	.LVL27:
1169:Drivers/STM32G0xx_HAL_Driver/Src/stm32g0xx_hal_dma.c **** 
 526              		.loc 1 1169 58 view .LVU188
 527 0054 9B00     		lsls	r3, r3, #2
1171:Drivers/STM32G0xx_HAL_Driver/Src/stm32g0xx_hal_dma.c **** 
 528              		.loc 1 1171 3 is_stmt 1 view .LVU189
 529              		.loc 1 1174 3 view .LVU190
 530              	.LVL28:
 531              		.loc 1 1174 3 is_stmt 0 view .LVU191
 532              	.LBE11:
 533              	.LBE10:
 321:Drivers/STM32G0xx_HAL_Driver/Src/stm32g0xx_hal_dma.c **** 
 534              		.loc 1 321 5 is_stmt 1 view .LVU192
 321:Drivers/STM32G0xx_HAL_Driver/Src/stm32g0xx_hal_dma.c **** 
 535              		.loc 1 321 34 is_stmt 0 view .LVU193
 536 0056 1E60     		str	r6, [r3]
 324:Drivers/STM32G0xx_HAL_Driver/Src/stm32g0xx_hal_dma.c ****   }
 537              		.loc 1 324 5 is_stmt 1 view .LVU194
 324:Drivers/STM32G0xx_HAL_Driver/Src/stm32g0xx_hal_dma.c ****   }
 538              		.loc 1 324 41 is_stmt 0 view .LVU195
 539 0058 0A4B     		ldr	r3, .L25+12
 540 005a 5D60     		str	r5, [r3, #4]
 541              	.L23:
 327:Drivers/STM32G0xx_HAL_Driver/Src/stm32g0xx_hal_dma.c ****   hdma->DMAmuxRequestGenStatus = 0U;
 542              		.loc 1 327 3 is_stmt 1 view .LVU196
 327:Drivers/STM32G0xx_HAL_Driver/Src/stm32g0xx_hal_dma.c ****   hdma->DMAmuxRequestGenStatus = 0U;
 543              		.loc 1 327 26 is_stmt 0 view .LVU197
 544 005c 0020     		movs	r0, #0
 341:Drivers/STM32G0xx_HAL_Driver/Src/stm32g0xx_hal_dma.c **** 
 545              		.loc 1 341 15 view .LVU198
 546 005e A31D     		adds	r3, r4, #6
 327:Drivers/STM32G0xx_HAL_Driver/Src/stm32g0xx_hal_dma.c ****   hdma->DMAmuxRequestGenStatus = 0U;
 547              		.loc 1 327 26 view .LVU199
 548 0060 2065     		str	r0, [r4, #80]
 328:Drivers/STM32G0xx_HAL_Driver/Src/stm32g0xx_hal_dma.c ****   hdma->DMAmuxRequestGenStatusMask = 0U;
 549              		.loc 1 328 3 is_stmt 1 view .LVU200
 328:Drivers/STM32G0xx_HAL_Driver/Src/stm32g0xx_hal_dma.c ****   hdma->DMAmuxRequestGenStatusMask = 0U;
 550              		.loc 1 328 32 is_stmt 0 view .LVU201
 551 0062 6065     		str	r0, [r4, #84]
 329:Drivers/STM32G0xx_HAL_Driver/Src/stm32g0xx_hal_dma.c **** 
 552              		.loc 1 329 3 is_stmt 1 view .LVU202
 329:Drivers/STM32G0xx_HAL_Driver/Src/stm32g0xx_hal_dma.c **** 
 553              		.loc 1 329 36 is_stmt 0 view .LVU203
 554 0064 A065     		str	r0, [r4, #88]
 332:Drivers/STM32G0xx_HAL_Driver/Src/stm32g0xx_hal_dma.c ****   hdma->XferHalfCpltCallback = NULL;
ARM GAS  /tmp/ccbqyIjO.s 			page 34


 555              		.loc 1 332 3 is_stmt 1 view .LVU204
 332:Drivers/STM32G0xx_HAL_Driver/Src/stm32g0xx_hal_dma.c ****   hdma->XferHalfCpltCallback = NULL;
 556              		.loc 1 332 26 is_stmt 0 view .LVU205
 557 0066 E062     		str	r0, [r4, #44]
 333:Drivers/STM32G0xx_HAL_Driver/Src/stm32g0xx_hal_dma.c ****   hdma->XferErrorCallback = NULL;
 558              		.loc 1 333 3 is_stmt 1 view .LVU206
 333:Drivers/STM32G0xx_HAL_Driver/Src/stm32g0xx_hal_dma.c ****   hdma->XferErrorCallback = NULL;
 559              		.loc 1 333 30 is_stmt 0 view .LVU207
 560 0068 2063     		str	r0, [r4, #48]
 334:Drivers/STM32G0xx_HAL_Driver/Src/stm32g0xx_hal_dma.c ****   hdma->XferAbortCallback = NULL;
 561              		.loc 1 334 3 is_stmt 1 view .LVU208
 334:Drivers/STM32G0xx_HAL_Driver/Src/stm32g0xx_hal_dma.c ****   hdma->XferAbortCallback = NULL;
 562              		.loc 1 334 27 is_stmt 0 view .LVU209
 563 006a 6063     		str	r0, [r4, #52]
 335:Drivers/STM32G0xx_HAL_Driver/Src/stm32g0xx_hal_dma.c **** 
 564              		.loc 1 335 3 is_stmt 1 view .LVU210
 335:Drivers/STM32G0xx_HAL_Driver/Src/stm32g0xx_hal_dma.c **** 
 565              		.loc 1 335 27 is_stmt 0 view .LVU211
 566 006c A063     		str	r0, [r4, #56]
 338:Drivers/STM32G0xx_HAL_Driver/Src/stm32g0xx_hal_dma.c **** 
 567              		.loc 1 338 3 is_stmt 1 view .LVU212
 338:Drivers/STM32G0xx_HAL_Driver/Src/stm32g0xx_hal_dma.c **** 
 568              		.loc 1 338 19 is_stmt 0 view .LVU213
 569 006e E063     		str	r0, [r4, #60]
 341:Drivers/STM32G0xx_HAL_Driver/Src/stm32g0xx_hal_dma.c **** 
 570              		.loc 1 341 3 is_stmt 1 view .LVU214
 344:Drivers/STM32G0xx_HAL_Driver/Src/stm32g0xx_hal_dma.c **** 
 571              		.loc 1 344 3 is_stmt 0 view .LVU215
 572 0070 0534     		adds	r4, r4, #5
 573              	.LVL29:
 341:Drivers/STM32G0xx_HAL_Driver/Src/stm32g0xx_hal_dma.c **** 
 574              		.loc 1 341 15 view .LVU216
 575 0072 D877     		strb	r0, [r3, #31]
 344:Drivers/STM32G0xx_HAL_Driver/Src/stm32g0xx_hal_dma.c **** 
 576              		.loc 1 344 3 is_stmt 1 view .LVU217
 344:Drivers/STM32G0xx_HAL_Driver/Src/stm32g0xx_hal_dma.c **** 
 577              		.loc 1 344 3 view .LVU218
 578 0074 E077     		strb	r0, [r4, #31]
 344:Drivers/STM32G0xx_HAL_Driver/Src/stm32g0xx_hal_dma.c **** 
 579              		.loc 1 344 3 view .LVU219
 346:Drivers/STM32G0xx_HAL_Driver/Src/stm32g0xx_hal_dma.c **** }
 580              		.loc 1 346 3 view .LVU220
 581              	.LVL30:
 582              	.L22:
 347:Drivers/STM32G0xx_HAL_Driver/Src/stm32g0xx_hal_dma.c **** 
 583              		.loc 1 347 1 is_stmt 0 view .LVU221
 584              		@ sp needed
 585 0076 F8BD     		pop	{r3, r4, r5, r6, r7, pc}
 586              	.L26:
 587              		.align	2
 588              	.L25:
 589 0078 F8FFFDBF 		.word	-1073872904
 590 007c 00000240 		.word	1073872896
 591 0080 3F820010 		.word	268468799
 592 0084 40090240 		.word	1073875264
 593              		.cfi_endproc
 594              	.LFE421:
ARM GAS  /tmp/ccbqyIjO.s 			page 35


 596              		.section	.text.HAL_DMA_Start,"ax",%progbits
 597              		.align	1
 598              		.global	HAL_DMA_Start
 599              		.syntax unified
 600              		.code	16
 601              		.thumb_func
 603              	HAL_DMA_Start:
 604              	.LVL31:
 605              	.LFB422:
 383:Drivers/STM32G0xx_HAL_Driver/Src/stm32g0xx_hal_dma.c ****   HAL_StatusTypeDef status = HAL_OK;
 606              		.loc 1 383 1 is_stmt 1 view -0
 607              		.cfi_startproc
 608              		@ args = 0, pretend = 0, frame = 8
 609              		@ frame_needed = 0, uses_anonymous_args = 0
 384:Drivers/STM32G0xx_HAL_Driver/Src/stm32g0xx_hal_dma.c **** 
 610              		.loc 1 384 3 view .LVU223
 387:Drivers/STM32G0xx_HAL_Driver/Src/stm32g0xx_hal_dma.c **** 
 611              		.loc 1 387 3 view .LVU224
 390:Drivers/STM32G0xx_HAL_Driver/Src/stm32g0xx_hal_dma.c **** 
 612              		.loc 1 390 3 view .LVU225
 390:Drivers/STM32G0xx_HAL_Driver/Src/stm32g0xx_hal_dma.c **** 
 613              		.loc 1 390 3 view .LVU226
 383:Drivers/STM32G0xx_HAL_Driver/Src/stm32g0xx_hal_dma.c ****   HAL_StatusTypeDef status = HAL_OK;
 614              		.loc 1 383 1 is_stmt 0 view .LVU227
 615 0000 F7B5     		push	{r0, r1, r2, r4, r5, r6, r7, lr}
 616              	.LCFI4:
 617              		.cfi_def_cfa_offset 32
 618              		.cfi_offset 0, -32
 619              		.cfi_offset 1, -28
 620              		.cfi_offset 2, -24
 621              		.cfi_offset 4, -20
 622              		.cfi_offset 5, -16
 623              		.cfi_offset 6, -12
 624              		.cfi_offset 7, -8
 625              		.cfi_offset 14, -4
 383:Drivers/STM32G0xx_HAL_Driver/Src/stm32g0xx_hal_dma.c ****   HAL_StatusTypeDef status = HAL_OK;
 626              		.loc 1 383 1 view .LVU228
 627 0002 0091     		str	r1, [sp]
 628 0004 0193     		str	r3, [sp, #4]
 390:Drivers/STM32G0xx_HAL_Driver/Src/stm32g0xx_hal_dma.c **** 
 629              		.loc 1 390 3 view .LVU229
 630 0006 411D     		adds	r1, r0, #5
 631              	.LVL32:
 390:Drivers/STM32G0xx_HAL_Driver/Src/stm32g0xx_hal_dma.c **** 
 632              		.loc 1 390 3 view .LVU230
 633 0008 CD7F     		ldrb	r5, [r1, #31]
 383:Drivers/STM32G0xx_HAL_Driver/Src/stm32g0xx_hal_dma.c ****   HAL_StatusTypeDef status = HAL_OK;
 634              		.loc 1 383 1 view .LVU231
 635 000a 0400     		movs	r4, r0
 390:Drivers/STM32G0xx_HAL_Driver/Src/stm32g0xx_hal_dma.c **** 
 636              		.loc 1 390 3 discriminator 1 view .LVU232
 637 000c 0220     		movs	r0, #2
 638              	.LVL33:
 390:Drivers/STM32G0xx_HAL_Driver/Src/stm32g0xx_hal_dma.c **** 
 639              		.loc 1 390 3 view .LVU233
 640 000e 012D     		cmp	r5, #1
 641 0010 19D0     		beq	.L28
ARM GAS  /tmp/ccbqyIjO.s 			page 36


 390:Drivers/STM32G0xx_HAL_Driver/Src/stm32g0xx_hal_dma.c **** 
 642              		.loc 1 390 3 is_stmt 1 discriminator 2 view .LVU234
 643 0012 0138     		subs	r0, r0, #1
 644 0014 C877     		strb	r0, [r1, #31]
 390:Drivers/STM32G0xx_HAL_Driver/Src/stm32g0xx_hal_dma.c **** 
 645              		.loc 1 390 3 discriminator 2 view .LVU235
 392:Drivers/STM32G0xx_HAL_Driver/Src/stm32g0xx_hal_dma.c ****   {
 646              		.loc 1 392 3 view .LVU236
 392:Drivers/STM32G0xx_HAL_Driver/Src/stm32g0xx_hal_dma.c ****   {
 647              		.loc 1 392 11 is_stmt 0 view .LVU237
 648 0016 A71D     		adds	r7, r4, #6
 649 0018 FD7F     		ldrb	r5, [r7, #31]
 650 001a 0026     		movs	r6, #0
 651 001c AC46     		mov	ip, r5
 392:Drivers/STM32G0xx_HAL_Driver/Src/stm32g0xx_hal_dma.c ****   {
 652              		.loc 1 392 6 view .LVU238
 653 001e 6346     		mov	r3, ip
 654              	.LVL34:
 392:Drivers/STM32G0xx_HAL_Driver/Src/stm32g0xx_hal_dma.c ****   {
 655              		.loc 1 392 11 view .LVU239
 656 0020 EDB2     		uxtb	r5, r5
 392:Drivers/STM32G0xx_HAL_Driver/Src/stm32g0xx_hal_dma.c ****   {
 657              		.loc 1 392 6 view .LVU240
 658 0022 8342     		cmp	r3, r0
 659 0024 10D1     		bne	.L29
 395:Drivers/STM32G0xx_HAL_Driver/Src/stm32g0xx_hal_dma.c **** 
 660              		.loc 1 395 5 is_stmt 1 view .LVU241
 395:Drivers/STM32G0xx_HAL_Driver/Src/stm32g0xx_hal_dma.c **** 
 661              		.loc 1 395 17 is_stmt 0 view .LVU242
 662 0026 0221     		movs	r1, #2
 663 0028 F977     		strb	r1, [r7, #31]
 398:Drivers/STM32G0xx_HAL_Driver/Src/stm32g0xx_hal_dma.c **** 
 664              		.loc 1 398 5 is_stmt 1 view .LVU243
 401:Drivers/STM32G0xx_HAL_Driver/Src/stm32g0xx_hal_dma.c **** 
 665              		.loc 1 401 5 is_stmt 0 view .LVU244
 666 002a 2768     		ldr	r7, [r4]
 398:Drivers/STM32G0xx_HAL_Driver/Src/stm32g0xx_hal_dma.c **** 
 667              		.loc 1 398 21 view .LVU245
 668 002c E663     		str	r6, [r4, #60]
 401:Drivers/STM32G0xx_HAL_Driver/Src/stm32g0xx_hal_dma.c **** 
 669              		.loc 1 401 5 is_stmt 1 view .LVU246
 670 002e 3968     		ldr	r1, [r7]
 404:Drivers/STM32G0xx_HAL_Driver/Src/stm32g0xx_hal_dma.c **** 
 671              		.loc 1 404 5 is_stmt 0 view .LVU247
 672 0030 2000     		movs	r0, r4
 401:Drivers/STM32G0xx_HAL_Driver/Src/stm32g0xx_hal_dma.c **** 
 673              		.loc 1 401 5 view .LVU248
 674 0032 A943     		bics	r1, r5
 404:Drivers/STM32G0xx_HAL_Driver/Src/stm32g0xx_hal_dma.c **** 
 675              		.loc 1 404 5 view .LVU249
 676 0034 019B     		ldr	r3, [sp, #4]
 401:Drivers/STM32G0xx_HAL_Driver/Src/stm32g0xx_hal_dma.c **** 
 677              		.loc 1 401 5 view .LVU250
 678 0036 3960     		str	r1, [r7]
 404:Drivers/STM32G0xx_HAL_Driver/Src/stm32g0xx_hal_dma.c **** 
 679              		.loc 1 404 5 is_stmt 1 view .LVU251
 680 0038 0099     		ldr	r1, [sp]
ARM GAS  /tmp/ccbqyIjO.s 			page 37


 681 003a FFF7FEFF 		bl	DMA_SetConfig
 682              	.LVL35:
 407:Drivers/STM32G0xx_HAL_Driver/Src/stm32g0xx_hal_dma.c ****   }
 683              		.loc 1 407 5 view .LVU252
 384:Drivers/STM32G0xx_HAL_Driver/Src/stm32g0xx_hal_dma.c **** 
 684              		.loc 1 384 21 is_stmt 0 view .LVU253
 685 003e 3000     		movs	r0, r6
 407:Drivers/STM32G0xx_HAL_Driver/Src/stm32g0xx_hal_dma.c ****   }
 686              		.loc 1 407 5 view .LVU254
 687 0040 3B68     		ldr	r3, [r7]
 688 0042 1D43     		orrs	r5, r3
 689 0044 3D60     		str	r5, [r7]
 690              	.LVL36:
 691              	.L28:
 422:Drivers/STM32G0xx_HAL_Driver/Src/stm32g0xx_hal_dma.c **** 
 692              		.loc 1 422 1 view .LVU255
 693              		@ sp needed
 694              	.LVL37:
 422:Drivers/STM32G0xx_HAL_Driver/Src/stm32g0xx_hal_dma.c **** 
 695              		.loc 1 422 1 view .LVU256
 696 0046 FEBD     		pop	{r1, r2, r3, r4, r5, r6, r7, pc}
 697              	.LVL38:
 698              	.L29:
 412:Drivers/STM32G0xx_HAL_Driver/Src/stm32g0xx_hal_dma.c **** 
 699              		.loc 1 412 5 is_stmt 1 view .LVU257
 412:Drivers/STM32G0xx_HAL_Driver/Src/stm32g0xx_hal_dma.c **** 
 700              		.loc 1 412 21 is_stmt 0 view .LVU258
 701 0048 8023     		movs	r3, #128
 702 004a E363     		str	r3, [r4, #60]
 415:Drivers/STM32G0xx_HAL_Driver/Src/stm32g0xx_hal_dma.c **** 
 703              		.loc 1 415 5 is_stmt 1 view .LVU259
 415:Drivers/STM32G0xx_HAL_Driver/Src/stm32g0xx_hal_dma.c **** 
 704              		.loc 1 415 5 view .LVU260
 705 004c CE77     		strb	r6, [r1, #31]
 415:Drivers/STM32G0xx_HAL_Driver/Src/stm32g0xx_hal_dma.c **** 
 706              		.loc 1 415 5 view .LVU261
 418:Drivers/STM32G0xx_HAL_Driver/Src/stm32g0xx_hal_dma.c ****   }
 707              		.loc 1 418 5 view .LVU262
 708              	.LVL39:
 418:Drivers/STM32G0xx_HAL_Driver/Src/stm32g0xx_hal_dma.c ****   }
 709              		.loc 1 418 5 is_stmt 0 view .LVU263
 710 004e FAE7     		b	.L28
 711              		.cfi_endproc
 712              	.LFE422:
 714              		.section	.text.HAL_DMA_Start_IT,"ax",%progbits
 715              		.align	1
 716              		.global	HAL_DMA_Start_IT
 717              		.syntax unified
 718              		.code	16
 719              		.thumb_func
 721              	HAL_DMA_Start_IT:
 722              	.LVL40:
 723              	.LFB423:
 435:Drivers/STM32G0xx_HAL_Driver/Src/stm32g0xx_hal_dma.c ****   HAL_StatusTypeDef status = HAL_OK;
 724              		.loc 1 435 1 is_stmt 1 view -0
 725              		.cfi_startproc
 726              		@ args = 0, pretend = 0, frame = 8
ARM GAS  /tmp/ccbqyIjO.s 			page 38


 727              		@ frame_needed = 0, uses_anonymous_args = 0
 436:Drivers/STM32G0xx_HAL_Driver/Src/stm32g0xx_hal_dma.c **** 
 728              		.loc 1 436 3 view .LVU265
 439:Drivers/STM32G0xx_HAL_Driver/Src/stm32g0xx_hal_dma.c **** 
 729              		.loc 1 439 3 view .LVU266
 442:Drivers/STM32G0xx_HAL_Driver/Src/stm32g0xx_hal_dma.c **** 
 730              		.loc 1 442 3 view .LVU267
 442:Drivers/STM32G0xx_HAL_Driver/Src/stm32g0xx_hal_dma.c **** 
 731              		.loc 1 442 3 view .LVU268
 435:Drivers/STM32G0xx_HAL_Driver/Src/stm32g0xx_hal_dma.c ****   HAL_StatusTypeDef status = HAL_OK;
 732              		.loc 1 435 1 is_stmt 0 view .LVU269
 733 0000 F7B5     		push	{r0, r1, r2, r4, r5, r6, r7, lr}
 734              	.LCFI5:
 735              		.cfi_def_cfa_offset 32
 736              		.cfi_offset 0, -32
 737              		.cfi_offset 1, -28
 738              		.cfi_offset 2, -24
 739              		.cfi_offset 4, -20
 740              		.cfi_offset 5, -16
 741              		.cfi_offset 6, -12
 742              		.cfi_offset 7, -8
 743              		.cfi_offset 14, -4
 442:Drivers/STM32G0xx_HAL_Driver/Src/stm32g0xx_hal_dma.c **** 
 744              		.loc 1 442 3 view .LVU270
 745 0002 451D     		adds	r5, r0, #5
 435:Drivers/STM32G0xx_HAL_Driver/Src/stm32g0xx_hal_dma.c ****   HAL_StatusTypeDef status = HAL_OK;
 746              		.loc 1 435 1 view .LVU271
 747 0004 0193     		str	r3, [sp, #4]
 442:Drivers/STM32G0xx_HAL_Driver/Src/stm32g0xx_hal_dma.c **** 
 748              		.loc 1 442 3 view .LVU272
 749 0006 EE7F     		ldrb	r6, [r5, #31]
 435:Drivers/STM32G0xx_HAL_Driver/Src/stm32g0xx_hal_dma.c ****   HAL_StatusTypeDef status = HAL_OK;
 750              		.loc 1 435 1 view .LVU273
 751 0008 0400     		movs	r4, r0
 442:Drivers/STM32G0xx_HAL_Driver/Src/stm32g0xx_hal_dma.c **** 
 752              		.loc 1 442 3 discriminator 1 view .LVU274
 753 000a 0220     		movs	r0, #2
 754              	.LVL41:
 442:Drivers/STM32G0xx_HAL_Driver/Src/stm32g0xx_hal_dma.c **** 
 755              		.loc 1 442 3 view .LVU275
 756 000c 012E     		cmp	r6, #1
 757 000e 33D0     		beq	.L32
 442:Drivers/STM32G0xx_HAL_Driver/Src/stm32g0xx_hal_dma.c **** 
 758              		.loc 1 442 3 is_stmt 1 discriminator 2 view .LVU276
 759 0010 0138     		subs	r0, r0, #1
 760 0012 E877     		strb	r0, [r5, #31]
 442:Drivers/STM32G0xx_HAL_Driver/Src/stm32g0xx_hal_dma.c **** 
 761              		.loc 1 442 3 discriminator 2 view .LVU277
 444:Drivers/STM32G0xx_HAL_Driver/Src/stm32g0xx_hal_dma.c ****   {
 762              		.loc 1 444 3 view .LVU278
 444:Drivers/STM32G0xx_HAL_Driver/Src/stm32g0xx_hal_dma.c ****   {
 763              		.loc 1 444 11 is_stmt 0 view .LVU279
 764 0014 A71D     		adds	r7, r4, #6
 765 0016 FE7F     		ldrb	r6, [r7, #31]
 766 0018 B446     		mov	ip, r6
 444:Drivers/STM32G0xx_HAL_Driver/Src/stm32g0xx_hal_dma.c ****   {
 767              		.loc 1 444 6 view .LVU280
ARM GAS  /tmp/ccbqyIjO.s 			page 39


 768 001a 6346     		mov	r3, ip
 769              	.LVL42:
 444:Drivers/STM32G0xx_HAL_Driver/Src/stm32g0xx_hal_dma.c ****   {
 770              		.loc 1 444 11 view .LVU281
 771 001c F6B2     		uxtb	r6, r6
 772 001e 0096     		str	r6, [sp]
 773 0020 0026     		movs	r6, #0
 444:Drivers/STM32G0xx_HAL_Driver/Src/stm32g0xx_hal_dma.c ****   {
 774              		.loc 1 444 6 view .LVU282
 775 0022 8342     		cmp	r3, r0
 776 0024 30D1     		bne	.L33
 447:Drivers/STM32G0xx_HAL_Driver/Src/stm32g0xx_hal_dma.c ****     hdma->ErrorCode = HAL_DMA_ERROR_NONE;
 777              		.loc 1 447 5 is_stmt 1 view .LVU283
 447:Drivers/STM32G0xx_HAL_Driver/Src/stm32g0xx_hal_dma.c ****     hdma->ErrorCode = HAL_DMA_ERROR_NONE;
 778              		.loc 1 447 17 is_stmt 0 view .LVU284
 779 0026 0130     		adds	r0, r0, #1
 780 0028 F877     		strb	r0, [r7, #31]
 448:Drivers/STM32G0xx_HAL_Driver/Src/stm32g0xx_hal_dma.c **** 
 781              		.loc 1 448 5 is_stmt 1 view .LVU285
 451:Drivers/STM32G0xx_HAL_Driver/Src/stm32g0xx_hal_dma.c **** 
 782              		.loc 1 451 5 is_stmt 0 view .LVU286
 783 002a 2568     		ldr	r5, [r4]
 448:Drivers/STM32G0xx_HAL_Driver/Src/stm32g0xx_hal_dma.c **** 
 784              		.loc 1 448 21 view .LVU287
 785 002c E663     		str	r6, [r4, #60]
 451:Drivers/STM32G0xx_HAL_Driver/Src/stm32g0xx_hal_dma.c **** 
 786              		.loc 1 451 5 is_stmt 1 view .LVU288
 787 002e 2868     		ldr	r0, [r5]
 788 0030 009B     		ldr	r3, [sp]
 789 0032 9843     		bics	r0, r3
 790 0034 2860     		str	r0, [r5]
 454:Drivers/STM32G0xx_HAL_Driver/Src/stm32g0xx_hal_dma.c **** 
 791              		.loc 1 454 5 view .LVU289
 792 0036 019B     		ldr	r3, [sp, #4]
 793 0038 2000     		movs	r0, r4
 794 003a FFF7FEFF 		bl	DMA_SetConfig
 795              	.LVL43:
 458:Drivers/STM32G0xx_HAL_Driver/Src/stm32g0xx_hal_dma.c ****     {
 796              		.loc 1 458 5 view .LVU290
 458:Drivers/STM32G0xx_HAL_Driver/Src/stm32g0xx_hal_dma.c ****     {
 797              		.loc 1 458 8 is_stmt 0 view .LVU291
 798 003e 236B     		ldr	r3, [r4, #48]
 799 0040 B342     		cmp	r3, r6
 800 0042 1AD0     		beq	.L34
 461:Drivers/STM32G0xx_HAL_Driver/Src/stm32g0xx_hal_dma.c ****     }
 801              		.loc 1 461 7 is_stmt 1 view .LVU292
 802 0044 0E23     		movs	r3, #14
 803 0046 2A68     		ldr	r2, [r5]
 804              	.L46:
 466:Drivers/STM32G0xx_HAL_Driver/Src/stm32g0xx_hal_dma.c ****     }
 805              		.loc 1 466 7 is_stmt 0 view .LVU293
 806 0048 1343     		orrs	r3, r2
 807 004a 2B60     		str	r3, [r5]
 470:Drivers/STM32G0xx_HAL_Driver/Src/stm32g0xx_hal_dma.c ****     {
 808              		.loc 1 470 5 is_stmt 1 view .LVU294
 470:Drivers/STM32G0xx_HAL_Driver/Src/stm32g0xx_hal_dma.c ****     {
 809              		.loc 1 470 14 is_stmt 0 view .LVU295
ARM GAS  /tmp/ccbqyIjO.s 			page 40


 810 004c 636C     		ldr	r3, [r4, #68]
 470:Drivers/STM32G0xx_HAL_Driver/Src/stm32g0xx_hal_dma.c ****     {
 811              		.loc 1 470 29 view .LVU296
 812 004e 1A68     		ldr	r2, [r3]
 470:Drivers/STM32G0xx_HAL_Driver/Src/stm32g0xx_hal_dma.c ****     {
 813              		.loc 1 470 8 view .LVU297
 814 0050 D203     		lsls	r2, r2, #15
 815 0052 04D5     		bpl	.L36
 473:Drivers/STM32G0xx_HAL_Driver/Src/stm32g0xx_hal_dma.c ****     }
 816              		.loc 1 473 7 is_stmt 1 view .LVU298
 473:Drivers/STM32G0xx_HAL_Driver/Src/stm32g0xx_hal_dma.c ****     }
 817              		.loc 1 473 32 is_stmt 0 view .LVU299
 818 0054 8022     		movs	r2, #128
 473:Drivers/STM32G0xx_HAL_Driver/Src/stm32g0xx_hal_dma.c ****     }
 819              		.loc 1 473 26 view .LVU300
 820 0056 1968     		ldr	r1, [r3]
 473:Drivers/STM32G0xx_HAL_Driver/Src/stm32g0xx_hal_dma.c ****     }
 821              		.loc 1 473 32 view .LVU301
 822 0058 5200     		lsls	r2, r2, #1
 823 005a 0A43     		orrs	r2, r1
 824 005c 1A60     		str	r2, [r3]
 825              	.L36:
 476:Drivers/STM32G0xx_HAL_Driver/Src/stm32g0xx_hal_dma.c ****     {
 826              		.loc 1 476 5 is_stmt 1 view .LVU302
 476:Drivers/STM32G0xx_HAL_Driver/Src/stm32g0xx_hal_dma.c ****     {
 827              		.loc 1 476 13 is_stmt 0 view .LVU303
 828 005e 236D     		ldr	r3, [r4, #80]
 476:Drivers/STM32G0xx_HAL_Driver/Src/stm32g0xx_hal_dma.c ****     {
 829              		.loc 1 476 8 view .LVU304
 830 0060 002B     		cmp	r3, #0
 831 0062 04D0     		beq	.L37
 480:Drivers/STM32G0xx_HAL_Driver/Src/stm32g0xx_hal_dma.c ****     }
 832              		.loc 1 480 7 is_stmt 1 view .LVU305
 480:Drivers/STM32G0xx_HAL_Driver/Src/stm32g0xx_hal_dma.c ****     }
 833              		.loc 1 480 36 is_stmt 0 view .LVU306
 834 0064 8022     		movs	r2, #128
 480:Drivers/STM32G0xx_HAL_Driver/Src/stm32g0xx_hal_dma.c ****     }
 835              		.loc 1 480 29 view .LVU307
 836 0066 1968     		ldr	r1, [r3]
 480:Drivers/STM32G0xx_HAL_Driver/Src/stm32g0xx_hal_dma.c ****     }
 837              		.loc 1 480 36 view .LVU308
 838 0068 5200     		lsls	r2, r2, #1
 839 006a 0A43     		orrs	r2, r1
 840 006c 1A60     		str	r2, [r3]
 841              	.L37:
 484:Drivers/STM32G0xx_HAL_Driver/Src/stm32g0xx_hal_dma.c ****   }
 842              		.loc 1 484 5 is_stmt 1 view .LVU309
 843 006e 0123     		movs	r3, #1
 436:Drivers/STM32G0xx_HAL_Driver/Src/stm32g0xx_hal_dma.c **** 
 844              		.loc 1 436 21 is_stmt 0 view .LVU310
 845 0070 0020     		movs	r0, #0
 484:Drivers/STM32G0xx_HAL_Driver/Src/stm32g0xx_hal_dma.c ****   }
 846              		.loc 1 484 5 view .LVU311
 847 0072 2A68     		ldr	r2, [r5]
 848 0074 1343     		orrs	r3, r2
 849 0076 2B60     		str	r3, [r5]
 850              	.LVL44:
ARM GAS  /tmp/ccbqyIjO.s 			page 41


 851              	.L32:
 499:Drivers/STM32G0xx_HAL_Driver/Src/stm32g0xx_hal_dma.c **** 
 852              		.loc 1 499 1 view .LVU312
 853              		@ sp needed
 854              	.LVL45:
 499:Drivers/STM32G0xx_HAL_Driver/Src/stm32g0xx_hal_dma.c **** 
 855              		.loc 1 499 1 view .LVU313
 856 0078 FEBD     		pop	{r1, r2, r3, r4, r5, r6, r7, pc}
 857              	.LVL46:
 858              	.L34:
 465:Drivers/STM32G0xx_HAL_Driver/Src/stm32g0xx_hal_dma.c ****       __HAL_DMA_ENABLE_IT(hdma, (DMA_IT_TC | DMA_IT_TE));
 859              		.loc 1 465 7 is_stmt 1 view .LVU314
 860 007a 0422     		movs	r2, #4
 861 007c 2B68     		ldr	r3, [r5]
 862 007e 9343     		bics	r3, r2
 863 0080 2B60     		str	r3, [r5]
 466:Drivers/STM32G0xx_HAL_Driver/Src/stm32g0xx_hal_dma.c ****     }
 864              		.loc 1 466 7 view .LVU315
 865 0082 2A68     		ldr	r2, [r5]
 866 0084 0A23     		movs	r3, #10
 867 0086 DFE7     		b	.L46
 868              	.LVL47:
 869              	.L33:
 489:Drivers/STM32G0xx_HAL_Driver/Src/stm32g0xx_hal_dma.c **** 
 870              		.loc 1 489 5 view .LVU316
 489:Drivers/STM32G0xx_HAL_Driver/Src/stm32g0xx_hal_dma.c **** 
 871              		.loc 1 489 21 is_stmt 0 view .LVU317
 872 0088 8023     		movs	r3, #128
 873 008a E363     		str	r3, [r4, #60]
 492:Drivers/STM32G0xx_HAL_Driver/Src/stm32g0xx_hal_dma.c **** 
 874              		.loc 1 492 5 is_stmt 1 view .LVU318
 492:Drivers/STM32G0xx_HAL_Driver/Src/stm32g0xx_hal_dma.c **** 
 875              		.loc 1 492 5 view .LVU319
 876 008c EE77     		strb	r6, [r5, #31]
 492:Drivers/STM32G0xx_HAL_Driver/Src/stm32g0xx_hal_dma.c **** 
 877              		.loc 1 492 5 view .LVU320
 495:Drivers/STM32G0xx_HAL_Driver/Src/stm32g0xx_hal_dma.c ****   }
 878              		.loc 1 495 5 view .LVU321
 879              	.LVL48:
 495:Drivers/STM32G0xx_HAL_Driver/Src/stm32g0xx_hal_dma.c ****   }
 880              		.loc 1 495 5 is_stmt 0 view .LVU322
 881 008e F3E7     		b	.L32
 882              		.cfi_endproc
 883              	.LFE423:
 885              		.section	.text.HAL_DMA_Abort,"ax",%progbits
 886              		.align	1
 887              		.global	HAL_DMA_Abort
 888              		.syntax unified
 889              		.code	16
 890              		.thumb_func
 892              	HAL_DMA_Abort:
 893              	.LVL49:
 894              	.LFB424:
 508:Drivers/STM32G0xx_HAL_Driver/Src/stm32g0xx_hal_dma.c ****   /* Check the DMA peripheral handle */
 895              		.loc 1 508 1 is_stmt 1 view -0
 896              		.cfi_startproc
 897              		@ args = 0, pretend = 0, frame = 0
ARM GAS  /tmp/ccbqyIjO.s 			page 42


 898              		@ frame_needed = 0, uses_anonymous_args = 0
 510:Drivers/STM32G0xx_HAL_Driver/Src/stm32g0xx_hal_dma.c ****   {
 899              		.loc 1 510 3 view .LVU324
 508:Drivers/STM32G0xx_HAL_Driver/Src/stm32g0xx_hal_dma.c ****   /* Check the DMA peripheral handle */
 900              		.loc 1 508 1 is_stmt 0 view .LVU325
 901 0000 F0B5     		push	{r4, r5, r6, r7, lr}
 902              	.LCFI6:
 903              		.cfi_def_cfa_offset 20
 904              		.cfi_offset 4, -20
 905              		.cfi_offset 5, -16
 906              		.cfi_offset 6, -12
 907              		.cfi_offset 7, -8
 908              		.cfi_offset 14, -4
 510:Drivers/STM32G0xx_HAL_Driver/Src/stm32g0xx_hal_dma.c ****   {
 909              		.loc 1 510 6 view .LVU326
 910 0002 0028     		cmp	r0, #0
 911 0004 08D0     		beq	.L48
 516:Drivers/STM32G0xx_HAL_Driver/Src/stm32g0xx_hal_dma.c ****   {
 912              		.loc 1 516 3 is_stmt 1 view .LVU327
 516:Drivers/STM32G0xx_HAL_Driver/Src/stm32g0xx_hal_dma.c ****   {
 913              		.loc 1 516 11 is_stmt 0 view .LVU328
 914 0006 841D     		adds	r4, r0, #6
 915 0008 E37F     		ldrb	r3, [r4, #31]
 916 000a 411D     		adds	r1, r0, #5
 516:Drivers/STM32G0xx_HAL_Driver/Src/stm32g0xx_hal_dma.c ****   {
 917              		.loc 1 516 6 view .LVU329
 918 000c 022B     		cmp	r3, #2
 919 000e 05D0     		beq	.L49
 518:Drivers/STM32G0xx_HAL_Driver/Src/stm32g0xx_hal_dma.c **** 
 920              		.loc 1 518 5 is_stmt 1 view .LVU330
 518:Drivers/STM32G0xx_HAL_Driver/Src/stm32g0xx_hal_dma.c **** 
 921              		.loc 1 518 21 is_stmt 0 view .LVU331
 922 0010 0423     		movs	r3, #4
 923 0012 C363     		str	r3, [r0, #60]
 521:Drivers/STM32G0xx_HAL_Driver/Src/stm32g0xx_hal_dma.c **** 
 924              		.loc 1 521 5 is_stmt 1 view .LVU332
 521:Drivers/STM32G0xx_HAL_Driver/Src/stm32g0xx_hal_dma.c **** 
 925              		.loc 1 521 5 view .LVU333
 926 0014 0023     		movs	r3, #0
 927 0016 CB77     		strb	r3, [r1, #31]
 521:Drivers/STM32G0xx_HAL_Driver/Src/stm32g0xx_hal_dma.c **** 
 928              		.loc 1 521 5 view .LVU334
 523:Drivers/STM32G0xx_HAL_Driver/Src/stm32g0xx_hal_dma.c ****   }
 929              		.loc 1 523 5 view .LVU335
 930              	.L48:
 512:Drivers/STM32G0xx_HAL_Driver/Src/stm32g0xx_hal_dma.c ****   }
 931              		.loc 1 512 12 is_stmt 0 view .LVU336
 932 0018 0120     		movs	r0, #1
 933              	.LVL50:
 934              	.L50:
 564:Drivers/STM32G0xx_HAL_Driver/Src/stm32g0xx_hal_dma.c **** 
 935              		.loc 1 564 1 view .LVU337
 936              		@ sp needed
 937 001a F0BD     		pop	{r4, r5, r6, r7, pc}
 938              	.LVL51:
 939              	.L49:
 528:Drivers/STM32G0xx_HAL_Driver/Src/stm32g0xx_hal_dma.c **** 
ARM GAS  /tmp/ccbqyIjO.s 			page 43


 940              		.loc 1 528 5 is_stmt 1 view .LVU338
 941 001c 0E25     		movs	r5, #14
 942 001e 0268     		ldr	r2, [r0]
 531:Drivers/STM32G0xx_HAL_Driver/Src/stm32g0xx_hal_dma.c **** 
 943              		.loc 1 531 9 is_stmt 0 view .LVU339
 944 0020 466C     		ldr	r6, [r0, #68]
 528:Drivers/STM32G0xx_HAL_Driver/Src/stm32g0xx_hal_dma.c **** 
 945              		.loc 1 528 5 view .LVU340
 946 0022 1368     		ldr	r3, [r2]
 947 0024 AB43     		bics	r3, r5
 948 0026 1360     		str	r3, [r2]
 531:Drivers/STM32G0xx_HAL_Driver/Src/stm32g0xx_hal_dma.c **** 
 949              		.loc 1 531 5 is_stmt 1 view .LVU341
 531:Drivers/STM32G0xx_HAL_Driver/Src/stm32g0xx_hal_dma.c **** 
 950              		.loc 1 531 24 is_stmt 0 view .LVU342
 951 0028 3368     		ldr	r3, [r6]
 531:Drivers/STM32G0xx_HAL_Driver/Src/stm32g0xx_hal_dma.c **** 
 952              		.loc 1 531 30 view .LVU343
 953 002a 104D     		ldr	r5, .L58
 954 002c 2B40     		ands	r3, r5
 955 002e 3360     		str	r3, [r6]
 534:Drivers/STM32G0xx_HAL_Driver/Src/stm32g0xx_hal_dma.c **** 
 956              		.loc 1 534 5 is_stmt 1 view .LVU344
 957 0030 0123     		movs	r3, #1
 958 0032 1668     		ldr	r6, [r2]
 959 0034 9E43     		bics	r6, r3
 960 0036 1660     		str	r6, [r2]
 540:Drivers/STM32G0xx_HAL_Driver/Src/stm32g0xx_hal_dma.c **** #endif /* DMA2 */
 961              		.loc 1 540 5 view .LVU345
 962 0038 026C     		ldr	r2, [r0, #64]
 963 003a 1B33     		adds	r3, r3, #27
 964 003c 1A40     		ands	r2, r3
 965 003e 1B3B     		subs	r3, r3, #27
 966 0040 9340     		lsls	r3, r3, r2
 967 0042 0B4E     		ldr	r6, .L58+4
 968 0044 7768     		ldr	r7, [r6, #4]
 969 0046 3B43     		orrs	r3, r7
 970 0048 7360     		str	r3, [r6, #4]
 544:Drivers/STM32G0xx_HAL_Driver/Src/stm32g0xx_hal_dma.c **** 
 971              		.loc 1 544 5 view .LVU346
 544:Drivers/STM32G0xx_HAL_Driver/Src/stm32g0xx_hal_dma.c **** 
 972              		.loc 1 544 42 is_stmt 0 view .LVU347
 973 004a C26C     		ldr	r2, [r0, #76]
 544:Drivers/STM32G0xx_HAL_Driver/Src/stm32g0xx_hal_dma.c **** 
 974              		.loc 1 544 9 view .LVU348
 975 004c 836C     		ldr	r3, [r0, #72]
 544:Drivers/STM32G0xx_HAL_Driver/Src/stm32g0xx_hal_dma.c **** 
 976              		.loc 1 544 36 view .LVU349
 977 004e 5A60     		str	r2, [r3, #4]
 546:Drivers/STM32G0xx_HAL_Driver/Src/stm32g0xx_hal_dma.c ****     {
 978              		.loc 1 546 5 is_stmt 1 view .LVU350
 546:Drivers/STM32G0xx_HAL_Driver/Src/stm32g0xx_hal_dma.c ****     {
 979              		.loc 1 546 13 is_stmt 0 view .LVU351
 980 0050 036D     		ldr	r3, [r0, #80]
 546:Drivers/STM32G0xx_HAL_Driver/Src/stm32g0xx_hal_dma.c ****     {
 981              		.loc 1 546 8 view .LVU352
 982 0052 002B     		cmp	r3, #0
ARM GAS  /tmp/ccbqyIjO.s 			page 44


 983 0054 05D0     		beq	.L51
 550:Drivers/STM32G0xx_HAL_Driver/Src/stm32g0xx_hal_dma.c **** 
 984              		.loc 1 550 7 is_stmt 1 view .LVU353
 550:Drivers/STM32G0xx_HAL_Driver/Src/stm32g0xx_hal_dma.c **** 
 985              		.loc 1 550 29 is_stmt 0 view .LVU354
 986 0056 1A68     		ldr	r2, [r3]
 550:Drivers/STM32G0xx_HAL_Driver/Src/stm32g0xx_hal_dma.c **** 
 987              		.loc 1 550 36 view .LVU355
 988 0058 2A40     		ands	r2, r5
 989 005a 1A60     		str	r2, [r3]
 553:Drivers/STM32G0xx_HAL_Driver/Src/stm32g0xx_hal_dma.c ****     }
 990              		.loc 1 553 7 is_stmt 1 view .LVU356
 553:Drivers/STM32G0xx_HAL_Driver/Src/stm32g0xx_hal_dma.c ****     }
 991              		.loc 1 553 11 is_stmt 0 view .LVU357
 992 005c 436D     		ldr	r3, [r0, #84]
 553:Drivers/STM32G0xx_HAL_Driver/Src/stm32g0xx_hal_dma.c ****     }
 993              		.loc 1 553 49 view .LVU358
 994 005e 826D     		ldr	r2, [r0, #88]
 553:Drivers/STM32G0xx_HAL_Driver/Src/stm32g0xx_hal_dma.c ****     }
 995              		.loc 1 553 43 view .LVU359
 996 0060 5A60     		str	r2, [r3, #4]
 997              	.L51:
 557:Drivers/STM32G0xx_HAL_Driver/Src/stm32g0xx_hal_dma.c **** 
 998              		.loc 1 557 5 is_stmt 1 view .LVU360
 557:Drivers/STM32G0xx_HAL_Driver/Src/stm32g0xx_hal_dma.c **** 
 999              		.loc 1 557 17 is_stmt 0 view .LVU361
 1000 0062 0123     		movs	r3, #1
 560:Drivers/STM32G0xx_HAL_Driver/Src/stm32g0xx_hal_dma.c ****   }
 1001              		.loc 1 560 5 view .LVU362
 1002 0064 0020     		movs	r0, #0
 1003              	.LVL52:
 557:Drivers/STM32G0xx_HAL_Driver/Src/stm32g0xx_hal_dma.c **** 
 1004              		.loc 1 557 17 view .LVU363
 1005 0066 E377     		strb	r3, [r4, #31]
 560:Drivers/STM32G0xx_HAL_Driver/Src/stm32g0xx_hal_dma.c ****   }
 1006              		.loc 1 560 5 is_stmt 1 view .LVU364
 560:Drivers/STM32G0xx_HAL_Driver/Src/stm32g0xx_hal_dma.c ****   }
 1007              		.loc 1 560 5 view .LVU365
 1008 0068 C877     		strb	r0, [r1, #31]
 560:Drivers/STM32G0xx_HAL_Driver/Src/stm32g0xx_hal_dma.c ****   }
 1009              		.loc 1 560 5 view .LVU366
 563:Drivers/STM32G0xx_HAL_Driver/Src/stm32g0xx_hal_dma.c **** }
 1010              		.loc 1 563 3 view .LVU367
 563:Drivers/STM32G0xx_HAL_Driver/Src/stm32g0xx_hal_dma.c **** }
 1011              		.loc 1 563 10 is_stmt 0 view .LVU368
 1012 006a D6E7     		b	.L50
 1013              	.L59:
 1014              		.align	2
 1015              	.L58:
 1016 006c FFFEFFFF 		.word	-257
 1017 0070 00000240 		.word	1073872896
 1018              		.cfi_endproc
 1019              	.LFE424:
 1021              		.section	.text.HAL_DMA_Abort_IT,"ax",%progbits
 1022              		.align	1
 1023              		.global	HAL_DMA_Abort_IT
 1024              		.syntax unified
ARM GAS  /tmp/ccbqyIjO.s 			page 45


 1025              		.code	16
 1026              		.thumb_func
 1028              	HAL_DMA_Abort_IT:
 1029              	.LVL53:
 1030              	.LFB425:
 573:Drivers/STM32G0xx_HAL_Driver/Src/stm32g0xx_hal_dma.c ****   HAL_StatusTypeDef status = HAL_OK;
 1031              		.loc 1 573 1 is_stmt 1 view -0
 1032              		.cfi_startproc
 1033              		@ args = 0, pretend = 0, frame = 0
 1034              		@ frame_needed = 0, uses_anonymous_args = 0
 574:Drivers/STM32G0xx_HAL_Driver/Src/stm32g0xx_hal_dma.c **** 
 1035              		.loc 1 574 3 view .LVU370
 576:Drivers/STM32G0xx_HAL_Driver/Src/stm32g0xx_hal_dma.c ****   {
 1036              		.loc 1 576 3 view .LVU371
 573:Drivers/STM32G0xx_HAL_Driver/Src/stm32g0xx_hal_dma.c ****   HAL_StatusTypeDef status = HAL_OK;
 1037              		.loc 1 573 1 is_stmt 0 view .LVU372
 1038 0000 F8B5     		push	{r3, r4, r5, r6, r7, lr}
 1039              	.LCFI7:
 1040              		.cfi_def_cfa_offset 24
 1041              		.cfi_offset 3, -24
 1042              		.cfi_offset 4, -20
 1043              		.cfi_offset 5, -16
 1044              		.cfi_offset 6, -12
 1045              		.cfi_offset 7, -8
 1046              		.cfi_offset 14, -4
 576:Drivers/STM32G0xx_HAL_Driver/Src/stm32g0xx_hal_dma.c ****   {
 1047              		.loc 1 576 11 view .LVU373
 1048 0002 811D     		adds	r1, r0, #6
 1049 0004 CB7F     		ldrb	r3, [r1, #31]
 576:Drivers/STM32G0xx_HAL_Driver/Src/stm32g0xx_hal_dma.c ****   {
 1050              		.loc 1 576 6 view .LVU374
 1051 0006 022B     		cmp	r3, #2
 1052 0008 03D0     		beq	.L61
 579:Drivers/STM32G0xx_HAL_Driver/Src/stm32g0xx_hal_dma.c **** 
 1053              		.loc 1 579 5 is_stmt 1 view .LVU375
 579:Drivers/STM32G0xx_HAL_Driver/Src/stm32g0xx_hal_dma.c **** 
 1054              		.loc 1 579 21 is_stmt 0 view .LVU376
 1055 000a 0423     		movs	r3, #4
 1056 000c C363     		str	r3, [r0, #60]
 581:Drivers/STM32G0xx_HAL_Driver/Src/stm32g0xx_hal_dma.c ****   }
 1057              		.loc 1 581 5 is_stmt 1 view .LVU377
 1058              	.LVL54:
 581:Drivers/STM32G0xx_HAL_Driver/Src/stm32g0xx_hal_dma.c ****   }
 1059              		.loc 1 581 12 is_stmt 0 view .LVU378
 1060 000e 0120     		movs	r0, #1
 1061              	.LVL55:
 1062              	.L62:
 626:Drivers/STM32G0xx_HAL_Driver/Src/stm32g0xx_hal_dma.c **** }
 1063              		.loc 1 626 3 is_stmt 1 view .LVU379
 627:Drivers/STM32G0xx_HAL_Driver/Src/stm32g0xx_hal_dma.c **** 
 1064              		.loc 1 627 1 is_stmt 0 view .LVU380
 1065              		@ sp needed
 1066 0010 F8BD     		pop	{r3, r4, r5, r6, r7, pc}
 1067              	.LVL56:
 1068              	.L61:
 586:Drivers/STM32G0xx_HAL_Driver/Src/stm32g0xx_hal_dma.c **** 
 1069              		.loc 1 586 5 is_stmt 1 view .LVU381
ARM GAS  /tmp/ccbqyIjO.s 			page 46


 1070 0012 0E24     		movs	r4, #14
 1071 0014 0268     		ldr	r2, [r0]
 598:Drivers/STM32G0xx_HAL_Driver/Src/stm32g0xx_hal_dma.c **** #endif /* DMA2 */
 1072              		.loc 1 598 5 is_stmt 0 view .LVU382
 1073 0016 1C27     		movs	r7, #28
 586:Drivers/STM32G0xx_HAL_Driver/Src/stm32g0xx_hal_dma.c **** 
 1074              		.loc 1 586 5 view .LVU383
 1075 0018 1368     		ldr	r3, [r2]
 592:Drivers/STM32G0xx_HAL_Driver/Src/stm32g0xx_hal_dma.c **** 
 1076              		.loc 1 592 9 view .LVU384
 1077 001a 456C     		ldr	r5, [r0, #68]
 586:Drivers/STM32G0xx_HAL_Driver/Src/stm32g0xx_hal_dma.c **** 
 1078              		.loc 1 586 5 view .LVU385
 1079 001c A343     		bics	r3, r4
 1080 001e 1360     		str	r3, [r2]
 589:Drivers/STM32G0xx_HAL_Driver/Src/stm32g0xx_hal_dma.c **** 
 1081              		.loc 1 589 5 is_stmt 1 view .LVU386
 1082 0020 0123     		movs	r3, #1
 1083 0022 1468     		ldr	r4, [r2]
 1084 0024 9C43     		bics	r4, r3
 1085 0026 1460     		str	r4, [r2]
 592:Drivers/STM32G0xx_HAL_Driver/Src/stm32g0xx_hal_dma.c **** 
 1086              		.loc 1 592 5 view .LVU387
 592:Drivers/STM32G0xx_HAL_Driver/Src/stm32g0xx_hal_dma.c **** 
 1087              		.loc 1 592 24 is_stmt 0 view .LVU388
 1088 0028 2A68     		ldr	r2, [r5]
 592:Drivers/STM32G0xx_HAL_Driver/Src/stm32g0xx_hal_dma.c **** 
 1089              		.loc 1 592 30 view .LVU389
 1090 002a 104C     		ldr	r4, .L71
 1091 002c 2240     		ands	r2, r4
 1092 002e 2A60     		str	r2, [r5]
 598:Drivers/STM32G0xx_HAL_Driver/Src/stm32g0xx_hal_dma.c **** #endif /* DMA2 */
 1093              		.loc 1 598 5 is_stmt 1 view .LVU390
 1094 0030 026C     		ldr	r2, [r0, #64]
 1095 0032 0F4D     		ldr	r5, .L71+4
 1096 0034 3A40     		ands	r2, r7
 1097 0036 9340     		lsls	r3, r3, r2
 1098 0038 6E68     		ldr	r6, [r5, #4]
 1099 003a 3343     		orrs	r3, r6
 1100 003c 6B60     		str	r3, [r5, #4]
 602:Drivers/STM32G0xx_HAL_Driver/Src/stm32g0xx_hal_dma.c **** 
 1101              		.loc 1 602 5 view .LVU391
 602:Drivers/STM32G0xx_HAL_Driver/Src/stm32g0xx_hal_dma.c **** 
 1102              		.loc 1 602 42 is_stmt 0 view .LVU392
 1103 003e C26C     		ldr	r2, [r0, #76]
 602:Drivers/STM32G0xx_HAL_Driver/Src/stm32g0xx_hal_dma.c **** 
 1104              		.loc 1 602 9 view .LVU393
 1105 0040 836C     		ldr	r3, [r0, #72]
 602:Drivers/STM32G0xx_HAL_Driver/Src/stm32g0xx_hal_dma.c **** 
 1106              		.loc 1 602 36 view .LVU394
 1107 0042 5A60     		str	r2, [r3, #4]
 604:Drivers/STM32G0xx_HAL_Driver/Src/stm32g0xx_hal_dma.c ****     {
 1108              		.loc 1 604 5 is_stmt 1 view .LVU395
 604:Drivers/STM32G0xx_HAL_Driver/Src/stm32g0xx_hal_dma.c ****     {
 1109              		.loc 1 604 13 is_stmt 0 view .LVU396
 1110 0044 036D     		ldr	r3, [r0, #80]
 604:Drivers/STM32G0xx_HAL_Driver/Src/stm32g0xx_hal_dma.c ****     {
ARM GAS  /tmp/ccbqyIjO.s 			page 47


 1111              		.loc 1 604 8 view .LVU397
 1112 0046 002B     		cmp	r3, #0
 1113 0048 05D0     		beq	.L63
 608:Drivers/STM32G0xx_HAL_Driver/Src/stm32g0xx_hal_dma.c **** 
 1114              		.loc 1 608 7 is_stmt 1 view .LVU398
 608:Drivers/STM32G0xx_HAL_Driver/Src/stm32g0xx_hal_dma.c **** 
 1115              		.loc 1 608 29 is_stmt 0 view .LVU399
 1116 004a 1A68     		ldr	r2, [r3]
 608:Drivers/STM32G0xx_HAL_Driver/Src/stm32g0xx_hal_dma.c **** 
 1117              		.loc 1 608 36 view .LVU400
 1118 004c 2240     		ands	r2, r4
 1119 004e 1A60     		str	r2, [r3]
 611:Drivers/STM32G0xx_HAL_Driver/Src/stm32g0xx_hal_dma.c ****     }
 1120              		.loc 1 611 7 is_stmt 1 view .LVU401
 611:Drivers/STM32G0xx_HAL_Driver/Src/stm32g0xx_hal_dma.c ****     }
 1121              		.loc 1 611 11 is_stmt 0 view .LVU402
 1122 0050 436D     		ldr	r3, [r0, #84]
 611:Drivers/STM32G0xx_HAL_Driver/Src/stm32g0xx_hal_dma.c ****     }
 1123              		.loc 1 611 49 view .LVU403
 1124 0052 826D     		ldr	r2, [r0, #88]
 611:Drivers/STM32G0xx_HAL_Driver/Src/stm32g0xx_hal_dma.c ****     }
 1125              		.loc 1 611 43 view .LVU404
 1126 0054 5A60     		str	r2, [r3, #4]
 1127              	.L63:
 615:Drivers/STM32G0xx_HAL_Driver/Src/stm32g0xx_hal_dma.c **** 
 1128              		.loc 1 615 5 is_stmt 1 view .LVU405
 615:Drivers/STM32G0xx_HAL_Driver/Src/stm32g0xx_hal_dma.c **** 
 1129              		.loc 1 615 17 is_stmt 0 view .LVU406
 1130 0056 0123     		movs	r3, #1
 618:Drivers/STM32G0xx_HAL_Driver/Src/stm32g0xx_hal_dma.c **** 
 1131              		.loc 1 618 5 view .LVU407
 1132 0058 0022     		movs	r2, #0
 615:Drivers/STM32G0xx_HAL_Driver/Src/stm32g0xx_hal_dma.c **** 
 1133              		.loc 1 615 17 view .LVU408
 1134 005a CB77     		strb	r3, [r1, #31]
 618:Drivers/STM32G0xx_HAL_Driver/Src/stm32g0xx_hal_dma.c **** 
 1135              		.loc 1 618 5 is_stmt 1 view .LVU409
 618:Drivers/STM32G0xx_HAL_Driver/Src/stm32g0xx_hal_dma.c **** 
 1136              		.loc 1 618 5 view .LVU410
 1137 005c 431D     		adds	r3, r0, #5
 1138 005e DA77     		strb	r2, [r3, #31]
 618:Drivers/STM32G0xx_HAL_Driver/Src/stm32g0xx_hal_dma.c **** 
 1139              		.loc 1 618 5 view .LVU411
 621:Drivers/STM32G0xx_HAL_Driver/Src/stm32g0xx_hal_dma.c ****     {
 1140              		.loc 1 621 5 view .LVU412
 621:Drivers/STM32G0xx_HAL_Driver/Src/stm32g0xx_hal_dma.c ****     {
 1141              		.loc 1 621 13 is_stmt 0 view .LVU413
 1142 0060 836B     		ldr	r3, [r0, #56]
 621:Drivers/STM32G0xx_HAL_Driver/Src/stm32g0xx_hal_dma.c ****     {
 1143              		.loc 1 621 8 view .LVU414
 1144 0062 9342     		cmp	r3, r2
 1145 0064 00D0     		beq	.L64
 623:Drivers/STM32G0xx_HAL_Driver/Src/stm32g0xx_hal_dma.c ****     }
 1146              		.loc 1 623 7 is_stmt 1 view .LVU415
 1147 0066 9847     		blx	r3
 1148              	.LVL57:
 1149              	.L64:
ARM GAS  /tmp/ccbqyIjO.s 			page 48


 574:Drivers/STM32G0xx_HAL_Driver/Src/stm32g0xx_hal_dma.c **** 
 1150              		.loc 1 574 21 is_stmt 0 view .LVU416
 1151 0068 0020     		movs	r0, #0
 1152 006a D1E7     		b	.L62
 1153              	.L72:
 1154              		.align	2
 1155              	.L71:
 1156 006c FFFEFFFF 		.word	-257
 1157 0070 00000240 		.word	1073872896
 1158              		.cfi_endproc
 1159              	.LFE425:
 1161              		.section	.text.HAL_DMA_PollForTransfer,"ax",%progbits
 1162              		.align	1
 1163              		.global	HAL_DMA_PollForTransfer
 1164              		.syntax unified
 1165              		.code	16
 1166              		.thumb_func
 1168              	HAL_DMA_PollForTransfer:
 1169              	.LVL58:
 1170              	.LFB426:
 639:Drivers/STM32G0xx_HAL_Driver/Src/stm32g0xx_hal_dma.c ****   uint32_t temp;
 1171              		.loc 1 639 1 is_stmt 1 view -0
 1172              		.cfi_startproc
 1173              		@ args = 0, pretend = 0, frame = 16
 1174              		@ frame_needed = 0, uses_anonymous_args = 0
 640:Drivers/STM32G0xx_HAL_Driver/Src/stm32g0xx_hal_dma.c ****   uint32_t tickstart;
 1175              		.loc 1 640 3 view .LVU418
 641:Drivers/STM32G0xx_HAL_Driver/Src/stm32g0xx_hal_dma.c **** 
 1176              		.loc 1 641 3 view .LVU419
 643:Drivers/STM32G0xx_HAL_Driver/Src/stm32g0xx_hal_dma.c ****   {
 1177              		.loc 1 643 3 view .LVU420
 639:Drivers/STM32G0xx_HAL_Driver/Src/stm32g0xx_hal_dma.c ****   uint32_t temp;
 1178              		.loc 1 639 1 is_stmt 0 view .LVU421
 1179 0000 F0B5     		push	{r4, r5, r6, r7, lr}
 1180              	.LCFI8:
 1181              		.cfi_def_cfa_offset 20
 1182              		.cfi_offset 4, -20
 1183              		.cfi_offset 5, -16
 1184              		.cfi_offset 6, -12
 1185              		.cfi_offset 7, -8
 1186              		.cfi_offset 14, -4
 1187 0002 85B0     		sub	sp, sp, #20
 1188              	.LCFI9:
 1189              		.cfi_def_cfa_offset 40
 639:Drivers/STM32G0xx_HAL_Driver/Src/stm32g0xx_hal_dma.c ****   uint32_t temp;
 1190              		.loc 1 639 1 view .LVU422
 1191 0004 0191     		str	r1, [sp, #4]
 643:Drivers/STM32G0xx_HAL_Driver/Src/stm32g0xx_hal_dma.c ****   {
 1192              		.loc 1 643 11 view .LVU423
 1193 0006 871D     		adds	r7, r0, #6
 1194 0008 FB7F     		ldrb	r3, [r7, #31]
 639:Drivers/STM32G0xx_HAL_Driver/Src/stm32g0xx_hal_dma.c ****   uint32_t temp;
 1195              		.loc 1 639 1 view .LVU424
 1196 000a 0400     		movs	r4, r0
 1197 000c 1600     		movs	r6, r2
 643:Drivers/STM32G0xx_HAL_Driver/Src/stm32g0xx_hal_dma.c ****   {
 1198              		.loc 1 643 11 view .LVU425
ARM GAS  /tmp/ccbqyIjO.s 			page 49


 1199 000e DDB2     		uxtb	r5, r3
 643:Drivers/STM32G0xx_HAL_Driver/Src/stm32g0xx_hal_dma.c ****   {
 1200              		.loc 1 643 6 view .LVU426
 1201 0010 022B     		cmp	r3, #2
 1202 0012 04D0     		beq	.L74
 646:Drivers/STM32G0xx_HAL_Driver/Src/stm32g0xx_hal_dma.c ****     __HAL_UNLOCK(hdma);
 1203              		.loc 1 646 5 is_stmt 1 view .LVU427
 646:Drivers/STM32G0xx_HAL_Driver/Src/stm32g0xx_hal_dma.c ****     __HAL_UNLOCK(hdma);
 1204              		.loc 1 646 21 is_stmt 0 view .LVU428
 1205 0014 0423     		movs	r3, #4
 1206 0016 C363     		str	r3, [r0, #60]
 647:Drivers/STM32G0xx_HAL_Driver/Src/stm32g0xx_hal_dma.c ****     return HAL_ERROR;
 1207              		.loc 1 647 5 is_stmt 1 view .LVU429
 647:Drivers/STM32G0xx_HAL_Driver/Src/stm32g0xx_hal_dma.c ****     return HAL_ERROR;
 1208              		.loc 1 647 5 view .LVU430
 1209              	.LVL59:
 1210              	.L104:
 728:Drivers/STM32G0xx_HAL_Driver/Src/stm32g0xx_hal_dma.c **** 
 1211              		.loc 1 728 9 view .LVU431
 728:Drivers/STM32G0xx_HAL_Driver/Src/stm32g0xx_hal_dma.c **** 
 1212              		.loc 1 728 9 view .LVU432
 1213 0018 0023     		movs	r3, #0
 1214 001a 0534     		adds	r4, r4, #5
 1215              	.LVL60:
 728:Drivers/STM32G0xx_HAL_Driver/Src/stm32g0xx_hal_dma.c **** 
 1216              		.loc 1 728 9 is_stmt 0 view .LVU433
 1217 001c 60E0     		b	.L103
 1218              	.LVL61:
 1219              	.L74:
 652:Drivers/STM32G0xx_HAL_Driver/Src/stm32g0xx_hal_dma.c ****   {
 1220              		.loc 1 652 3 is_stmt 1 view .LVU434
 652:Drivers/STM32G0xx_HAL_Driver/Src/stm32g0xx_hal_dma.c ****   {
 1221              		.loc 1 652 12 is_stmt 0 view .LVU435
 1222 001e 0368     		ldr	r3, [r0]
 652:Drivers/STM32G0xx_HAL_Driver/Src/stm32g0xx_hal_dma.c ****   {
 1223              		.loc 1 652 22 view .LVU436
 1224 0020 1B68     		ldr	r3, [r3]
 652:Drivers/STM32G0xx_HAL_Driver/Src/stm32g0xx_hal_dma.c ****   {
 1225              		.loc 1 652 6 view .LVU437
 1226 0022 9B06     		lsls	r3, r3, #26
 1227 0024 04D5     		bpl	.L76
 654:Drivers/STM32G0xx_HAL_Driver/Src/stm32g0xx_hal_dma.c ****     return HAL_ERROR;
 1228              		.loc 1 654 5 is_stmt 1 view .LVU438
 654:Drivers/STM32G0xx_HAL_Driver/Src/stm32g0xx_hal_dma.c ****     return HAL_ERROR;
 1229              		.loc 1 654 21 is_stmt 0 view .LVU439
 1230 0026 8023     		movs	r3, #128
 1231 0028 5B00     		lsls	r3, r3, #1
 1232 002a C363     		str	r3, [r0, #60]
 655:Drivers/STM32G0xx_HAL_Driver/Src/stm32g0xx_hal_dma.c ****   }
 1233              		.loc 1 655 5 is_stmt 1 view .LVU440
 1234              	.LVL62:
 1235              	.L75:
 648:Drivers/STM32G0xx_HAL_Driver/Src/stm32g0xx_hal_dma.c ****   }
 1236              		.loc 1 648 12 is_stmt 0 view .LVU441
 1237 002c 0120     		movs	r0, #1
 1238 002e 44E0     		b	.L87
 1239              	.LVL63:
ARM GAS  /tmp/ccbqyIjO.s 			page 50


 1240              	.L76:
 659:Drivers/STM32G0xx_HAL_Driver/Src/stm32g0xx_hal_dma.c ****   {
 1241              		.loc 1 659 3 is_stmt 1 view .LVU442
 662:Drivers/STM32G0xx_HAL_Driver/Src/stm32g0xx_hal_dma.c ****   }
 1242              		.loc 1 662 48 is_stmt 0 view .LVU443
 1243 0030 1C22     		movs	r2, #28
 1244              	.LVL64:
 662:Drivers/STM32G0xx_HAL_Driver/Src/stm32g0xx_hal_dma.c ****   }
 1245              		.loc 1 662 48 view .LVU444
 1246 0032 036C     		ldr	r3, [r0, #64]
 1247 0034 1340     		ands	r3, r2
 659:Drivers/STM32G0xx_HAL_Driver/Src/stm32g0xx_hal_dma.c ****   {
 1248              		.loc 1 659 6 view .LVU445
 1249 0036 019A     		ldr	r2, [sp, #4]
 1250 0038 002A     		cmp	r2, #0
 1251 003a 40D1     		bne	.L77
 1252              	.L102:
 667:Drivers/STM32G0xx_HAL_Driver/Src/stm32g0xx_hal_dma.c ****   }
 1253              		.loc 1 667 10 view .LVU446
 1254 003c 9D40     		lsls	r5, r5, r3
 1255              	.LVL65:
 671:Drivers/STM32G0xx_HAL_Driver/Src/stm32g0xx_hal_dma.c **** 
 1256              		.loc 1 671 3 is_stmt 1 view .LVU447
 671:Drivers/STM32G0xx_HAL_Driver/Src/stm32g0xx_hal_dma.c **** 
 1257              		.loc 1 671 15 is_stmt 0 view .LVU448
 1258 003e FFF7FEFF 		bl	HAL_GetTick
 1259              	.LVL66:
 671:Drivers/STM32G0xx_HAL_Driver/Src/stm32g0xx_hal_dma.c **** 
 1260              		.loc 1 671 15 view .LVU449
 1261 0042 0290     		str	r0, [sp, #8]
 1262              	.LVL67:
 695:Drivers/STM32G0xx_HAL_Driver/Src/stm32g0xx_hal_dma.c ****   {
 1263              		.loc 1 695 3 is_stmt 1 view .LVU450
 1264              	.L79:
 697:Drivers/STM32G0xx_HAL_Driver/Src/stm32g0xx_hal_dma.c ****     {
 1265              		.loc 1 697 15 is_stmt 0 view .LVU451
 1266 0044 1C23     		movs	r3, #28
 1267 0046 226C     		ldr	r2, [r4, #64]
 1268 0048 1A40     		ands	r2, r3
 1269 004a 143B     		subs	r3, r3, #20
 1270 004c 9340     		lsls	r3, r3, r2
 1271 004e 9C46     		mov	ip, r3
 695:Drivers/STM32G0xx_HAL_Driver/Src/stm32g0xx_hal_dma.c ****   {
 1272              		.loc 1 695 16 view .LVU452
 1273 0050 2F4B     		ldr	r3, .L105
 1274              	.L81:
 695:Drivers/STM32G0xx_HAL_Driver/Src/stm32g0xx_hal_dma.c ****   {
 1275              		.loc 1 695 13 is_stmt 1 view .LVU453
 695:Drivers/STM32G0xx_HAL_Driver/Src/stm32g0xx_hal_dma.c ****   {
 1276              		.loc 1 695 16 is_stmt 0 view .LVU454
 1277 0052 2800     		movs	r0, r5
 1278 0054 1968     		ldr	r1, [r3]
 1279 0056 0840     		ands	r0, r1
 1280 0058 0390     		str	r0, [sp, #12]
 695:Drivers/STM32G0xx_HAL_Driver/Src/stm32g0xx_hal_dma.c ****   {
 1281              		.loc 1 695 13 view .LVU455
 1282 005a 0D42     		tst	r5, r1
ARM GAS  /tmp/ccbqyIjO.s 			page 51


 1283 005c 31D0     		beq	.L83
 736:Drivers/STM32G0xx_HAL_Driver/Src/stm32g0xx_hal_dma.c ****   {
 1284              		.loc 1 736 3 is_stmt 1 view .LVU456
 736:Drivers/STM32G0xx_HAL_Driver/Src/stm32g0xx_hal_dma.c ****   {
 1285              		.loc 1 736 11 is_stmt 0 view .LVU457
 1286 005e 216D     		ldr	r1, [r4, #80]
 736:Drivers/STM32G0xx_HAL_Driver/Src/stm32g0xx_hal_dma.c ****   {
 1287              		.loc 1 736 6 view .LVU458
 1288 0060 0029     		cmp	r1, #0
 1289 0062 0FD0     		beq	.L84
 739:Drivers/STM32G0xx_HAL_Driver/Src/stm32g0xx_hal_dma.c ****     {
 1290              		.loc 1 739 5 is_stmt 1 view .LVU459
 739:Drivers/STM32G0xx_HAL_Driver/Src/stm32g0xx_hal_dma.c ****     {
 1291              		.loc 1 739 14 is_stmt 0 view .LVU460
 1292 0064 656D     		ldr	r5, [r4, #84]
 1293              	.LVL68:
 739:Drivers/STM32G0xx_HAL_Driver/Src/stm32g0xx_hal_dma.c ****     {
 1294              		.loc 1 739 51 view .LVU461
 1295 0066 A66D     		ldr	r6, [r4, #88]
 1296              	.LVL69:
 739:Drivers/STM32G0xx_HAL_Driver/Src/stm32g0xx_hal_dma.c ****     {
 1297              		.loc 1 739 38 view .LVU462
 1298 0068 2868     		ldr	r0, [r5]
 739:Drivers/STM32G0xx_HAL_Driver/Src/stm32g0xx_hal_dma.c ****     {
 1299              		.loc 1 739 8 view .LVU463
 1300 006a 0642     		tst	r6, r0
 1301 006c 0AD0     		beq	.L84
 742:Drivers/STM32G0xx_HAL_Driver/Src/stm32g0xx_hal_dma.c **** 
 1302              		.loc 1 742 7 is_stmt 1 view .LVU464
 742:Drivers/STM32G0xx_HAL_Driver/Src/stm32g0xx_hal_dma.c **** 
 1303              		.loc 1 742 36 is_stmt 0 view .LVU465
 1304 006e 8020     		movs	r0, #128
 742:Drivers/STM32G0xx_HAL_Driver/Src/stm32g0xx_hal_dma.c **** 
 1305              		.loc 1 742 29 view .LVU466
 1306 0070 0F68     		ldr	r7, [r1]
 742:Drivers/STM32G0xx_HAL_Driver/Src/stm32g0xx_hal_dma.c **** 
 1307              		.loc 1 742 36 view .LVU467
 1308 0072 4000     		lsls	r0, r0, #1
 1309 0074 3843     		orrs	r0, r7
 1310 0076 0860     		str	r0, [r1]
 745:Drivers/STM32G0xx_HAL_Driver/Src/stm32g0xx_hal_dma.c **** 
 1311              		.loc 1 745 7 is_stmt 1 view .LVU468
 748:Drivers/STM32G0xx_HAL_Driver/Src/stm32g0xx_hal_dma.c ****     }
 1312              		.loc 1 748 23 is_stmt 0 view .LVU469
 1313 0078 8021     		movs	r1, #128
 745:Drivers/STM32G0xx_HAL_Driver/Src/stm32g0xx_hal_dma.c **** 
 1314              		.loc 1 745 43 view .LVU470
 1315 007a 6E60     		str	r6, [r5, #4]
 748:Drivers/STM32G0xx_HAL_Driver/Src/stm32g0xx_hal_dma.c ****     }
 1316              		.loc 1 748 7 is_stmt 1 view .LVU471
 748:Drivers/STM32G0xx_HAL_Driver/Src/stm32g0xx_hal_dma.c ****     }
 1317              		.loc 1 748 11 is_stmt 0 view .LVU472
 1318 007c E06B     		ldr	r0, [r4, #60]
 748:Drivers/STM32G0xx_HAL_Driver/Src/stm32g0xx_hal_dma.c ****     }
 1319              		.loc 1 748 23 view .LVU473
 1320 007e C900     		lsls	r1, r1, #3
 1321 0080 0143     		orrs	r1, r0
ARM GAS  /tmp/ccbqyIjO.s 			page 52


 1322 0082 E163     		str	r1, [r4, #60]
 1323              	.L84:
 753:Drivers/STM32G0xx_HAL_Driver/Src/stm32g0xx_hal_dma.c ****   {
 1324              		.loc 1 753 3 is_stmt 1 view .LVU474
 753:Drivers/STM32G0xx_HAL_Driver/Src/stm32g0xx_hal_dma.c ****   {
 1325              		.loc 1 753 12 is_stmt 0 view .LVU475
 1326 0084 A16C     		ldr	r1, [r4, #72]
 753:Drivers/STM32G0xx_HAL_Driver/Src/stm32g0xx_hal_dma.c ****   {
 1327              		.loc 1 753 45 view .LVU476
 1328 0086 E06C     		ldr	r0, [r4, #76]
 753:Drivers/STM32G0xx_HAL_Driver/Src/stm32g0xx_hal_dma.c ****   {
 1329              		.loc 1 753 33 view .LVU477
 1330 0088 0D68     		ldr	r5, [r1]
 753:Drivers/STM32G0xx_HAL_Driver/Src/stm32g0xx_hal_dma.c ****   {
 1331              		.loc 1 753 6 view .LVU478
 1332 008a 2842     		tst	r0, r5
 1333 008c 05D0     		beq	.L85
 756:Drivers/STM32G0xx_HAL_Driver/Src/stm32g0xx_hal_dma.c **** 
 1334              		.loc 1 756 5 is_stmt 1 view .LVU479
 756:Drivers/STM32G0xx_HAL_Driver/Src/stm32g0xx_hal_dma.c **** 
 1335              		.loc 1 756 36 is_stmt 0 view .LVU480
 1336 008e 4860     		str	r0, [r1, #4]
 759:Drivers/STM32G0xx_HAL_Driver/Src/stm32g0xx_hal_dma.c ****   }
 1337              		.loc 1 759 5 is_stmt 1 view .LVU481
 759:Drivers/STM32G0xx_HAL_Driver/Src/stm32g0xx_hal_dma.c ****   }
 1338              		.loc 1 759 21 is_stmt 0 view .LVU482
 1339 0090 8021     		movs	r1, #128
 759:Drivers/STM32G0xx_HAL_Driver/Src/stm32g0xx_hal_dma.c ****   }
 1340              		.loc 1 759 9 view .LVU483
 1341 0092 E06B     		ldr	r0, [r4, #60]
 759:Drivers/STM32G0xx_HAL_Driver/Src/stm32g0xx_hal_dma.c ****   }
 1342              		.loc 1 759 21 view .LVU484
 1343 0094 8900     		lsls	r1, r1, #2
 1344 0096 0143     		orrs	r1, r0
 1345 0098 E163     		str	r1, [r4, #60]
 1346              	.L85:
 762:Drivers/STM32G0xx_HAL_Driver/Src/stm32g0xx_hal_dma.c ****   {
 1347              		.loc 1 762 3 is_stmt 1 view .LVU485
 762:Drivers/STM32G0xx_HAL_Driver/Src/stm32g0xx_hal_dma.c ****   {
 1348              		.loc 1 762 6 is_stmt 0 view .LVU486
 1349 009a 0199     		ldr	r1, [sp, #4]
 768:Drivers/STM32G0xx_HAL_Driver/Src/stm32g0xx_hal_dma.c **** #endif /* DMA2 */
 1350              		.loc 1 768 5 view .LVU487
 1351 009c 5868     		ldr	r0, [r3, #4]
 762:Drivers/STM32G0xx_HAL_Driver/Src/stm32g0xx_hal_dma.c ****   {
 1352              		.loc 1 762 6 view .LVU488
 1353 009e 0029     		cmp	r1, #0
 1354 00a0 2FD1     		bne	.L86
 768:Drivers/STM32G0xx_HAL_Driver/Src/stm32g0xx_hal_dma.c **** #endif /* DMA2 */
 1355              		.loc 1 768 5 is_stmt 1 view .LVU489
 1356 00a2 0231     		adds	r1, r1, #2
 1357 00a4 9140     		lsls	r1, r1, r2
 1358 00a6 0A00     		movs	r2, r1
 1359 00a8 0243     		orrs	r2, r0
 1360 00aa 5A60     		str	r2, [r3, #4]
 772:Drivers/STM32G0xx_HAL_Driver/Src/stm32g0xx_hal_dma.c **** 
 1361              		.loc 1 772 5 view .LVU490
ARM GAS  /tmp/ccbqyIjO.s 			page 53


 772:Drivers/STM32G0xx_HAL_Driver/Src/stm32g0xx_hal_dma.c **** 
 1362              		.loc 1 772 5 view .LVU491
 1363 00ac 019A     		ldr	r2, [sp, #4]
 1364 00ae 631D     		adds	r3, r4, #5
 1365 00b0 DA77     		strb	r2, [r3, #31]
 772:Drivers/STM32G0xx_HAL_Driver/Src/stm32g0xx_hal_dma.c **** 
 1366              		.loc 1 772 5 view .LVU492
 776:Drivers/STM32G0xx_HAL_Driver/Src/stm32g0xx_hal_dma.c ****   }
 1367              		.loc 1 776 5 view .LVU493
 776:Drivers/STM32G0xx_HAL_Driver/Src/stm32g0xx_hal_dma.c ****   }
 1368              		.loc 1 776 17 is_stmt 0 view .LVU494
 1369 00b2 0123     		movs	r3, #1
 1370 00b4 0634     		adds	r4, r4, #6
 1371              	.LVL70:
 776:Drivers/STM32G0xx_HAL_Driver/Src/stm32g0xx_hal_dma.c ****   }
 1372              		.loc 1 776 17 view .LVU495
 1373 00b6 E377     		strb	r3, [r4, #31]
 1374              	.LVL71:
 1375              	.L88:
 788:Drivers/STM32G0xx_HAL_Driver/Src/stm32g0xx_hal_dma.c **** }
 1376              		.loc 1 788 10 view .LVU496
 1377 00b8 0020     		movs	r0, #0
 1378              	.LVL72:
 1379              	.L87:
 789:Drivers/STM32G0xx_HAL_Driver/Src/stm32g0xx_hal_dma.c **** 
 1380              		.loc 1 789 1 view .LVU497
 1381 00ba 05B0     		add	sp, sp, #20
 1382              		@ sp needed
 1383 00bc F0BD     		pop	{r4, r5, r6, r7, pc}
 1384              	.LVL73:
 1385              	.L77:
 667:Drivers/STM32G0xx_HAL_Driver/Src/stm32g0xx_hal_dma.c ****   }
 1386              		.loc 1 667 5 is_stmt 1 view .LVU498
 667:Drivers/STM32G0xx_HAL_Driver/Src/stm32g0xx_hal_dma.c ****   }
 1387              		.loc 1 667 10 is_stmt 0 view .LVU499
 1388 00be 0425     		movs	r5, #4
 1389 00c0 BCE7     		b	.L102
 1390              	.LVL74:
 1391              	.L83:
 697:Drivers/STM32G0xx_HAL_Driver/Src/stm32g0xx_hal_dma.c ****     {
 1392              		.loc 1 697 5 is_stmt 1 view .LVU500
 697:Drivers/STM32G0xx_HAL_Driver/Src/stm32g0xx_hal_dma.c ****     {
 1393              		.loc 1 697 8 is_stmt 0 view .LVU501
 1394 00c2 6046     		mov	r0, ip
 697:Drivers/STM32G0xx_HAL_Driver/Src/stm32g0xx_hal_dma.c ****     {
 1395              		.loc 1 697 15 view .LVU502
 1396 00c4 1968     		ldr	r1, [r3]
 697:Drivers/STM32G0xx_HAL_Driver/Src/stm32g0xx_hal_dma.c ****     {
 1397              		.loc 1 697 8 view .LVU503
 1398 00c6 0842     		tst	r0, r1
 1399 00c8 0CD0     		beq	.L80
 702:Drivers/STM32G0xx_HAL_Driver/Src/stm32g0xx_hal_dma.c **** 
 1400              		.loc 1 702 7 is_stmt 1 view .LVU504
 1401 00ca 0121     		movs	r1, #1
 1402 00cc 0E00     		movs	r6, r1
 1403              	.LVL75:
 702:Drivers/STM32G0xx_HAL_Driver/Src/stm32g0xx_hal_dma.c **** 
ARM GAS  /tmp/ccbqyIjO.s 			page 54


 1404              		.loc 1 702 7 is_stmt 0 view .LVU505
 1405 00ce 9640     		lsls	r6, r6, r2
 1406 00d0 3200     		movs	r2, r6
 1407 00d2 5D68     		ldr	r5, [r3, #4]
 1408              	.LVL76:
 702:Drivers/STM32G0xx_HAL_Driver/Src/stm32g0xx_hal_dma.c **** 
 1409              		.loc 1 702 7 view .LVU506
 1410 00d4 2A43     		orrs	r2, r5
 1411 00d6 5A60     		str	r2, [r3, #4]
 705:Drivers/STM32G0xx_HAL_Driver/Src/stm32g0xx_hal_dma.c **** 
 1412              		.loc 1 705 7 is_stmt 1 view .LVU507
 711:Drivers/STM32G0xx_HAL_Driver/Src/stm32g0xx_hal_dma.c **** 
 1413              		.loc 1 711 7 is_stmt 0 view .LVU508
 1414 00d8 039B     		ldr	r3, [sp, #12]
 705:Drivers/STM32G0xx_HAL_Driver/Src/stm32g0xx_hal_dma.c **** 
 1415              		.loc 1 705 23 view .LVU509
 1416 00da E163     		str	r1, [r4, #60]
 708:Drivers/STM32G0xx_HAL_Driver/Src/stm32g0xx_hal_dma.c **** 
 1417              		.loc 1 708 7 is_stmt 1 view .LVU510
 708:Drivers/STM32G0xx_HAL_Driver/Src/stm32g0xx_hal_dma.c **** 
 1418              		.loc 1 708 19 is_stmt 0 view .LVU511
 1419 00dc F977     		strb	r1, [r7, #31]
 711:Drivers/STM32G0xx_HAL_Driver/Src/stm32g0xx_hal_dma.c **** 
 1420              		.loc 1 711 7 is_stmt 1 view .LVU512
 711:Drivers/STM32G0xx_HAL_Driver/Src/stm32g0xx_hal_dma.c **** 
 1421              		.loc 1 711 7 view .LVU513
 1422 00de 0534     		adds	r4, r4, #5
 1423              	.LVL77:
 1424              	.L103:
 711:Drivers/STM32G0xx_HAL_Driver/Src/stm32g0xx_hal_dma.c **** 
 1425              		.loc 1 711 7 is_stmt 0 view .LVU514
 1426 00e0 E377     		strb	r3, [r4, #31]
 711:Drivers/STM32G0xx_HAL_Driver/Src/stm32g0xx_hal_dma.c **** 
 1427              		.loc 1 711 7 is_stmt 1 view .LVU515
 713:Drivers/STM32G0xx_HAL_Driver/Src/stm32g0xx_hal_dma.c ****     }
 1428              		.loc 1 713 7 view .LVU516
 713:Drivers/STM32G0xx_HAL_Driver/Src/stm32g0xx_hal_dma.c ****     }
 1429              		.loc 1 713 14 is_stmt 0 view .LVU517
 1430 00e2 A3E7     		b	.L75
 1431              	.LVL78:
 1432              	.L80:
 717:Drivers/STM32G0xx_HAL_Driver/Src/stm32g0xx_hal_dma.c ****     {
 1433              		.loc 1 717 5 is_stmt 1 view .LVU518
 717:Drivers/STM32G0xx_HAL_Driver/Src/stm32g0xx_hal_dma.c ****     {
 1434              		.loc 1 717 8 is_stmt 0 view .LVU519
 1435 00e4 711C     		adds	r1, r6, #1
 1436 00e6 B4D0     		beq	.L81
 719:Drivers/STM32G0xx_HAL_Driver/Src/stm32g0xx_hal_dma.c ****       {
 1437              		.loc 1 719 7 is_stmt 1 view .LVU520
 719:Drivers/STM32G0xx_HAL_Driver/Src/stm32g0xx_hal_dma.c ****       {
 1438              		.loc 1 719 13 is_stmt 0 view .LVU521
 1439 00e8 FFF7FEFF 		bl	HAL_GetTick
 1440              	.LVL79:
 719:Drivers/STM32G0xx_HAL_Driver/Src/stm32g0xx_hal_dma.c ****       {
 1441              		.loc 1 719 27 discriminator 1 view .LVU522
 1442 00ec 029B     		ldr	r3, [sp, #8]
 1443 00ee C01A     		subs	r0, r0, r3
ARM GAS  /tmp/ccbqyIjO.s 			page 55


 719:Drivers/STM32G0xx_HAL_Driver/Src/stm32g0xx_hal_dma.c ****       {
 1444              		.loc 1 719 10 discriminator 1 view .LVU523
 1445 00f0 B042     		cmp	r0, r6
 1446 00f2 01D8     		bhi	.L82
 719:Drivers/STM32G0xx_HAL_Driver/Src/stm32g0xx_hal_dma.c ****       {
 1447              		.loc 1 719 51 discriminator 1 view .LVU524
 1448 00f4 002E     		cmp	r6, #0
 1449 00f6 A5D1     		bne	.L79
 1450              	.L82:
 722:Drivers/STM32G0xx_HAL_Driver/Src/stm32g0xx_hal_dma.c **** 
 1451              		.loc 1 722 9 is_stmt 1 view .LVU525
 722:Drivers/STM32G0xx_HAL_Driver/Src/stm32g0xx_hal_dma.c **** 
 1452              		.loc 1 722 25 is_stmt 0 view .LVU526
 1453 00f8 2023     		movs	r3, #32
 1454 00fa E363     		str	r3, [r4, #60]
 725:Drivers/STM32G0xx_HAL_Driver/Src/stm32g0xx_hal_dma.c **** 
 1455              		.loc 1 725 9 is_stmt 1 view .LVU527
 725:Drivers/STM32G0xx_HAL_Driver/Src/stm32g0xx_hal_dma.c **** 
 1456              		.loc 1 725 21 is_stmt 0 view .LVU528
 1457 00fc 1F3B     		subs	r3, r3, #31
 1458 00fe FB77     		strb	r3, [r7, #31]
 1459 0100 8AE7     		b	.L104
 1460              	.LVL80:
 1461              	.L86:
 784:Drivers/STM32G0xx_HAL_Driver/Src/stm32g0xx_hal_dma.c **** #endif /* DMA2 */
 1462              		.loc 1 784 5 is_stmt 1 view .LVU529
 1463 0102 0421     		movs	r1, #4
 1464 0104 9140     		lsls	r1, r1, r2
 1465 0106 0A00     		movs	r2, r1
 1466 0108 0243     		orrs	r2, r0
 1467 010a 5A60     		str	r2, [r3, #4]
 1468 010c D4E7     		b	.L88
 1469              	.L106:
 1470 010e C046     		.align	2
 1471              	.L105:
 1472 0110 00000240 		.word	1073872896
 1473              		.cfi_endproc
 1474              	.LFE426:
 1476              		.section	.text.HAL_DMA_IRQHandler,"ax",%progbits
 1477              		.align	1
 1478              		.global	HAL_DMA_IRQHandler
 1479              		.syntax unified
 1480              		.code	16
 1481              		.thumb_func
 1483              	HAL_DMA_IRQHandler:
 1484              	.LVL81:
 1485              	.LFB427:
 798:Drivers/STM32G0xx_HAL_Driver/Src/stm32g0xx_hal_dma.c **** #if defined(DMA2)
 1486              		.loc 1 798 1 view -0
 1487              		.cfi_startproc
 1488              		@ args = 0, pretend = 0, frame = 0
 1489              		@ frame_needed = 0, uses_anonymous_args = 0
 802:Drivers/STM32G0xx_HAL_Driver/Src/stm32g0xx_hal_dma.c **** #endif /* DMA2 */
 1490              		.loc 1 802 3 view .LVU531
 798:Drivers/STM32G0xx_HAL_Driver/Src/stm32g0xx_hal_dma.c **** #if defined(DMA2)
 1491              		.loc 1 798 1 is_stmt 0 view .LVU532
 1492 0000 F8B5     		push	{r3, r4, r5, r6, r7, lr}
ARM GAS  /tmp/ccbqyIjO.s 			page 56


 1493              	.LCFI10:
 1494              		.cfi_def_cfa_offset 24
 1495              		.cfi_offset 3, -24
 1496              		.cfi_offset 4, -20
 1497              		.cfi_offset 5, -16
 1498              		.cfi_offset 6, -12
 1499              		.cfi_offset 7, -8
 1500              		.cfi_offset 14, -4
 807:Drivers/STM32G0xx_HAL_Driver/Src/stm32g0xx_hal_dma.c ****   {
 1501              		.loc 1 807 56 view .LVU533
 1502 0002 1C24     		movs	r4, #28
 807:Drivers/STM32G0xx_HAL_Driver/Src/stm32g0xx_hal_dma.c ****   {
 1503              		.loc 1 807 33 view .LVU534
 1504 0004 0427     		movs	r7, #4
 807:Drivers/STM32G0xx_HAL_Driver/Src/stm32g0xx_hal_dma.c ****   {
 1505              		.loc 1 807 56 view .LVU535
 1506 0006 016C     		ldr	r1, [r0, #64]
 802:Drivers/STM32G0xx_HAL_Driver/Src/stm32g0xx_hal_dma.c **** #endif /* DMA2 */
 1507              		.loc 1 802 12 view .LVU536
 1508 0008 264A     		ldr	r2, .L144
 807:Drivers/STM32G0xx_HAL_Driver/Src/stm32g0xx_hal_dma.c ****   {
 1509              		.loc 1 807 56 view .LVU537
 1510 000a 2140     		ands	r1, r4
 807:Drivers/STM32G0xx_HAL_Driver/Src/stm32g0xx_hal_dma.c ****   {
 1511              		.loc 1 807 33 view .LVU538
 1512 000c 3C00     		movs	r4, r7
 1513 000e 8C40     		lsls	r4, r4, r1
 802:Drivers/STM32G0xx_HAL_Driver/Src/stm32g0xx_hal_dma.c **** #endif /* DMA2 */
 1514              		.loc 1 802 12 view .LVU539
 1515 0010 1668     		ldr	r6, [r2]
 1516              	.LVL82:
 804:Drivers/STM32G0xx_HAL_Driver/Src/stm32g0xx_hal_dma.c **** 
 1517              		.loc 1 804 3 is_stmt 1 view .LVU540
 804:Drivers/STM32G0xx_HAL_Driver/Src/stm32g0xx_hal_dma.c **** 
 1518              		.loc 1 804 28 is_stmt 0 view .LVU541
 1519 0012 0368     		ldr	r3, [r0]
 804:Drivers/STM32G0xx_HAL_Driver/Src/stm32g0xx_hal_dma.c **** 
 1520              		.loc 1 804 12 view .LVU542
 1521 0014 1D68     		ldr	r5, [r3]
 1522              	.LVL83:
 807:Drivers/STM32G0xx_HAL_Driver/Src/stm32g0xx_hal_dma.c ****   {
 1523              		.loc 1 807 3 is_stmt 1 view .LVU543
 807:Drivers/STM32G0xx_HAL_Driver/Src/stm32g0xx_hal_dma.c ****   {
 1524              		.loc 1 807 6 is_stmt 0 view .LVU544
 1525 0016 2642     		tst	r6, r4
 1526 0018 0FD0     		beq	.L108
 807:Drivers/STM32G0xx_HAL_Driver/Src/stm32g0xx_hal_dma.c ****   {
 1527              		.loc 1 807 74 discriminator 1 view .LVU545
 1528 001a 3D42     		tst	r5, r7
 1529 001c 0DD0     		beq	.L108
 810:Drivers/STM32G0xx_HAL_Driver/Src/stm32g0xx_hal_dma.c ****       {
 1530              		.loc 1 810 7 is_stmt 1 view .LVU546
 810:Drivers/STM32G0xx_HAL_Driver/Src/stm32g0xx_hal_dma.c ****       {
 1531              		.loc 1 810 26 is_stmt 0 view .LVU547
 1532 001e 1968     		ldr	r1, [r3]
 810:Drivers/STM32G0xx_HAL_Driver/Src/stm32g0xx_hal_dma.c ****       {
 1533              		.loc 1 810 10 view .LVU548
ARM GAS  /tmp/ccbqyIjO.s 			page 57


 1534 0020 8906     		lsls	r1, r1, #26
 1535 0022 02D4     		bmi	.L109
 813:Drivers/STM32G0xx_HAL_Driver/Src/stm32g0xx_hal_dma.c ****       }
 1536              		.loc 1 813 9 is_stmt 1 view .LVU549
 1537 0024 1968     		ldr	r1, [r3]
 1538 0026 B943     		bics	r1, r7
 1539 0028 1960     		str	r1, [r3]
 1540              	.L109:
 819:Drivers/STM32G0xx_HAL_Driver/Src/stm32g0xx_hal_dma.c **** #endif /* DMA2 */
 1541              		.loc 1 819 7 view .LVU550
 1542 002a 5368     		ldr	r3, [r2, #4]
 1543 002c 1C43     		orrs	r4, r3
 825:Drivers/STM32G0xx_HAL_Driver/Src/stm32g0xx_hal_dma.c ****       {
 1544              		.loc 1 825 15 is_stmt 0 view .LVU551
 1545 002e 036B     		ldr	r3, [r0, #48]
 819:Drivers/STM32G0xx_HAL_Driver/Src/stm32g0xx_hal_dma.c **** #endif /* DMA2 */
 1546              		.loc 1 819 7 view .LVU552
 1547 0030 5460     		str	r4, [r2, #4]
 825:Drivers/STM32G0xx_HAL_Driver/Src/stm32g0xx_hal_dma.c ****       {
 1548              		.loc 1 825 7 is_stmt 1 view .LVU553
 825:Drivers/STM32G0xx_HAL_Driver/Src/stm32g0xx_hal_dma.c ****       {
 1549              		.loc 1 825 10 is_stmt 0 view .LVU554
 1550 0032 002B     		cmp	r3, #0
 1551 0034 1BD0     		beq	.L107
 1552              	.LVL84:
 1553              	.L141:
 883:Drivers/STM32G0xx_HAL_Driver/Src/stm32g0xx_hal_dma.c ****     }
 1554              		.loc 1 883 7 is_stmt 1 view .LVU555
 1555 0036 9847     		blx	r3
 1556              	.LVL85:
 889:Drivers/STM32G0xx_HAL_Driver/Src/stm32g0xx_hal_dma.c ****   return;
 1557              		.loc 1 889 3 view .LVU556
 890:Drivers/STM32G0xx_HAL_Driver/Src/stm32g0xx_hal_dma.c **** }
 1558              		.loc 1 890 3 view .LVU557
 1559 0038 19E0     		b	.L107
 1560              	.LVL86:
 1561              	.L108:
 833:Drivers/STM32G0xx_HAL_Driver/Src/stm32g0xx_hal_dma.c ****   {
 1562              		.loc 1 833 8 view .LVU558
 833:Drivers/STM32G0xx_HAL_Driver/Src/stm32g0xx_hal_dma.c ****   {
 1563              		.loc 1 833 44 is_stmt 0 view .LVU559
 1564 003a 0227     		movs	r7, #2
 1565 003c 3C00     		movs	r4, r7
 1566 003e 8C40     		lsls	r4, r4, r1
 833:Drivers/STM32G0xx_HAL_Driver/Src/stm32g0xx_hal_dma.c ****   {
 1567              		.loc 1 833 11 view .LVU560
 1568 0040 2642     		tst	r6, r4
 1569 0042 15D0     		beq	.L112
 833:Drivers/STM32G0xx_HAL_Driver/Src/stm32g0xx_hal_dma.c ****   {
 1570              		.loc 1 833 79 discriminator 1 view .LVU561
 1571 0044 3D42     		tst	r5, r7
 1572 0046 13D0     		beq	.L112
 835:Drivers/STM32G0xx_HAL_Driver/Src/stm32g0xx_hal_dma.c ****       {
 1573              		.loc 1 835 7 is_stmt 1 view .LVU562
 835:Drivers/STM32G0xx_HAL_Driver/Src/stm32g0xx_hal_dma.c ****       {
 1574              		.loc 1 835 26 is_stmt 0 view .LVU563
 1575 0048 1968     		ldr	r1, [r3]
ARM GAS  /tmp/ccbqyIjO.s 			page 58


 835:Drivers/STM32G0xx_HAL_Driver/Src/stm32g0xx_hal_dma.c ****       {
 1576              		.loc 1 835 10 view .LVU564
 1577 004a 8906     		lsls	r1, r1, #26
 1578 004c 06D4     		bmi	.L113
 838:Drivers/STM32G0xx_HAL_Driver/Src/stm32g0xx_hal_dma.c **** 
 1579              		.loc 1 838 9 is_stmt 1 view .LVU565
 1580 004e 0A25     		movs	r5, #10
 1581              	.LVL87:
 838:Drivers/STM32G0xx_HAL_Driver/Src/stm32g0xx_hal_dma.c **** 
 1582              		.loc 1 838 9 is_stmt 0 view .LVU566
 1583 0050 1968     		ldr	r1, [r3]
 1584 0052 A943     		bics	r1, r5
 1585 0054 1960     		str	r1, [r3]
 841:Drivers/STM32G0xx_HAL_Driver/Src/stm32g0xx_hal_dma.c ****       }
 1586              		.loc 1 841 9 is_stmt 1 view .LVU567
 841:Drivers/STM32G0xx_HAL_Driver/Src/stm32g0xx_hal_dma.c ****       }
 1587              		.loc 1 841 21 is_stmt 0 view .LVU568
 1588 0056 0121     		movs	r1, #1
 1589 0058 831D     		adds	r3, r0, #6
 1590 005a D977     		strb	r1, [r3, #31]
 1591              	.L113:
 844:Drivers/STM32G0xx_HAL_Driver/Src/stm32g0xx_hal_dma.c **** 
 1592              		.loc 1 844 7 is_stmt 1 view .LVU569
 1593 005c 5368     		ldr	r3, [r2, #4]
 1594 005e 1C43     		orrs	r4, r3
 1595 0060 5460     		str	r4, [r2, #4]
 847:Drivers/STM32G0xx_HAL_Driver/Src/stm32g0xx_hal_dma.c **** 
 1596              		.loc 1 847 7 view .LVU570
 847:Drivers/STM32G0xx_HAL_Driver/Src/stm32g0xx_hal_dma.c **** 
 1597              		.loc 1 847 7 view .LVU571
 1598 0062 0022     		movs	r2, #0
 1599 0064 431D     		adds	r3, r0, #5
 1600 0066 DA77     		strb	r2, [r3, #31]
 847:Drivers/STM32G0xx_HAL_Driver/Src/stm32g0xx_hal_dma.c **** 
 1601              		.loc 1 847 7 view .LVU572
 849:Drivers/STM32G0xx_HAL_Driver/Src/stm32g0xx_hal_dma.c ****       {
 1602              		.loc 1 849 7 view .LVU573
 849:Drivers/STM32G0xx_HAL_Driver/Src/stm32g0xx_hal_dma.c ****       {
 1603              		.loc 1 849 15 is_stmt 0 view .LVU574
 1604 0068 C36A     		ldr	r3, [r0, #44]
 1605              	.L143:
 880:Drivers/STM32G0xx_HAL_Driver/Src/stm32g0xx_hal_dma.c ****     {
 1606              		.loc 1 880 8 view .LVU575
 1607 006a 9342     		cmp	r3, r2
 1608 006c E3D1     		bne	.L141
 1609              	.LVL88:
 1610              	.L107:
 891:Drivers/STM32G0xx_HAL_Driver/Src/stm32g0xx_hal_dma.c **** 
 1611              		.loc 1 891 1 view .LVU576
 1612              		@ sp needed
 1613              	.LVL89:
 891:Drivers/STM32G0xx_HAL_Driver/Src/stm32g0xx_hal_dma.c **** 
 1614              		.loc 1 891 1 view .LVU577
 1615 006e F8BD     		pop	{r3, r4, r5, r6, r7, pc}
 1616              	.LVL90:
 1617              	.L112:
 857:Drivers/STM32G0xx_HAL_Driver/Src/stm32g0xx_hal_dma.c ****   {
ARM GAS  /tmp/ccbqyIjO.s 			page 59


 1618              		.loc 1 857 8 is_stmt 1 view .LVU578
 857:Drivers/STM32G0xx_HAL_Driver/Src/stm32g0xx_hal_dma.c ****   {
 1619              		.loc 1 857 38 is_stmt 0 view .LVU579
 1620 0070 0824     		movs	r4, #8
 1621 0072 2700     		movs	r7, r4
 1622 0074 8F40     		lsls	r7, r7, r1
 857:Drivers/STM32G0xx_HAL_Driver/Src/stm32g0xx_hal_dma.c ****   {
 1623              		.loc 1 857 11 view .LVU580
 1624 0076 3E42     		tst	r6, r7
 1625 0078 F9D0     		beq	.L107
 857:Drivers/STM32G0xx_HAL_Driver/Src/stm32g0xx_hal_dma.c ****   {
 1626              		.loc 1 857 79 discriminator 1 view .LVU581
 1627 007a 2542     		tst	r5, r4
 1628 007c F7D0     		beq	.L107
 862:Drivers/STM32G0xx_HAL_Driver/Src/stm32g0xx_hal_dma.c **** 
 1629              		.loc 1 862 5 is_stmt 1 view .LVU582
 1630 007e 0E25     		movs	r5, #14
 1631              	.LVL91:
 862:Drivers/STM32G0xx_HAL_Driver/Src/stm32g0xx_hal_dma.c **** 
 1632              		.loc 1 862 5 is_stmt 0 view .LVU583
 1633 0080 1C68     		ldr	r4, [r3]
 1634 0082 AC43     		bics	r4, r5
 1635 0084 1C60     		str	r4, [r3]
 868:Drivers/STM32G0xx_HAL_Driver/Src/stm32g0xx_hal_dma.c **** #endif /* DMA2 */
 1636              		.loc 1 868 5 is_stmt 1 view .LVU584
 1637 0086 0123     		movs	r3, #1
 1638 0088 1D00     		movs	r5, r3
 1639 008a 8D40     		lsls	r5, r5, r1
 1640 008c 2900     		movs	r1, r5
 1641 008e 5468     		ldr	r4, [r2, #4]
 1642 0090 2143     		orrs	r1, r4
 1643 0092 5160     		str	r1, [r2, #4]
 872:Drivers/STM32G0xx_HAL_Driver/Src/stm32g0xx_hal_dma.c **** 
 1644              		.loc 1 872 5 view .LVU585
 875:Drivers/STM32G0xx_HAL_Driver/Src/stm32g0xx_hal_dma.c **** 
 1645              		.loc 1 875 17 is_stmt 0 view .LVU586
 1646 0094 821D     		adds	r2, r0, #6
 872:Drivers/STM32G0xx_HAL_Driver/Src/stm32g0xx_hal_dma.c **** 
 1647              		.loc 1 872 21 view .LVU587
 1648 0096 C363     		str	r3, [r0, #60]
 875:Drivers/STM32G0xx_HAL_Driver/Src/stm32g0xx_hal_dma.c **** 
 1649              		.loc 1 875 5 is_stmt 1 view .LVU588
 875:Drivers/STM32G0xx_HAL_Driver/Src/stm32g0xx_hal_dma.c **** 
 1650              		.loc 1 875 17 is_stmt 0 view .LVU589
 1651 0098 D377     		strb	r3, [r2, #31]
 878:Drivers/STM32G0xx_HAL_Driver/Src/stm32g0xx_hal_dma.c **** 
 1652              		.loc 1 878 5 is_stmt 1 view .LVU590
 878:Drivers/STM32G0xx_HAL_Driver/Src/stm32g0xx_hal_dma.c **** 
 1653              		.loc 1 878 5 view .LVU591
 1654 009a 0022     		movs	r2, #0
 1655 009c 431D     		adds	r3, r0, #5
 1656 009e DA77     		strb	r2, [r3, #31]
 878:Drivers/STM32G0xx_HAL_Driver/Src/stm32g0xx_hal_dma.c **** 
 1657              		.loc 1 878 5 view .LVU592
 880:Drivers/STM32G0xx_HAL_Driver/Src/stm32g0xx_hal_dma.c ****     {
 1658              		.loc 1 880 5 view .LVU593
 880:Drivers/STM32G0xx_HAL_Driver/Src/stm32g0xx_hal_dma.c ****     {
ARM GAS  /tmp/ccbqyIjO.s 			page 60


 1659              		.loc 1 880 13 is_stmt 0 view .LVU594
 1660 00a0 436B     		ldr	r3, [r0, #52]
 1661 00a2 E2E7     		b	.L143
 1662              	.L145:
 1663              		.align	2
 1664              	.L144:
 1665 00a4 00000240 		.word	1073872896
 1666              		.cfi_endproc
 1667              	.LFE427:
 1669              		.section	.text.HAL_DMA_RegisterCallback,"ax",%progbits
 1670              		.align	1
 1671              		.global	HAL_DMA_RegisterCallback
 1672              		.syntax unified
 1673              		.code	16
 1674              		.thumb_func
 1676              	HAL_DMA_RegisterCallback:
 1677              	.LVL92:
 1678              	.LFB428:
 904:Drivers/STM32G0xx_HAL_Driver/Src/stm32g0xx_hal_dma.c ****   HAL_StatusTypeDef status = HAL_OK;
 1679              		.loc 1 904 1 is_stmt 1 view -0
 1680              		.cfi_startproc
 1681              		@ args = 0, pretend = 0, frame = 0
 1682              		@ frame_needed = 0, uses_anonymous_args = 0
 905:Drivers/STM32G0xx_HAL_Driver/Src/stm32g0xx_hal_dma.c **** 
 1683              		.loc 1 905 3 view .LVU596
 908:Drivers/STM32G0xx_HAL_Driver/Src/stm32g0xx_hal_dma.c **** 
 1684              		.loc 1 908 3 view .LVU597
 908:Drivers/STM32G0xx_HAL_Driver/Src/stm32g0xx_hal_dma.c **** 
 1685              		.loc 1 908 3 view .LVU598
 904:Drivers/STM32G0xx_HAL_Driver/Src/stm32g0xx_hal_dma.c ****   HAL_StatusTypeDef status = HAL_OK;
 1686              		.loc 1 904 1 is_stmt 0 view .LVU599
 1687 0000 0300     		movs	r3, r0
 1688 0002 30B5     		push	{r4, r5, lr}
 1689              	.LCFI11:
 1690              		.cfi_def_cfa_offset 12
 1691              		.cfi_offset 4, -12
 1692              		.cfi_offset 5, -8
 1693              		.cfi_offset 14, -4
 904:Drivers/STM32G0xx_HAL_Driver/Src/stm32g0xx_hal_dma.c ****   HAL_StatusTypeDef status = HAL_OK;
 1694              		.loc 1 904 1 view .LVU600
 1695 0004 0800     		movs	r0, r1
 1696              	.LVL93:
 908:Drivers/STM32G0xx_HAL_Driver/Src/stm32g0xx_hal_dma.c **** 
 1697              		.loc 1 908 3 view .LVU601
 1698 0006 591D     		adds	r1, r3, #5
 1699              	.LVL94:
 908:Drivers/STM32G0xx_HAL_Driver/Src/stm32g0xx_hal_dma.c **** 
 1700              		.loc 1 908 3 view .LVU602
 1701 0008 CD7F     		ldrb	r5, [r1, #31]
 908:Drivers/STM32G0xx_HAL_Driver/Src/stm32g0xx_hal_dma.c **** 
 1702              		.loc 1 908 3 discriminator 1 view .LVU603
 1703 000a 0224     		movs	r4, #2
 908:Drivers/STM32G0xx_HAL_Driver/Src/stm32g0xx_hal_dma.c **** 
 1704              		.loc 1 908 3 view .LVU604
 1705 000c 012D     		cmp	r5, #1
 1706 000e 0ED0     		beq	.L147
 908:Drivers/STM32G0xx_HAL_Driver/Src/stm32g0xx_hal_dma.c **** 
ARM GAS  /tmp/ccbqyIjO.s 			page 61


 1707              		.loc 1 908 3 is_stmt 1 discriminator 2 view .LVU605
 908:Drivers/STM32G0xx_HAL_Driver/Src/stm32g0xx_hal_dma.c **** 
 1708              		.loc 1 908 3 discriminator 2 view .LVU606
 910:Drivers/STM32G0xx_HAL_Driver/Src/stm32g0xx_hal_dma.c ****   {
 1709              		.loc 1 910 3 view .LVU607
 910:Drivers/STM32G0xx_HAL_Driver/Src/stm32g0xx_hal_dma.c ****   {
 1710              		.loc 1 910 11 is_stmt 0 view .LVU608
 1711 0010 9C1D     		adds	r4, r3, #6
 1712 0012 E57F     		ldrb	r5, [r4, #31]
 1713 0014 ECB2     		uxtb	r4, r5
 910:Drivers/STM32G0xx_HAL_Driver/Src/stm32g0xx_hal_dma.c ****   {
 1714              		.loc 1 910 6 view .LVU609
 1715 0016 012D     		cmp	r5, #1
 1716 0018 11D1     		bne	.L156
 912:Drivers/STM32G0xx_HAL_Driver/Src/stm32g0xx_hal_dma.c ****     {
 1717              		.loc 1 912 5 is_stmt 1 view .LVU610
 1718 001a 0328     		cmp	r0, #3
 1719 001c 05D8     		bhi	.L148
 1720 001e FFF7FEFF 		bl	__gnu_thumb1_case_uqi
 1721              	.L150:
 1722 0022 02       		.byte	(.L153-.L150)/2
 1723 0023 08       		.byte	(.L152-.L150)/2
 1724 0024 0A       		.byte	(.L151-.L150)/2
 1725 0025 0C       		.byte	(.L149-.L150)/2
 1726              		.p2align 1
 1727              	.L153:
 915:Drivers/STM32G0xx_HAL_Driver/Src/stm32g0xx_hal_dma.c ****         break;
 1728              		.loc 1 915 9 view .LVU611
 915:Drivers/STM32G0xx_HAL_Driver/Src/stm32g0xx_hal_dma.c ****         break;
 1729              		.loc 1 915 32 is_stmt 0 view .LVU612
 1730 0026 DA62     		str	r2, [r3, #44]
 916:Drivers/STM32G0xx_HAL_Driver/Src/stm32g0xx_hal_dma.c **** 
 1731              		.loc 1 916 9 is_stmt 1 view .LVU613
 1732              	.L154:
 905:Drivers/STM32G0xx_HAL_Driver/Src/stm32g0xx_hal_dma.c **** 
 1733              		.loc 1 905 21 is_stmt 0 view .LVU614
 1734 0028 0024     		movs	r4, #0
 1735              	.L148:
 1736              	.LVL95:
 941:Drivers/STM32G0xx_HAL_Driver/Src/stm32g0xx_hal_dma.c **** 
 1737              		.loc 1 941 3 is_stmt 1 view .LVU615
 941:Drivers/STM32G0xx_HAL_Driver/Src/stm32g0xx_hal_dma.c **** 
 1738              		.loc 1 941 3 view .LVU616
 1739 002a 0023     		movs	r3, #0
 1740              	.LVL96:
 941:Drivers/STM32G0xx_HAL_Driver/Src/stm32g0xx_hal_dma.c **** 
 1741              		.loc 1 941 3 is_stmt 0 view .LVU617
 1742 002c CB77     		strb	r3, [r1, #31]
 941:Drivers/STM32G0xx_HAL_Driver/Src/stm32g0xx_hal_dma.c **** 
 1743              		.loc 1 941 3 is_stmt 1 view .LVU618
 943:Drivers/STM32G0xx_HAL_Driver/Src/stm32g0xx_hal_dma.c **** }
 1744              		.loc 1 943 3 view .LVU619
 1745              	.LVL97:
 1746              	.L147:
 944:Drivers/STM32G0xx_HAL_Driver/Src/stm32g0xx_hal_dma.c **** 
 1747              		.loc 1 944 1 is_stmt 0 view .LVU620
 1748 002e 2000     		movs	r0, r4
ARM GAS  /tmp/ccbqyIjO.s 			page 62


 1749              	.LVL98:
 944:Drivers/STM32G0xx_HAL_Driver/Src/stm32g0xx_hal_dma.c **** 
 1750              		.loc 1 944 1 view .LVU621
 1751              		@ sp needed
 1752 0030 30BD     		pop	{r4, r5, pc}
 1753              	.LVL99:
 1754              	.L152:
 919:Drivers/STM32G0xx_HAL_Driver/Src/stm32g0xx_hal_dma.c ****         break;
 1755              		.loc 1 919 9 is_stmt 1 view .LVU622
 919:Drivers/STM32G0xx_HAL_Driver/Src/stm32g0xx_hal_dma.c ****         break;
 1756              		.loc 1 919 36 is_stmt 0 view .LVU623
 1757 0032 1A63     		str	r2, [r3, #48]
 920:Drivers/STM32G0xx_HAL_Driver/Src/stm32g0xx_hal_dma.c **** 
 1758              		.loc 1 920 9 is_stmt 1 view .LVU624
 1759 0034 F8E7     		b	.L154
 1760              	.L151:
 923:Drivers/STM32G0xx_HAL_Driver/Src/stm32g0xx_hal_dma.c ****         break;
 1761              		.loc 1 923 9 view .LVU625
 923:Drivers/STM32G0xx_HAL_Driver/Src/stm32g0xx_hal_dma.c ****         break;
 1762              		.loc 1 923 33 is_stmt 0 view .LVU626
 1763 0036 5A63     		str	r2, [r3, #52]
 924:Drivers/STM32G0xx_HAL_Driver/Src/stm32g0xx_hal_dma.c **** 
 1764              		.loc 1 924 9 is_stmt 1 view .LVU627
 1765 0038 F6E7     		b	.L154
 1766              	.L149:
 927:Drivers/STM32G0xx_HAL_Driver/Src/stm32g0xx_hal_dma.c ****         break;
 1767              		.loc 1 927 9 view .LVU628
 927:Drivers/STM32G0xx_HAL_Driver/Src/stm32g0xx_hal_dma.c ****         break;
 1768              		.loc 1 927 33 is_stmt 0 view .LVU629
 1769 003a 9A63     		str	r2, [r3, #56]
 928:Drivers/STM32G0xx_HAL_Driver/Src/stm32g0xx_hal_dma.c **** 
 1770              		.loc 1 928 9 is_stmt 1 view .LVU630
 1771 003c F4E7     		b	.L154
 1772              	.L156:
 928:Drivers/STM32G0xx_HAL_Driver/Src/stm32g0xx_hal_dma.c **** 
 1773              		.loc 1 928 9 is_stmt 0 view .LVU631
 1774 003e 0124     		movs	r4, #1
 1775 0040 F3E7     		b	.L148
 1776              		.cfi_endproc
 1777              	.LFE428:
 1779              		.section	.text.HAL_DMA_UnRegisterCallback,"ax",%progbits
 1780              		.align	1
 1781              		.global	HAL_DMA_UnRegisterCallback
 1782              		.syntax unified
 1783              		.code	16
 1784              		.thumb_func
 1786              	HAL_DMA_UnRegisterCallback:
 1787              	.LVL100:
 1788              	.LFB429:
 955:Drivers/STM32G0xx_HAL_Driver/Src/stm32g0xx_hal_dma.c ****   HAL_StatusTypeDef status = HAL_OK;
 1789              		.loc 1 955 1 is_stmt 1 view -0
 1790              		.cfi_startproc
 1791              		@ args = 0, pretend = 0, frame = 0
 1792              		@ frame_needed = 0, uses_anonymous_args = 0
 956:Drivers/STM32G0xx_HAL_Driver/Src/stm32g0xx_hal_dma.c **** 
 1793              		.loc 1 956 3 view .LVU633
 959:Drivers/STM32G0xx_HAL_Driver/Src/stm32g0xx_hal_dma.c **** 
ARM GAS  /tmp/ccbqyIjO.s 			page 63


 1794              		.loc 1 959 3 view .LVU634
 959:Drivers/STM32G0xx_HAL_Driver/Src/stm32g0xx_hal_dma.c **** 
 1795              		.loc 1 959 3 view .LVU635
 955:Drivers/STM32G0xx_HAL_Driver/Src/stm32g0xx_hal_dma.c ****   HAL_StatusTypeDef status = HAL_OK;
 1796              		.loc 1 955 1 is_stmt 0 view .LVU636
 1797 0000 0300     		movs	r3, r0
 1798 0002 30B5     		push	{r4, r5, lr}
 1799              	.LCFI12:
 1800              		.cfi_def_cfa_offset 12
 1801              		.cfi_offset 4, -12
 1802              		.cfi_offset 5, -8
 1803              		.cfi_offset 14, -4
 955:Drivers/STM32G0xx_HAL_Driver/Src/stm32g0xx_hal_dma.c ****   HAL_StatusTypeDef status = HAL_OK;
 1804              		.loc 1 955 1 view .LVU637
 1805 0004 0800     		movs	r0, r1
 1806              	.LVL101:
 959:Drivers/STM32G0xx_HAL_Driver/Src/stm32g0xx_hal_dma.c **** 
 1807              		.loc 1 959 3 view .LVU638
 1808 0006 591D     		adds	r1, r3, #5
 1809              	.LVL102:
 959:Drivers/STM32G0xx_HAL_Driver/Src/stm32g0xx_hal_dma.c **** 
 1810              		.loc 1 959 3 view .LVU639
 1811 0008 CC7F     		ldrb	r4, [r1, #31]
 959:Drivers/STM32G0xx_HAL_Driver/Src/stm32g0xx_hal_dma.c **** 
 1812              		.loc 1 959 3 discriminator 1 view .LVU640
 1813 000a 0222     		movs	r2, #2
 959:Drivers/STM32G0xx_HAL_Driver/Src/stm32g0xx_hal_dma.c **** 
 1814              		.loc 1 959 3 view .LVU641
 1815 000c 012C     		cmp	r4, #1
 1816 000e 12D0     		beq	.L158
 959:Drivers/STM32G0xx_HAL_Driver/Src/stm32g0xx_hal_dma.c **** 
 1817              		.loc 1 959 3 is_stmt 1 discriminator 2 view .LVU642
 1818 0010 0124     		movs	r4, #1
 961:Drivers/STM32G0xx_HAL_Driver/Src/stm32g0xx_hal_dma.c ****   {
 1819              		.loc 1 961 11 is_stmt 0 view .LVU643
 1820 0012 9A1D     		adds	r2, r3, #6
 959:Drivers/STM32G0xx_HAL_Driver/Src/stm32g0xx_hal_dma.c **** 
 1821              		.loc 1 959 3 discriminator 2 view .LVU644
 1822 0014 CC77     		strb	r4, [r1, #31]
 959:Drivers/STM32G0xx_HAL_Driver/Src/stm32g0xx_hal_dma.c **** 
 1823              		.loc 1 959 3 is_stmt 1 discriminator 2 view .LVU645
 961:Drivers/STM32G0xx_HAL_Driver/Src/stm32g0xx_hal_dma.c ****   {
 1824              		.loc 1 961 3 view .LVU646
 961:Drivers/STM32G0xx_HAL_Driver/Src/stm32g0xx_hal_dma.c ****   {
 1825              		.loc 1 961 11 is_stmt 0 view .LVU647
 1826 0016 D57F     		ldrb	r5, [r2, #31]
 1827 0018 EAB2     		uxtb	r2, r5
 961:Drivers/STM32G0xx_HAL_Driver/Src/stm32g0xx_hal_dma.c ****   {
 1828              		.loc 1 961 6 view .LVU648
 1829 001a A542     		cmp	r5, r4
 1830 001c 16D1     		bne	.L168
 963:Drivers/STM32G0xx_HAL_Driver/Src/stm32g0xx_hal_dma.c ****     {
 1831              		.loc 1 963 5 is_stmt 1 view .LVU649
 1832 001e 0428     		cmp	r0, #4
 1833 0020 07D8     		bhi	.L159
 1834 0022 0022     		movs	r2, #0
 1835 0024 FFF7FEFF 		bl	__gnu_thumb1_case_uqi
ARM GAS  /tmp/ccbqyIjO.s 			page 64


 1836              	.L161:
 1837 0028 03       		.byte	(.L165-.L161)/2
 1838 0029 09       		.byte	(.L164-.L161)/2
 1839 002a 0B       		.byte	(.L163-.L161)/2
 1840 002b 10       		.byte	(.L169-.L161)/2
 1841 002c 0D       		.byte	(.L160-.L161)/2
 1842 002d 00       		.p2align 1
 1843              	.L165:
 966:Drivers/STM32G0xx_HAL_Driver/Src/stm32g0xx_hal_dma.c ****         break;
 1844              		.loc 1 966 9 view .LVU650
 966:Drivers/STM32G0xx_HAL_Driver/Src/stm32g0xx_hal_dma.c ****         break;
 1845              		.loc 1 966 32 is_stmt 0 view .LVU651
 1846 002e DA62     		str	r2, [r3, #44]
 967:Drivers/STM32G0xx_HAL_Driver/Src/stm32g0xx_hal_dma.c **** 
 1847              		.loc 1 967 9 is_stmt 1 view .LVU652
 1848              	.L166:
 956:Drivers/STM32G0xx_HAL_Driver/Src/stm32g0xx_hal_dma.c **** 
 1849              		.loc 1 956 21 is_stmt 0 view .LVU653
 1850 0030 0022     		movs	r2, #0
 1851              	.L159:
 1852              	.LVL103:
 999:Drivers/STM32G0xx_HAL_Driver/Src/stm32g0xx_hal_dma.c **** 
 1853              		.loc 1 999 3 is_stmt 1 view .LVU654
 999:Drivers/STM32G0xx_HAL_Driver/Src/stm32g0xx_hal_dma.c **** 
 1854              		.loc 1 999 3 view .LVU655
 1855 0032 0023     		movs	r3, #0
 1856              	.LVL104:
 999:Drivers/STM32G0xx_HAL_Driver/Src/stm32g0xx_hal_dma.c **** 
 1857              		.loc 1 999 3 is_stmt 0 view .LVU656
 1858 0034 CB77     		strb	r3, [r1, #31]
 999:Drivers/STM32G0xx_HAL_Driver/Src/stm32g0xx_hal_dma.c **** 
 1859              		.loc 1 999 3 is_stmt 1 view .LVU657
1001:Drivers/STM32G0xx_HAL_Driver/Src/stm32g0xx_hal_dma.c **** }
 1860              		.loc 1 1001 3 view .LVU658
 1861              	.LVL105:
 1862              	.L158:
1002:Drivers/STM32G0xx_HAL_Driver/Src/stm32g0xx_hal_dma.c **** 
 1863              		.loc 1 1002 1 is_stmt 0 view .LVU659
 1864 0036 1000     		movs	r0, r2
 1865              	.LVL106:
1002:Drivers/STM32G0xx_HAL_Driver/Src/stm32g0xx_hal_dma.c **** 
 1866              		.loc 1 1002 1 view .LVU660
 1867              		@ sp needed
 1868 0038 30BD     		pop	{r4, r5, pc}
 1869              	.LVL107:
 1870              	.L164:
 970:Drivers/STM32G0xx_HAL_Driver/Src/stm32g0xx_hal_dma.c ****         break;
 1871              		.loc 1 970 9 is_stmt 1 view .LVU661
 970:Drivers/STM32G0xx_HAL_Driver/Src/stm32g0xx_hal_dma.c ****         break;
 1872              		.loc 1 970 36 is_stmt 0 view .LVU662
 1873 003a 1A63     		str	r2, [r3, #48]
 971:Drivers/STM32G0xx_HAL_Driver/Src/stm32g0xx_hal_dma.c **** 
 1874              		.loc 1 971 9 is_stmt 1 view .LVU663
 1875 003c F8E7     		b	.L166
 1876              	.L163:
 974:Drivers/STM32G0xx_HAL_Driver/Src/stm32g0xx_hal_dma.c ****         break;
 1877              		.loc 1 974 9 view .LVU664
ARM GAS  /tmp/ccbqyIjO.s 			page 65


 974:Drivers/STM32G0xx_HAL_Driver/Src/stm32g0xx_hal_dma.c ****         break;
 1878              		.loc 1 974 33 is_stmt 0 view .LVU665
 1879 003e 5A63     		str	r2, [r3, #52]
 975:Drivers/STM32G0xx_HAL_Driver/Src/stm32g0xx_hal_dma.c **** 
 1880              		.loc 1 975 9 is_stmt 1 view .LVU666
 1881 0040 F6E7     		b	.L166
 1882              	.L160:
 982:Drivers/STM32G0xx_HAL_Driver/Src/stm32g0xx_hal_dma.c ****         hdma->XferHalfCpltCallback = NULL;
 1883              		.loc 1 982 9 view .LVU667
 982:Drivers/STM32G0xx_HAL_Driver/Src/stm32g0xx_hal_dma.c ****         hdma->XferHalfCpltCallback = NULL;
 1884              		.loc 1 982 32 is_stmt 0 view .LVU668
 1885 0042 DA62     		str	r2, [r3, #44]
 983:Drivers/STM32G0xx_HAL_Driver/Src/stm32g0xx_hal_dma.c ****         hdma->XferErrorCallback = NULL;
 1886              		.loc 1 983 9 is_stmt 1 view .LVU669
 983:Drivers/STM32G0xx_HAL_Driver/Src/stm32g0xx_hal_dma.c ****         hdma->XferErrorCallback = NULL;
 1887              		.loc 1 983 36 is_stmt 0 view .LVU670
 1888 0044 1A63     		str	r2, [r3, #48]
 984:Drivers/STM32G0xx_HAL_Driver/Src/stm32g0xx_hal_dma.c ****         hdma->XferAbortCallback = NULL;
 1889              		.loc 1 984 9 is_stmt 1 view .LVU671
 984:Drivers/STM32G0xx_HAL_Driver/Src/stm32g0xx_hal_dma.c ****         hdma->XferAbortCallback = NULL;
 1890              		.loc 1 984 33 is_stmt 0 view .LVU672
 1891 0046 5A63     		str	r2, [r3, #52]
 1892              	.L169:
 985:Drivers/STM32G0xx_HAL_Driver/Src/stm32g0xx_hal_dma.c ****         break;
 1893              		.loc 1 985 9 is_stmt 1 view .LVU673
 985:Drivers/STM32G0xx_HAL_Driver/Src/stm32g0xx_hal_dma.c ****         break;
 1894              		.loc 1 985 33 is_stmt 0 view .LVU674
 1895 0048 9A63     		str	r2, [r3, #56]
 986:Drivers/STM32G0xx_HAL_Driver/Src/stm32g0xx_hal_dma.c **** 
 1896              		.loc 1 986 9 is_stmt 1 view .LVU675
 1897 004a F1E7     		b	.L166
 1898              	.L168:
 986:Drivers/STM32G0xx_HAL_Driver/Src/stm32g0xx_hal_dma.c **** 
 1899              		.loc 1 986 9 is_stmt 0 view .LVU676
 1900 004c 2200     		movs	r2, r4
 1901 004e F0E7     		b	.L159
 1902              		.cfi_endproc
 1903              	.LFE429:
 1905              		.section	.text.HAL_DMA_GetState,"ax",%progbits
 1906              		.align	1
 1907              		.global	HAL_DMA_GetState
 1908              		.syntax unified
 1909              		.code	16
 1910              		.thumb_func
 1912              	HAL_DMA_GetState:
 1913              	.LVL108:
 1914              	.LFB430:
1033:Drivers/STM32G0xx_HAL_Driver/Src/stm32g0xx_hal_dma.c ****   /* Return DMA handle state */
 1915              		.loc 1 1033 1 is_stmt 1 view -0
 1916              		.cfi_startproc
 1917              		@ args = 0, pretend = 0, frame = 0
 1918              		@ frame_needed = 0, uses_anonymous_args = 0
 1919              		@ link register save eliminated.
1035:Drivers/STM32G0xx_HAL_Driver/Src/stm32g0xx_hal_dma.c **** }
 1920              		.loc 1 1035 3 view .LVU678
1035:Drivers/STM32G0xx_HAL_Driver/Src/stm32g0xx_hal_dma.c **** }
 1921              		.loc 1 1035 14 is_stmt 0 view .LVU679
ARM GAS  /tmp/ccbqyIjO.s 			page 66


 1922 0000 0630     		adds	r0, r0, #6
 1923              	.LVL109:
1035:Drivers/STM32G0xx_HAL_Driver/Src/stm32g0xx_hal_dma.c **** }
 1924              		.loc 1 1035 14 view .LVU680
 1925 0002 C07F     		ldrb	r0, [r0, #31]
 1926              	.LVL110:
1036:Drivers/STM32G0xx_HAL_Driver/Src/stm32g0xx_hal_dma.c **** 
 1927              		.loc 1 1036 1 view .LVU681
 1928              		@ sp needed
1035:Drivers/STM32G0xx_HAL_Driver/Src/stm32g0xx_hal_dma.c **** }
 1929              		.loc 1 1035 14 view .LVU682
 1930 0004 C0B2     		uxtb	r0, r0
1036:Drivers/STM32G0xx_HAL_Driver/Src/stm32g0xx_hal_dma.c **** 
 1931              		.loc 1 1036 1 view .LVU683
 1932 0006 7047     		bx	lr
 1933              		.cfi_endproc
 1934              	.LFE430:
 1936              		.section	.text.HAL_DMA_GetError,"ax",%progbits
 1937              		.align	1
 1938              		.global	HAL_DMA_GetError
 1939              		.syntax unified
 1940              		.code	16
 1941              		.thumb_func
 1943              	HAL_DMA_GetError:
 1944              	.LVL111:
 1945              	.LFB431:
1045:Drivers/STM32G0xx_HAL_Driver/Src/stm32g0xx_hal_dma.c ****   /* Return the DMA error code */
 1946              		.loc 1 1045 1 is_stmt 1 view -0
 1947              		.cfi_startproc
 1948              		@ args = 0, pretend = 0, frame = 0
 1949              		@ frame_needed = 0, uses_anonymous_args = 0
 1950              		@ link register save eliminated.
1047:Drivers/STM32G0xx_HAL_Driver/Src/stm32g0xx_hal_dma.c **** }
 1951              		.loc 1 1047 3 view .LVU685
1047:Drivers/STM32G0xx_HAL_Driver/Src/stm32g0xx_hal_dma.c **** }
 1952              		.loc 1 1047 14 is_stmt 0 view .LVU686
 1953 0000 C06B     		ldr	r0, [r0, #60]
 1954              	.LVL112:
1048:Drivers/STM32G0xx_HAL_Driver/Src/stm32g0xx_hal_dma.c **** 
 1955              		.loc 1 1048 1 view .LVU687
 1956              		@ sp needed
 1957 0002 7047     		bx	lr
 1958              		.cfi_endproc
 1959              	.LFE431:
 1961              		.text
 1962              	.Letext0:
 1963              		.file 2 "/usr/arm-none-eabi/include/machine/_default_types.h"
 1964              		.file 3 "/usr/arm-none-eabi/include/sys/_stdint.h"
 1965              		.file 4 "Drivers/CMSIS/Device/ST/STM32G0xx/Include/stm32g030xx.h"
 1966              		.file 5 "Drivers/STM32G0xx_HAL_Driver/Inc/stm32g0xx_hal_def.h"
 1967              		.file 6 "Drivers/STM32G0xx_HAL_Driver/Inc/stm32g0xx_hal_dma.h"
 1968              		.file 7 "Drivers/STM32G0xx_HAL_Driver/Inc/stm32g0xx_ll_dma.h"
 1969              		.file 8 "Drivers/STM32G0xx_HAL_Driver/Inc/stm32g0xx_hal.h"
ARM GAS  /tmp/ccbqyIjO.s 			page 67


DEFINED SYMBOLS
                            *ABS*:00000000 stm32g0xx_hal_dma.c
     /tmp/ccbqyIjO.s:19     .text.DMA_SetConfig:00000000 $t
     /tmp/ccbqyIjO.s:24     .text.DMA_SetConfig:00000000 DMA_SetConfig
     /tmp/ccbqyIjO.s:107    .text.DMA_SetConfig:0000003c $d
     /tmp/ccbqyIjO.s:113    .text.DMA_CalcDMAMUXChannelBaseAndMask:00000000 $t
     /tmp/ccbqyIjO.s:118    .text.DMA_CalcDMAMUXChannelBaseAndMask:00000000 DMA_CalcDMAMUXChannelBaseAndMask
     /tmp/ccbqyIjO.s:181    .text.DMA_CalcDMAMUXChannelBaseAndMask:0000002c $d
     /tmp/ccbqyIjO.s:187    .text.HAL_DMA_Init:00000000 $t
     /tmp/ccbqyIjO.s:193    .text.HAL_DMA_Init:00000000 HAL_DMA_Init
     /tmp/ccbqyIjO.s:408    .text.HAL_DMA_Init:000000a4 $d
     /tmp/ccbqyIjO.s:416    .text.HAL_DMA_DeInit:00000000 $t
     /tmp/ccbqyIjO.s:422    .text.HAL_DMA_DeInit:00000000 HAL_DMA_DeInit
     /tmp/ccbqyIjO.s:589    .text.HAL_DMA_DeInit:00000078 $d
     /tmp/ccbqyIjO.s:597    .text.HAL_DMA_Start:00000000 $t
     /tmp/ccbqyIjO.s:603    .text.HAL_DMA_Start:00000000 HAL_DMA_Start
     /tmp/ccbqyIjO.s:715    .text.HAL_DMA_Start_IT:00000000 $t
     /tmp/ccbqyIjO.s:721    .text.HAL_DMA_Start_IT:00000000 HAL_DMA_Start_IT
     /tmp/ccbqyIjO.s:886    .text.HAL_DMA_Abort:00000000 $t
     /tmp/ccbqyIjO.s:892    .text.HAL_DMA_Abort:00000000 HAL_DMA_Abort
     /tmp/ccbqyIjO.s:1016   .text.HAL_DMA_Abort:0000006c $d
     /tmp/ccbqyIjO.s:1022   .text.HAL_DMA_Abort_IT:00000000 $t
     /tmp/ccbqyIjO.s:1028   .text.HAL_DMA_Abort_IT:00000000 HAL_DMA_Abort_IT
     /tmp/ccbqyIjO.s:1156   .text.HAL_DMA_Abort_IT:0000006c $d
     /tmp/ccbqyIjO.s:1162   .text.HAL_DMA_PollForTransfer:00000000 $t
     /tmp/ccbqyIjO.s:1168   .text.HAL_DMA_PollForTransfer:00000000 HAL_DMA_PollForTransfer
     /tmp/ccbqyIjO.s:1472   .text.HAL_DMA_PollForTransfer:00000110 $d
     /tmp/ccbqyIjO.s:1477   .text.HAL_DMA_IRQHandler:00000000 $t
     /tmp/ccbqyIjO.s:1483   .text.HAL_DMA_IRQHandler:00000000 HAL_DMA_IRQHandler
     /tmp/ccbqyIjO.s:1665   .text.HAL_DMA_IRQHandler:000000a4 $d
     /tmp/ccbqyIjO.s:1670   .text.HAL_DMA_RegisterCallback:00000000 $t
     /tmp/ccbqyIjO.s:1676   .text.HAL_DMA_RegisterCallback:00000000 HAL_DMA_RegisterCallback
     /tmp/ccbqyIjO.s:1722   .text.HAL_DMA_RegisterCallback:00000022 $d
     /tmp/ccbqyIjO.s:1726   .text.HAL_DMA_RegisterCallback:00000026 $t
     /tmp/ccbqyIjO.s:1780   .text.HAL_DMA_UnRegisterCallback:00000000 $t
     /tmp/ccbqyIjO.s:1786   .text.HAL_DMA_UnRegisterCallback:00000000 HAL_DMA_UnRegisterCallback
     /tmp/ccbqyIjO.s:1837   .text.HAL_DMA_UnRegisterCallback:00000028 $d
     /tmp/ccbqyIjO.s:1906   .text.HAL_DMA_GetState:00000000 $t
     /tmp/ccbqyIjO.s:1912   .text.HAL_DMA_GetState:00000000 HAL_DMA_GetState
     /tmp/ccbqyIjO.s:1937   .text.HAL_DMA_GetError:00000000 $t
     /tmp/ccbqyIjO.s:1943   .text.HAL_DMA_GetError:00000000 HAL_DMA_GetError
     /tmp/ccbqyIjO.s:1842   .text.HAL_DMA_UnRegisterCallback:0000002d $d
     /tmp/ccbqyIjO.s:1842   .text.HAL_DMA_UnRegisterCallback:0000002e $t

UNDEFINED SYMBOLS
__aeabi_uidiv
HAL_GetTick
__gnu_thumb1_case_uqi
