ARM GAS  /tmp/ccOFsfjC.s 			page 1


   1              		.cpu cortex-m0plus
   2              		.arch armv6s-m
   3              		.fpu softvfp
   4              		.eabi_attribute 20, 1
   5              		.eabi_attribute 21, 1
   6              		.eabi_attribute 23, 3
   7              		.eabi_attribute 24, 1
   8              		.eabi_attribute 25, 1
   9              		.eabi_attribute 26, 1
  10              		.eabi_attribute 30, 4
  11              		.eabi_attribute 34, 0
  12              		.eabi_attribute 18, 4
  13              		.file	"stm32g0xx_hal_spi_ex.c"
  14              		.text
  15              	.Ltext0:
  16              		.cfi_sections	.debug_frame
  17              		.file 1 "Drivers/STM32G0xx_HAL_Driver/Src/stm32g0xx_hal_spi_ex.c"
  18              		.section	.text.HAL_SPIEx_FlushRxFifo,"ax",%progbits
  19              		.align	1
  20              		.global	HAL_SPIEx_FlushRxFifo
  21              		.syntax unified
  22              		.code	16
  23              		.thumb_func
  25              	HAL_SPIEx_FlushRxFifo:
  26              	.LVL0:
  27              	.LFB420:
   1:Drivers/STM32G0xx_HAL_Driver/Src/stm32g0xx_hal_spi_ex.c **** /**
   2:Drivers/STM32G0xx_HAL_Driver/Src/stm32g0xx_hal_spi_ex.c ****   ******************************************************************************
   3:Drivers/STM32G0xx_HAL_Driver/Src/stm32g0xx_hal_spi_ex.c ****   * @file    stm32g0xx_hal_spi_ex.c
   4:Drivers/STM32G0xx_HAL_Driver/Src/stm32g0xx_hal_spi_ex.c ****   * @author  MCD Application Team
   5:Drivers/STM32G0xx_HAL_Driver/Src/stm32g0xx_hal_spi_ex.c ****   * @brief   Extended SPI HAL module driver.
   6:Drivers/STM32G0xx_HAL_Driver/Src/stm32g0xx_hal_spi_ex.c ****   *          This file provides firmware functions to manage the following
   7:Drivers/STM32G0xx_HAL_Driver/Src/stm32g0xx_hal_spi_ex.c ****   *          SPI peripheral extended functionalities :
   8:Drivers/STM32G0xx_HAL_Driver/Src/stm32g0xx_hal_spi_ex.c ****   *           + IO operation functions
   9:Drivers/STM32G0xx_HAL_Driver/Src/stm32g0xx_hal_spi_ex.c ****   *
  10:Drivers/STM32G0xx_HAL_Driver/Src/stm32g0xx_hal_spi_ex.c ****   ******************************************************************************
  11:Drivers/STM32G0xx_HAL_Driver/Src/stm32g0xx_hal_spi_ex.c ****   * @attention
  12:Drivers/STM32G0xx_HAL_Driver/Src/stm32g0xx_hal_spi_ex.c ****   *
  13:Drivers/STM32G0xx_HAL_Driver/Src/stm32g0xx_hal_spi_ex.c ****   * Copyright (c) 2018 STMicroelectronics.
  14:Drivers/STM32G0xx_HAL_Driver/Src/stm32g0xx_hal_spi_ex.c ****   * All rights reserved.
  15:Drivers/STM32G0xx_HAL_Driver/Src/stm32g0xx_hal_spi_ex.c ****   *
  16:Drivers/STM32G0xx_HAL_Driver/Src/stm32g0xx_hal_spi_ex.c ****   * This software is licensed under terms that can be found in the LICENSE file
  17:Drivers/STM32G0xx_HAL_Driver/Src/stm32g0xx_hal_spi_ex.c ****   * in the root directory of this software component.
  18:Drivers/STM32G0xx_HAL_Driver/Src/stm32g0xx_hal_spi_ex.c ****   * If no LICENSE file comes with this software, it is provided AS-IS.
  19:Drivers/STM32G0xx_HAL_Driver/Src/stm32g0xx_hal_spi_ex.c ****   *
  20:Drivers/STM32G0xx_HAL_Driver/Src/stm32g0xx_hal_spi_ex.c ****   ******************************************************************************
  21:Drivers/STM32G0xx_HAL_Driver/Src/stm32g0xx_hal_spi_ex.c ****   */
  22:Drivers/STM32G0xx_HAL_Driver/Src/stm32g0xx_hal_spi_ex.c **** 
  23:Drivers/STM32G0xx_HAL_Driver/Src/stm32g0xx_hal_spi_ex.c **** /* Includes ------------------------------------------------------------------*/
  24:Drivers/STM32G0xx_HAL_Driver/Src/stm32g0xx_hal_spi_ex.c **** #include "stm32g0xx_hal.h"
  25:Drivers/STM32G0xx_HAL_Driver/Src/stm32g0xx_hal_spi_ex.c **** 
  26:Drivers/STM32G0xx_HAL_Driver/Src/stm32g0xx_hal_spi_ex.c **** /** @addtogroup STM32G0xx_HAL_Driver
  27:Drivers/STM32G0xx_HAL_Driver/Src/stm32g0xx_hal_spi_ex.c ****   * @{
  28:Drivers/STM32G0xx_HAL_Driver/Src/stm32g0xx_hal_spi_ex.c ****   */
  29:Drivers/STM32G0xx_HAL_Driver/Src/stm32g0xx_hal_spi_ex.c **** 
  30:Drivers/STM32G0xx_HAL_Driver/Src/stm32g0xx_hal_spi_ex.c **** /** @defgroup SPIEx SPIEx
  31:Drivers/STM32G0xx_HAL_Driver/Src/stm32g0xx_hal_spi_ex.c ****   * @brief SPI Extended HAL module driver
ARM GAS  /tmp/ccOFsfjC.s 			page 2


  32:Drivers/STM32G0xx_HAL_Driver/Src/stm32g0xx_hal_spi_ex.c ****   * @{
  33:Drivers/STM32G0xx_HAL_Driver/Src/stm32g0xx_hal_spi_ex.c ****   */
  34:Drivers/STM32G0xx_HAL_Driver/Src/stm32g0xx_hal_spi_ex.c **** #ifdef HAL_SPI_MODULE_ENABLED
  35:Drivers/STM32G0xx_HAL_Driver/Src/stm32g0xx_hal_spi_ex.c **** 
  36:Drivers/STM32G0xx_HAL_Driver/Src/stm32g0xx_hal_spi_ex.c **** /* Private typedef -----------------------------------------------------------*/
  37:Drivers/STM32G0xx_HAL_Driver/Src/stm32g0xx_hal_spi_ex.c **** /* Private defines -----------------------------------------------------------*/
  38:Drivers/STM32G0xx_HAL_Driver/Src/stm32g0xx_hal_spi_ex.c **** /** @defgroup SPIEx_Private_Constants SPIEx Private Constants
  39:Drivers/STM32G0xx_HAL_Driver/Src/stm32g0xx_hal_spi_ex.c ****   * @{
  40:Drivers/STM32G0xx_HAL_Driver/Src/stm32g0xx_hal_spi_ex.c ****   */
  41:Drivers/STM32G0xx_HAL_Driver/Src/stm32g0xx_hal_spi_ex.c **** #define SPI_FIFO_SIZE       4UL
  42:Drivers/STM32G0xx_HAL_Driver/Src/stm32g0xx_hal_spi_ex.c **** /**
  43:Drivers/STM32G0xx_HAL_Driver/Src/stm32g0xx_hal_spi_ex.c ****   * @}
  44:Drivers/STM32G0xx_HAL_Driver/Src/stm32g0xx_hal_spi_ex.c ****   */
  45:Drivers/STM32G0xx_HAL_Driver/Src/stm32g0xx_hal_spi_ex.c **** 
  46:Drivers/STM32G0xx_HAL_Driver/Src/stm32g0xx_hal_spi_ex.c **** /* Private macros ------------------------------------------------------------*/
  47:Drivers/STM32G0xx_HAL_Driver/Src/stm32g0xx_hal_spi_ex.c **** /* Private variables ---------------------------------------------------------*/
  48:Drivers/STM32G0xx_HAL_Driver/Src/stm32g0xx_hal_spi_ex.c **** /* Private function prototypes -----------------------------------------------*/
  49:Drivers/STM32G0xx_HAL_Driver/Src/stm32g0xx_hal_spi_ex.c **** /* Exported functions --------------------------------------------------------*/
  50:Drivers/STM32G0xx_HAL_Driver/Src/stm32g0xx_hal_spi_ex.c **** 
  51:Drivers/STM32G0xx_HAL_Driver/Src/stm32g0xx_hal_spi_ex.c **** /** @defgroup SPIEx_Exported_Functions SPIEx Exported Functions
  52:Drivers/STM32G0xx_HAL_Driver/Src/stm32g0xx_hal_spi_ex.c ****   * @{
  53:Drivers/STM32G0xx_HAL_Driver/Src/stm32g0xx_hal_spi_ex.c ****   */
  54:Drivers/STM32G0xx_HAL_Driver/Src/stm32g0xx_hal_spi_ex.c **** 
  55:Drivers/STM32G0xx_HAL_Driver/Src/stm32g0xx_hal_spi_ex.c **** /** @defgroup SPIEx_Exported_Functions_Group1 IO operation functions
  56:Drivers/STM32G0xx_HAL_Driver/Src/stm32g0xx_hal_spi_ex.c ****   *  @brief   Data transfers functions
  57:Drivers/STM32G0xx_HAL_Driver/Src/stm32g0xx_hal_spi_ex.c ****   *
  58:Drivers/STM32G0xx_HAL_Driver/Src/stm32g0xx_hal_spi_ex.c **** @verbatim
  59:Drivers/STM32G0xx_HAL_Driver/Src/stm32g0xx_hal_spi_ex.c ****   ==============================================================================
  60:Drivers/STM32G0xx_HAL_Driver/Src/stm32g0xx_hal_spi_ex.c ****                       ##### IO operation functions #####
  61:Drivers/STM32G0xx_HAL_Driver/Src/stm32g0xx_hal_spi_ex.c ****  ===============================================================================
  62:Drivers/STM32G0xx_HAL_Driver/Src/stm32g0xx_hal_spi_ex.c ****  [..]
  63:Drivers/STM32G0xx_HAL_Driver/Src/stm32g0xx_hal_spi_ex.c ****     This subsection provides a set of extended functions to manage the SPI
  64:Drivers/STM32G0xx_HAL_Driver/Src/stm32g0xx_hal_spi_ex.c ****     data transfers.
  65:Drivers/STM32G0xx_HAL_Driver/Src/stm32g0xx_hal_spi_ex.c **** 
  66:Drivers/STM32G0xx_HAL_Driver/Src/stm32g0xx_hal_spi_ex.c ****     (#) Rx data flush function:
  67:Drivers/STM32G0xx_HAL_Driver/Src/stm32g0xx_hal_spi_ex.c ****         (++) HAL_SPIEx_FlushRxFifo()
  68:Drivers/STM32G0xx_HAL_Driver/Src/stm32g0xx_hal_spi_ex.c **** 
  69:Drivers/STM32G0xx_HAL_Driver/Src/stm32g0xx_hal_spi_ex.c **** @endverbatim
  70:Drivers/STM32G0xx_HAL_Driver/Src/stm32g0xx_hal_spi_ex.c ****   * @{
  71:Drivers/STM32G0xx_HAL_Driver/Src/stm32g0xx_hal_spi_ex.c ****   */
  72:Drivers/STM32G0xx_HAL_Driver/Src/stm32g0xx_hal_spi_ex.c **** 
  73:Drivers/STM32G0xx_HAL_Driver/Src/stm32g0xx_hal_spi_ex.c **** /**
  74:Drivers/STM32G0xx_HAL_Driver/Src/stm32g0xx_hal_spi_ex.c ****   * @brief  Flush the RX fifo.
  75:Drivers/STM32G0xx_HAL_Driver/Src/stm32g0xx_hal_spi_ex.c ****   * @param  hspi pointer to a SPI_HandleTypeDef structure that contains
  76:Drivers/STM32G0xx_HAL_Driver/Src/stm32g0xx_hal_spi_ex.c ****   *               the configuration information for the specified SPI module.
  77:Drivers/STM32G0xx_HAL_Driver/Src/stm32g0xx_hal_spi_ex.c ****   * @retval HAL status
  78:Drivers/STM32G0xx_HAL_Driver/Src/stm32g0xx_hal_spi_ex.c ****   */
  79:Drivers/STM32G0xx_HAL_Driver/Src/stm32g0xx_hal_spi_ex.c **** HAL_StatusTypeDef HAL_SPIEx_FlushRxFifo(SPI_HandleTypeDef *hspi)
  80:Drivers/STM32G0xx_HAL_Driver/Src/stm32g0xx_hal_spi_ex.c **** {
  28              		.loc 1 80 1 view -0
  29              		.cfi_startproc
  30              		@ args = 0, pretend = 0, frame = 8
  31              		@ frame_needed = 0, uses_anonymous_args = 0
  81:Drivers/STM32G0xx_HAL_Driver/Src/stm32g0xx_hal_spi_ex.c ****   __IO uint32_t tmpreg;
  32              		.loc 1 81 3 view .LVU1
  82:Drivers/STM32G0xx_HAL_Driver/Src/stm32g0xx_hal_spi_ex.c ****   uint8_t  count = 0U;
  33              		.loc 1 82 3 view .LVU2
ARM GAS  /tmp/ccOFsfjC.s 			page 3


  83:Drivers/STM32G0xx_HAL_Driver/Src/stm32g0xx_hal_spi_ex.c ****   while ((hspi->Instance->SR & SPI_FLAG_FRLVL) !=  SPI_FRLVL_EMPTY)
  34              		.loc 1 83 3 view .LVU3
  35              		.loc 1 83 30 is_stmt 0 view .LVU4
  36 0000 C022     		movs	r2, #192
  37              		.loc 1 83 9 view .LVU5
  38 0002 0423     		movs	r3, #4
  80:Drivers/STM32G0xx_HAL_Driver/Src/stm32g0xx_hal_spi_ex.c ****   __IO uint32_t tmpreg;
  39              		.loc 1 80 1 view .LVU6
  40 0004 13B5     		push	{r0, r1, r4, lr}
  41              	.LCFI0:
  42              		.cfi_def_cfa_offset 16
  43              		.cfi_offset 0, -16
  44              		.cfi_offset 1, -12
  45              		.cfi_offset 4, -8
  46              		.cfi_offset 14, -4
  47              		.loc 1 83 15 view .LVU7
  48 0006 0468     		ldr	r4, [r0]
  49              		.loc 1 83 30 view .LVU8
  50 0008 D200     		lsls	r2, r2, #3
  51              	.LVL1:
  52              	.L2:
  53              		.loc 1 83 48 is_stmt 1 view .LVU9
  54              		.loc 1 83 25 is_stmt 0 view .LVU10
  55 000a A168     		ldr	r1, [r4, #8]
  56              		.loc 1 83 30 view .LVU11
  57 000c 0800     		movs	r0, r1
  58 000e 1040     		ands	r0, r2
  59              		.loc 1 83 48 view .LVU12
  60 0010 1142     		tst	r1, r2
  61 0012 00D1     		bne	.L4
  62              	.LVL2:
  63              	.L3:
  84:Drivers/STM32G0xx_HAL_Driver/Src/stm32g0xx_hal_spi_ex.c ****   {
  85:Drivers/STM32G0xx_HAL_Driver/Src/stm32g0xx_hal_spi_ex.c ****     count++;
  86:Drivers/STM32G0xx_HAL_Driver/Src/stm32g0xx_hal_spi_ex.c ****     tmpreg = hspi->Instance->DR;
  87:Drivers/STM32G0xx_HAL_Driver/Src/stm32g0xx_hal_spi_ex.c ****     UNUSED(tmpreg); /* To avoid GCC warning */
  88:Drivers/STM32G0xx_HAL_Driver/Src/stm32g0xx_hal_spi_ex.c ****     if (count == SPI_FIFO_SIZE)
  89:Drivers/STM32G0xx_HAL_Driver/Src/stm32g0xx_hal_spi_ex.c ****     {
  90:Drivers/STM32G0xx_HAL_Driver/Src/stm32g0xx_hal_spi_ex.c ****       return HAL_TIMEOUT;
  91:Drivers/STM32G0xx_HAL_Driver/Src/stm32g0xx_hal_spi_ex.c ****     }
  92:Drivers/STM32G0xx_HAL_Driver/Src/stm32g0xx_hal_spi_ex.c ****   }
  93:Drivers/STM32G0xx_HAL_Driver/Src/stm32g0xx_hal_spi_ex.c ****   return HAL_OK;
  94:Drivers/STM32G0xx_HAL_Driver/Src/stm32g0xx_hal_spi_ex.c **** }
  64              		.loc 1 94 1 view .LVU13
  65              		@ sp needed
  66 0014 16BD     		pop	{r1, r2, r4, pc}
  67              	.LVL3:
  68              	.L4:
  85:Drivers/STM32G0xx_HAL_Driver/Src/stm32g0xx_hal_spi_ex.c ****     tmpreg = hspi->Instance->DR;
  69              		.loc 1 85 5 is_stmt 1 view .LVU14
  86:Drivers/STM32G0xx_HAL_Driver/Src/stm32g0xx_hal_spi_ex.c ****     UNUSED(tmpreg); /* To avoid GCC warning */
  70              		.loc 1 86 5 view .LVU15
  86:Drivers/STM32G0xx_HAL_Driver/Src/stm32g0xx_hal_spi_ex.c ****     UNUSED(tmpreg); /* To avoid GCC warning */
  71              		.loc 1 86 28 is_stmt 0 view .LVU16
  72 0016 E168     		ldr	r1, [r4, #12]
  88:Drivers/STM32G0xx_HAL_Driver/Src/stm32g0xx_hal_spi_ex.c ****     {
  73              		.loc 1 88 8 view .LVU17
ARM GAS  /tmp/ccOFsfjC.s 			page 4


  74 0018 013B     		subs	r3, r3, #1
  75              	.LVL4:
  86:Drivers/STM32G0xx_HAL_Driver/Src/stm32g0xx_hal_spi_ex.c ****     UNUSED(tmpreg); /* To avoid GCC warning */
  76              		.loc 1 86 12 view .LVU18
  77 001a 0191     		str	r1, [sp, #4]
  87:Drivers/STM32G0xx_HAL_Driver/Src/stm32g0xx_hal_spi_ex.c ****     if (count == SPI_FIFO_SIZE)
  78              		.loc 1 87 5 is_stmt 1 view .LVU19
  88:Drivers/STM32G0xx_HAL_Driver/Src/stm32g0xx_hal_spi_ex.c ****     {
  79              		.loc 1 88 8 is_stmt 0 view .LVU20
  80 001c DBB2     		uxtb	r3, r3
  81              	.LVL5:
  87:Drivers/STM32G0xx_HAL_Driver/Src/stm32g0xx_hal_spi_ex.c ****     if (count == SPI_FIFO_SIZE)
  82              		.loc 1 87 5 view .LVU21
  83 001e 0199     		ldr	r1, [sp, #4]
  88:Drivers/STM32G0xx_HAL_Driver/Src/stm32g0xx_hal_spi_ex.c ****     {
  84              		.loc 1 88 5 is_stmt 1 view .LVU22
  88:Drivers/STM32G0xx_HAL_Driver/Src/stm32g0xx_hal_spi_ex.c ****     {
  85              		.loc 1 88 8 is_stmt 0 view .LVU23
  86 0020 002B     		cmp	r3, #0
  87 0022 F2D1     		bne	.L2
  90:Drivers/STM32G0xx_HAL_Driver/Src/stm32g0xx_hal_spi_ex.c ****     }
  88              		.loc 1 90 14 view .LVU24
  89 0024 0320     		movs	r0, #3
  90 0026 F5E7     		b	.L3
  91              		.cfi_endproc
  92              	.LFE420:
  94              		.text
  95              	.Letext0:
  96              		.file 2 "/usr/arm-none-eabi/include/machine/_default_types.h"
  97              		.file 3 "/usr/arm-none-eabi/include/sys/_stdint.h"
  98              		.file 4 "Drivers/CMSIS/Device/ST/STM32G0xx/Include/stm32g030xx.h"
  99              		.file 5 "Drivers/STM32G0xx_HAL_Driver/Inc/stm32g0xx_hal_def.h"
 100              		.file 6 "Drivers/STM32G0xx_HAL_Driver/Inc/stm32g0xx_hal_dma.h"
 101              		.file 7 "Drivers/STM32G0xx_HAL_Driver/Inc/stm32g0xx_hal_spi.h"
 102              		.file 8 "Drivers/STM32G0xx_HAL_Driver/Inc/stm32g0xx_ll_dma.h"
ARM GAS  /tmp/ccOFsfjC.s 			page 5

