ARM GAS  /tmp/cclXc8d7.s 			page 1


   1              		.cpu cortex-m0plus
   2              		.arch armv6s-m
   3              		.fpu softvfp
   4              		.eabi_attribute 20, 1
   5              		.eabi_attribute 21, 1
   6              		.eabi_attribute 23, 3
   7              		.eabi_attribute 24, 1
   8              		.eabi_attribute 25, 1
   9              		.eabi_attribute 26, 1
  10              		.eabi_attribute 30, 4
  11              		.eabi_attribute 34, 0
  12              		.eabi_attribute 18, 4
  13              		.file	"stm32g0xx_hal_pwr.c"
  14              		.text
  15              	.Ltext0:
  16              		.cfi_sections	.debug_frame
  17              		.file 1 "Drivers/STM32G0xx_HAL_Driver/Src/stm32g0xx_hal_pwr.c"
  18              		.section	.text.HAL_PWR_DeInit,"ax",%progbits
  19              		.align	1
  20              		.global	HAL_PWR_DeInit
  21              		.syntax unified
  22              		.code	16
  23              		.thumb_func
  25              	HAL_PWR_DeInit:
  26              	.LFB420:
   1:Drivers/STM32G0xx_HAL_Driver/Src/stm32g0xx_hal_pwr.c **** /**
   2:Drivers/STM32G0xx_HAL_Driver/Src/stm32g0xx_hal_pwr.c ****   ******************************************************************************
   3:Drivers/STM32G0xx_HAL_Driver/Src/stm32g0xx_hal_pwr.c ****   * @file    stm32g0xx_hal_pwr.c
   4:Drivers/STM32G0xx_HAL_Driver/Src/stm32g0xx_hal_pwr.c ****   * @author  MCD Application Team
   5:Drivers/STM32G0xx_HAL_Driver/Src/stm32g0xx_hal_pwr.c ****   * @brief   PWR HAL module driver.
   6:Drivers/STM32G0xx_HAL_Driver/Src/stm32g0xx_hal_pwr.c ****   *          This file provides firmware functions to manage the following
   7:Drivers/STM32G0xx_HAL_Driver/Src/stm32g0xx_hal_pwr.c ****   *          functionalities of the Power Controller (PWR) peripheral:
   8:Drivers/STM32G0xx_HAL_Driver/Src/stm32g0xx_hal_pwr.c ****   *           + Initialization/de-initialization functions
   9:Drivers/STM32G0xx_HAL_Driver/Src/stm32g0xx_hal_pwr.c ****   *           + Peripheral Control functions
  10:Drivers/STM32G0xx_HAL_Driver/Src/stm32g0xx_hal_pwr.c ****   *
  11:Drivers/STM32G0xx_HAL_Driver/Src/stm32g0xx_hal_pwr.c ****   ******************************************************************************
  12:Drivers/STM32G0xx_HAL_Driver/Src/stm32g0xx_hal_pwr.c ****   * @attention
  13:Drivers/STM32G0xx_HAL_Driver/Src/stm32g0xx_hal_pwr.c ****   *
  14:Drivers/STM32G0xx_HAL_Driver/Src/stm32g0xx_hal_pwr.c ****   * Copyright (c) 2018 STMicroelectronics.
  15:Drivers/STM32G0xx_HAL_Driver/Src/stm32g0xx_hal_pwr.c ****   * All rights reserved.
  16:Drivers/STM32G0xx_HAL_Driver/Src/stm32g0xx_hal_pwr.c ****   *
  17:Drivers/STM32G0xx_HAL_Driver/Src/stm32g0xx_hal_pwr.c ****   * This software is licensed under terms that can be found in the LICENSE file
  18:Drivers/STM32G0xx_HAL_Driver/Src/stm32g0xx_hal_pwr.c ****   * in the root directory of this software component.
  19:Drivers/STM32G0xx_HAL_Driver/Src/stm32g0xx_hal_pwr.c ****   * If no LICENSE file comes with this software, it is provided AS-IS.
  20:Drivers/STM32G0xx_HAL_Driver/Src/stm32g0xx_hal_pwr.c ****   *
  21:Drivers/STM32G0xx_HAL_Driver/Src/stm32g0xx_hal_pwr.c ****   ******************************************************************************
  22:Drivers/STM32G0xx_HAL_Driver/Src/stm32g0xx_hal_pwr.c ****   */
  23:Drivers/STM32G0xx_HAL_Driver/Src/stm32g0xx_hal_pwr.c **** 
  24:Drivers/STM32G0xx_HAL_Driver/Src/stm32g0xx_hal_pwr.c **** /* Includes ------------------------------------------------------------------*/
  25:Drivers/STM32G0xx_HAL_Driver/Src/stm32g0xx_hal_pwr.c **** #include "stm32g0xx_hal.h"
  26:Drivers/STM32G0xx_HAL_Driver/Src/stm32g0xx_hal_pwr.c **** 
  27:Drivers/STM32G0xx_HAL_Driver/Src/stm32g0xx_hal_pwr.c **** /** @addtogroup STM32G0xx_HAL_Driver
  28:Drivers/STM32G0xx_HAL_Driver/Src/stm32g0xx_hal_pwr.c ****   * @{
  29:Drivers/STM32G0xx_HAL_Driver/Src/stm32g0xx_hal_pwr.c ****   */
  30:Drivers/STM32G0xx_HAL_Driver/Src/stm32g0xx_hal_pwr.c **** 
  31:Drivers/STM32G0xx_HAL_Driver/Src/stm32g0xx_hal_pwr.c **** /** @addtogroup PWR
  32:Drivers/STM32G0xx_HAL_Driver/Src/stm32g0xx_hal_pwr.c ****   * @{
ARM GAS  /tmp/cclXc8d7.s 			page 2


  33:Drivers/STM32G0xx_HAL_Driver/Src/stm32g0xx_hal_pwr.c ****   */
  34:Drivers/STM32G0xx_HAL_Driver/Src/stm32g0xx_hal_pwr.c **** 
  35:Drivers/STM32G0xx_HAL_Driver/Src/stm32g0xx_hal_pwr.c **** #ifdef HAL_PWR_MODULE_ENABLED
  36:Drivers/STM32G0xx_HAL_Driver/Src/stm32g0xx_hal_pwr.c **** 
  37:Drivers/STM32G0xx_HAL_Driver/Src/stm32g0xx_hal_pwr.c **** /* Private typedef -----------------------------------------------------------*/
  38:Drivers/STM32G0xx_HAL_Driver/Src/stm32g0xx_hal_pwr.c **** /* Private define ------------------------------------------------------------*/
  39:Drivers/STM32G0xx_HAL_Driver/Src/stm32g0xx_hal_pwr.c **** /** @defgroup PWR_Private_Defines PWR Private Defines
  40:Drivers/STM32G0xx_HAL_Driver/Src/stm32g0xx_hal_pwr.c ****   * @{
  41:Drivers/STM32G0xx_HAL_Driver/Src/stm32g0xx_hal_pwr.c ****   */
  42:Drivers/STM32G0xx_HAL_Driver/Src/stm32g0xx_hal_pwr.c **** 
  43:Drivers/STM32G0xx_HAL_Driver/Src/stm32g0xx_hal_pwr.c **** /**
  44:Drivers/STM32G0xx_HAL_Driver/Src/stm32g0xx_hal_pwr.c ****   * @}
  45:Drivers/STM32G0xx_HAL_Driver/Src/stm32g0xx_hal_pwr.c ****   */
  46:Drivers/STM32G0xx_HAL_Driver/Src/stm32g0xx_hal_pwr.c **** 
  47:Drivers/STM32G0xx_HAL_Driver/Src/stm32g0xx_hal_pwr.c **** /* Private macro -------------------------------------------------------------*/
  48:Drivers/STM32G0xx_HAL_Driver/Src/stm32g0xx_hal_pwr.c **** /* Private variables ---------------------------------------------------------*/
  49:Drivers/STM32G0xx_HAL_Driver/Src/stm32g0xx_hal_pwr.c **** /* Private function prototypes -----------------------------------------------*/
  50:Drivers/STM32G0xx_HAL_Driver/Src/stm32g0xx_hal_pwr.c **** /* Exported functions --------------------------------------------------------*/
  51:Drivers/STM32G0xx_HAL_Driver/Src/stm32g0xx_hal_pwr.c **** /** @addtogroup PWR_Exported_Functions  PWR Exported Functions
  52:Drivers/STM32G0xx_HAL_Driver/Src/stm32g0xx_hal_pwr.c ****   * @{
  53:Drivers/STM32G0xx_HAL_Driver/Src/stm32g0xx_hal_pwr.c ****   */
  54:Drivers/STM32G0xx_HAL_Driver/Src/stm32g0xx_hal_pwr.c **** 
  55:Drivers/STM32G0xx_HAL_Driver/Src/stm32g0xx_hal_pwr.c **** /** @addtogroup PWR_Exported_Functions_Group1  Initialization and de-initialization functions
  56:Drivers/STM32G0xx_HAL_Driver/Src/stm32g0xx_hal_pwr.c ****   * @brief  Initialization and de-initialization functions
  57:Drivers/STM32G0xx_HAL_Driver/Src/stm32g0xx_hal_pwr.c ****   *
  58:Drivers/STM32G0xx_HAL_Driver/Src/stm32g0xx_hal_pwr.c **** @verbatim
  59:Drivers/STM32G0xx_HAL_Driver/Src/stm32g0xx_hal_pwr.c ****  ===============================================================================
  60:Drivers/STM32G0xx_HAL_Driver/Src/stm32g0xx_hal_pwr.c ****               ##### Initialization and de-initialization functions #####
  61:Drivers/STM32G0xx_HAL_Driver/Src/stm32g0xx_hal_pwr.c ****  ===============================================================================
  62:Drivers/STM32G0xx_HAL_Driver/Src/stm32g0xx_hal_pwr.c ****     [..]
  63:Drivers/STM32G0xx_HAL_Driver/Src/stm32g0xx_hal_pwr.c **** 
  64:Drivers/STM32G0xx_HAL_Driver/Src/stm32g0xx_hal_pwr.c **** @endverbatim
  65:Drivers/STM32G0xx_HAL_Driver/Src/stm32g0xx_hal_pwr.c ****   * @{
  66:Drivers/STM32G0xx_HAL_Driver/Src/stm32g0xx_hal_pwr.c ****   */
  67:Drivers/STM32G0xx_HAL_Driver/Src/stm32g0xx_hal_pwr.c **** 
  68:Drivers/STM32G0xx_HAL_Driver/Src/stm32g0xx_hal_pwr.c **** /**
  69:Drivers/STM32G0xx_HAL_Driver/Src/stm32g0xx_hal_pwr.c ****   * @brief  Deinitialize the HAL PWR peripheral registers to their default reset
  70:Drivers/STM32G0xx_HAL_Driver/Src/stm32g0xx_hal_pwr.c ****             values.
  71:Drivers/STM32G0xx_HAL_Driver/Src/stm32g0xx_hal_pwr.c ****   * @retval None
  72:Drivers/STM32G0xx_HAL_Driver/Src/stm32g0xx_hal_pwr.c ****   */
  73:Drivers/STM32G0xx_HAL_Driver/Src/stm32g0xx_hal_pwr.c **** void HAL_PWR_DeInit(void)
  74:Drivers/STM32G0xx_HAL_Driver/Src/stm32g0xx_hal_pwr.c **** {
  27              		.loc 1 74 1 view -0
  28              		.cfi_startproc
  29              		@ args = 0, pretend = 0, frame = 0
  30              		@ frame_needed = 0, uses_anonymous_args = 0
  31              		@ link register save eliminated.
  75:Drivers/STM32G0xx_HAL_Driver/Src/stm32g0xx_hal_pwr.c ****   __HAL_RCC_PWR_FORCE_RESET();
  32              		.loc 1 75 3 view .LVU1
  33 0000 8022     		movs	r2, #128
  76:Drivers/STM32G0xx_HAL_Driver/Src/stm32g0xx_hal_pwr.c ****   __HAL_RCC_PWR_RELEASE_RESET();
  77:Drivers/STM32G0xx_HAL_Driver/Src/stm32g0xx_hal_pwr.c **** }
  34              		.loc 1 77 1 is_stmt 0 view .LVU2
  35              		@ sp needed
  75:Drivers/STM32G0xx_HAL_Driver/Src/stm32g0xx_hal_pwr.c ****   __HAL_RCC_PWR_FORCE_RESET();
  36              		.loc 1 75 3 view .LVU3
  37 0002 054B     		ldr	r3, .L2
ARM GAS  /tmp/cclXc8d7.s 			page 3


  38 0004 5205     		lsls	r2, r2, #21
  39 0006 D96A     		ldr	r1, [r3, #44]
  40 0008 0A43     		orrs	r2, r1
  41 000a DA62     		str	r2, [r3, #44]
  76:Drivers/STM32G0xx_HAL_Driver/Src/stm32g0xx_hal_pwr.c ****   __HAL_RCC_PWR_RELEASE_RESET();
  42              		.loc 1 76 3 is_stmt 1 view .LVU4
  43 000c DA6A     		ldr	r2, [r3, #44]
  44 000e 0349     		ldr	r1, .L2+4
  45 0010 0A40     		ands	r2, r1
  46 0012 DA62     		str	r2, [r3, #44]
  47              		.loc 1 77 1 is_stmt 0 view .LVU5
  48 0014 7047     		bx	lr
  49              	.L3:
  50 0016 C046     		.align	2
  51              	.L2:
  52 0018 00100240 		.word	1073876992
  53 001c FFFFFFEF 		.word	-268435457
  54              		.cfi_endproc
  55              	.LFE420:
  57              		.section	.text.HAL_PWR_EnableBkUpAccess,"ax",%progbits
  58              		.align	1
  59              		.global	HAL_PWR_EnableBkUpAccess
  60              		.syntax unified
  61              		.code	16
  62              		.thumb_func
  64              	HAL_PWR_EnableBkUpAccess:
  65              	.LFB421:
  78:Drivers/STM32G0xx_HAL_Driver/Src/stm32g0xx_hal_pwr.c **** 
  79:Drivers/STM32G0xx_HAL_Driver/Src/stm32g0xx_hal_pwr.c **** /**
  80:Drivers/STM32G0xx_HAL_Driver/Src/stm32g0xx_hal_pwr.c ****   * @}
  81:Drivers/STM32G0xx_HAL_Driver/Src/stm32g0xx_hal_pwr.c ****   */
  82:Drivers/STM32G0xx_HAL_Driver/Src/stm32g0xx_hal_pwr.c **** 
  83:Drivers/STM32G0xx_HAL_Driver/Src/stm32g0xx_hal_pwr.c **** /** @addtogroup PWR_Exported_Functions_Group2  Peripheral Control functions
  84:Drivers/STM32G0xx_HAL_Driver/Src/stm32g0xx_hal_pwr.c ****   *  @brief Low Power modes configuration functions
  85:Drivers/STM32G0xx_HAL_Driver/Src/stm32g0xx_hal_pwr.c ****   *
  86:Drivers/STM32G0xx_HAL_Driver/Src/stm32g0xx_hal_pwr.c **** @verbatim
  87:Drivers/STM32G0xx_HAL_Driver/Src/stm32g0xx_hal_pwr.c **** 
  88:Drivers/STM32G0xx_HAL_Driver/Src/stm32g0xx_hal_pwr.c ****  ===============================================================================
  89:Drivers/STM32G0xx_HAL_Driver/Src/stm32g0xx_hal_pwr.c ****                  ##### Peripheral Control functions #####
  90:Drivers/STM32G0xx_HAL_Driver/Src/stm32g0xx_hal_pwr.c ****  ===============================================================================
  91:Drivers/STM32G0xx_HAL_Driver/Src/stm32g0xx_hal_pwr.c **** 
  92:Drivers/STM32G0xx_HAL_Driver/Src/stm32g0xx_hal_pwr.c ****     [..]
  93:Drivers/STM32G0xx_HAL_Driver/Src/stm32g0xx_hal_pwr.c ****     *** WakeUp pin configuration ***
  94:Drivers/STM32G0xx_HAL_Driver/Src/stm32g0xx_hal_pwr.c ****     ================================
  95:Drivers/STM32G0xx_HAL_Driver/Src/stm32g0xx_hal_pwr.c ****     [..]
  96:Drivers/STM32G0xx_HAL_Driver/Src/stm32g0xx_hal_pwr.c ****       (+) WakeUp pins are used to wakeup the system from Standby mode or
  97:Drivers/STM32G0xx_HAL_Driver/Src/stm32g0xx_hal_pwr.c ****           Shutdown mode. WakeUp pins polarity can be set to configure event
  98:Drivers/STM32G0xx_HAL_Driver/Src/stm32g0xx_hal_pwr.c ****           detection on high level (rising edge) or low level (falling edge).
  99:Drivers/STM32G0xx_HAL_Driver/Src/stm32g0xx_hal_pwr.c **** 
 100:Drivers/STM32G0xx_HAL_Driver/Src/stm32g0xx_hal_pwr.c ****     *** Low Power mode configuration ***
 101:Drivers/STM32G0xx_HAL_Driver/Src/stm32g0xx_hal_pwr.c ****     =====================================
 102:Drivers/STM32G0xx_HAL_Driver/Src/stm32g0xx_hal_pwr.c ****     [..]
 103:Drivers/STM32G0xx_HAL_Driver/Src/stm32g0xx_hal_pwr.c ****       The devices feature 7 low-power modes:
 104:Drivers/STM32G0xx_HAL_Driver/Src/stm32g0xx_hal_pwr.c ****       (+) Low-power run mode: core and peripherals are running at low frequency.
 105:Drivers/STM32G0xx_HAL_Driver/Src/stm32g0xx_hal_pwr.c ****           Regulator is in low power mode.
 106:Drivers/STM32G0xx_HAL_Driver/Src/stm32g0xx_hal_pwr.c ****       (+) Sleep mode: Cortex-M0+ core stopped, peripherals kept running,
 107:Drivers/STM32G0xx_HAL_Driver/Src/stm32g0xx_hal_pwr.c ****           regulator is main mode.
ARM GAS  /tmp/cclXc8d7.s 			page 4


 108:Drivers/STM32G0xx_HAL_Driver/Src/stm32g0xx_hal_pwr.c ****       (+) Low-power Sleep mode: Cortex-M0+ core stopped, peripherals kept running
 109:Drivers/STM32G0xx_HAL_Driver/Src/stm32g0xx_hal_pwr.c ****           and regulator in low power mode.
 110:Drivers/STM32G0xx_HAL_Driver/Src/stm32g0xx_hal_pwr.c ****       (+) Stop 0 mode: all clocks are stopped except LSI and LSE, regulator is
 111:Drivers/STM32G0xx_HAL_Driver/Src/stm32g0xx_hal_pwr.c ****            main mode.
 112:Drivers/STM32G0xx_HAL_Driver/Src/stm32g0xx_hal_pwr.c ****       (+) Stop 1 mode: all clocks are stopped except LSI and LSE, main regulator
 113:Drivers/STM32G0xx_HAL_Driver/Src/stm32g0xx_hal_pwr.c ****           off, low power regulator on.
 114:Drivers/STM32G0xx_HAL_Driver/Src/stm32g0xx_hal_pwr.c ****       (+) Standby mode: all clocks are stopped except LSI and LSE, regulator is
 115:Drivers/STM32G0xx_HAL_Driver/Src/stm32g0xx_hal_pwr.c ****           disable.
 116:Drivers/STM32G0xx_HAL_Driver/Src/stm32g0xx_hal_pwr.c ****       (+) Shutdown mode: all clocks are stopped except LSE, regulator is
 117:Drivers/STM32G0xx_HAL_Driver/Src/stm32g0xx_hal_pwr.c ****           disable.
 118:Drivers/STM32G0xx_HAL_Driver/Src/stm32g0xx_hal_pwr.c **** 
 119:Drivers/STM32G0xx_HAL_Driver/Src/stm32g0xx_hal_pwr.c ****    *** Low-power run mode ***
 120:Drivers/STM32G0xx_HAL_Driver/Src/stm32g0xx_hal_pwr.c ****    ==========================
 121:Drivers/STM32G0xx_HAL_Driver/Src/stm32g0xx_hal_pwr.c ****     [..]
 122:Drivers/STM32G0xx_HAL_Driver/Src/stm32g0xx_hal_pwr.c ****       (+) Entry: (from main run mode)
 123:Drivers/STM32G0xx_HAL_Driver/Src/stm32g0xx_hal_pwr.c ****           (++) set LPR bit with HAL_PWREx_EnableLowPowerRunMode() API after
 124:Drivers/STM32G0xx_HAL_Driver/Src/stm32g0xx_hal_pwr.c ****                having decreased the system clock below 2 MHz.
 125:Drivers/STM32G0xx_HAL_Driver/Src/stm32g0xx_hal_pwr.c ****       (+) Exit:
 126:Drivers/STM32G0xx_HAL_Driver/Src/stm32g0xx_hal_pwr.c ****           (++) clear LPR bit then wait for REGLPF bit to be reset with
 127:Drivers/STM32G0xx_HAL_Driver/Src/stm32g0xx_hal_pwr.c ****                HAL_PWREx_DisableLowPowerRunMode() API. Only then can the
 128:Drivers/STM32G0xx_HAL_Driver/Src/stm32g0xx_hal_pwr.c ****                system clock frequency be increased above 2 MHz.
 129:Drivers/STM32G0xx_HAL_Driver/Src/stm32g0xx_hal_pwr.c **** 
 130:Drivers/STM32G0xx_HAL_Driver/Src/stm32g0xx_hal_pwr.c ****    *** Sleep mode / Low-power sleep mode ***
 131:Drivers/STM32G0xx_HAL_Driver/Src/stm32g0xx_hal_pwr.c ****    =========================================
 132:Drivers/STM32G0xx_HAL_Driver/Src/stm32g0xx_hal_pwr.c ****     [..]
 133:Drivers/STM32G0xx_HAL_Driver/Src/stm32g0xx_hal_pwr.c ****       (+) Entry:
 134:Drivers/STM32G0xx_HAL_Driver/Src/stm32g0xx_hal_pwr.c ****           The Sleep & Low-power Sleep modes are entered through
 135:Drivers/STM32G0xx_HAL_Driver/Src/stm32g0xx_hal_pwr.c ****           HAL_PWR_EnterSLEEPMode() API specifying whether or not the regulator
 136:Drivers/STM32G0xx_HAL_Driver/Src/stm32g0xx_hal_pwr.c ****           is forced to low-power mode and if exit is interrupt or event
 137:Drivers/STM32G0xx_HAL_Driver/Src/stm32g0xx_hal_pwr.c ****           triggered.
 138:Drivers/STM32G0xx_HAL_Driver/Src/stm32g0xx_hal_pwr.c ****           (++) PWR_MAINREGULATOR_ON: Sleep mode (regulator in main mode).
 139:Drivers/STM32G0xx_HAL_Driver/Src/stm32g0xx_hal_pwr.c ****           (++) PWR_LOWPOWERREGULATOR_ON: Low-power Sleep mode (regulator in low
 140:Drivers/STM32G0xx_HAL_Driver/Src/stm32g0xx_hal_pwr.c ****                power mode). In this case, the system clock frequency must have
 141:Drivers/STM32G0xx_HAL_Driver/Src/stm32g0xx_hal_pwr.c ****                been decreased below 2 MHz beforehand.
 142:Drivers/STM32G0xx_HAL_Driver/Src/stm32g0xx_hal_pwr.c ****           (++) PWR_SLEEPENTRY_WFI: Core enters sleep mode with WFI instruction
 143:Drivers/STM32G0xx_HAL_Driver/Src/stm32g0xx_hal_pwr.c ****           (++) PWR_SLEEPENTRY_WFE: Core enters sleep mode with WFE instruction
 144:Drivers/STM32G0xx_HAL_Driver/Src/stm32g0xx_hal_pwr.c ****       (+) WFI Exit:
 145:Drivers/STM32G0xx_HAL_Driver/Src/stm32g0xx_hal_pwr.c ****         (++) Any interrupt enabled in nested vectored interrupt controller (NVIC)
 146:Drivers/STM32G0xx_HAL_Driver/Src/stm32g0xx_hal_pwr.c ****       (+) WFE Exit:
 147:Drivers/STM32G0xx_HAL_Driver/Src/stm32g0xx_hal_pwr.c ****         (++) Any wakeup event if cortex is configured with SEVONPEND = 0
 148:Drivers/STM32G0xx_HAL_Driver/Src/stm32g0xx_hal_pwr.c ****         (++) Interrupt even when disabled in NVIC if cortex is configured with
 149:Drivers/STM32G0xx_HAL_Driver/Src/stm32g0xx_hal_pwr.c ****              SEVONPEND = 1
 150:Drivers/STM32G0xx_HAL_Driver/Src/stm32g0xx_hal_pwr.c ****     [..]  When exiting the Low-power Sleep mode by issuing an interrupt or a wakeup event,
 151:Drivers/STM32G0xx_HAL_Driver/Src/stm32g0xx_hal_pwr.c ****           the MCU is in Low-power Run mode.
 152:Drivers/STM32G0xx_HAL_Driver/Src/stm32g0xx_hal_pwr.c **** 
 153:Drivers/STM32G0xx_HAL_Driver/Src/stm32g0xx_hal_pwr.c ****    *** Stop 0 & Stop 1 modes ***
 154:Drivers/STM32G0xx_HAL_Driver/Src/stm32g0xx_hal_pwr.c ****    =============================
 155:Drivers/STM32G0xx_HAL_Driver/Src/stm32g0xx_hal_pwr.c ****     [..]
 156:Drivers/STM32G0xx_HAL_Driver/Src/stm32g0xx_hal_pwr.c ****       (+) Entry:
 157:Drivers/STM32G0xx_HAL_Driver/Src/stm32g0xx_hal_pwr.c ****           The Stop modes are entered through the following APIs:
 158:Drivers/STM32G0xx_HAL_Driver/Src/stm32g0xx_hal_pwr.c ****           (++) HAL_PWR_EnterSTOPMode() with following settings:
 159:Drivers/STM32G0xx_HAL_Driver/Src/stm32g0xx_hal_pwr.c ****               (+++) PWR_MAINREGULATOR_ON to enter STOP0 mode.
 160:Drivers/STM32G0xx_HAL_Driver/Src/stm32g0xx_hal_pwr.c ****               (+++) PWR_LOWPOWERREGULATOR_ON to enter STOP1 mode.
 161:Drivers/STM32G0xx_HAL_Driver/Src/stm32g0xx_hal_pwr.c ****       (+) Exit (interrupt or event-triggered, specified when entering STOP mode):
 162:Drivers/STM32G0xx_HAL_Driver/Src/stm32g0xx_hal_pwr.c ****           (++) PWR_STOPENTRY_WFI: enter Stop mode with WFI instruction
 163:Drivers/STM32G0xx_HAL_Driver/Src/stm32g0xx_hal_pwr.c ****           (++) PWR_STOPENTRY_WFE: enter Stop mode with WFE instruction
 164:Drivers/STM32G0xx_HAL_Driver/Src/stm32g0xx_hal_pwr.c ****       (+) WFI Exit:
ARM GAS  /tmp/cclXc8d7.s 			page 5


 165:Drivers/STM32G0xx_HAL_Driver/Src/stm32g0xx_hal_pwr.c ****           (++) Any EXTI line (internal or external) configured in interrupt mode
 166:Drivers/STM32G0xx_HAL_Driver/Src/stm32g0xx_hal_pwr.c ****                with corresponding interrupt enable in NVIC
 167:Drivers/STM32G0xx_HAL_Driver/Src/stm32g0xx_hal_pwr.c ****       (+) WFE Exit:
 168:Drivers/STM32G0xx_HAL_Driver/Src/stm32g0xx_hal_pwr.c ****           (++) Any EXTI line (internal or external) configured in event mode if
 169:Drivers/STM32G0xx_HAL_Driver/Src/stm32g0xx_hal_pwr.c ****                cortex is configured with SEVONPEND = 0
 170:Drivers/STM32G0xx_HAL_Driver/Src/stm32g0xx_hal_pwr.c ****           (++) Any EXTI line configured in interrupt mode (even if the
 171:Drivers/STM32G0xx_HAL_Driver/Src/stm32g0xx_hal_pwr.c ****                corresponding EXTI Interrupt vector is disabled in the NVIC) if
 172:Drivers/STM32G0xx_HAL_Driver/Src/stm32g0xx_hal_pwr.c ****                cortex is configured with SEVONPEND = 0. The interrupt source can
 173:Drivers/STM32G0xx_HAL_Driver/Src/stm32g0xx_hal_pwr.c ****                be external interrupts or peripherals with wakeup capability.
 174:Drivers/STM32G0xx_HAL_Driver/Src/stm32g0xx_hal_pwr.c ****     [..]  When exiting Stop, the MCU is either in Run mode or in Low-power Run mode
 175:Drivers/STM32G0xx_HAL_Driver/Src/stm32g0xx_hal_pwr.c ****           depending on the LPR bit setting.
 176:Drivers/STM32G0xx_HAL_Driver/Src/stm32g0xx_hal_pwr.c **** 
 177:Drivers/STM32G0xx_HAL_Driver/Src/stm32g0xx_hal_pwr.c ****    *** Standby mode ***
 178:Drivers/STM32G0xx_HAL_Driver/Src/stm32g0xx_hal_pwr.c ****    ====================
 179:Drivers/STM32G0xx_HAL_Driver/Src/stm32g0xx_hal_pwr.c ****     [..] In Standby mode, it is possible to keep backup SRAM content (defined as
 180:Drivers/STM32G0xx_HAL_Driver/Src/stm32g0xx_hal_pwr.c ****          full SRAM) keeping low power regulator on. This is achievable by setting
 181:Drivers/STM32G0xx_HAL_Driver/Src/stm32g0xx_hal_pwr.c ****          Ram retention bit calling HAL_PWREx_EnableSRAMRetention API. This increases
 182:Drivers/STM32G0xx_HAL_Driver/Src/stm32g0xx_hal_pwr.c ****          power consumption.
 183:Drivers/STM32G0xx_HAL_Driver/Src/stm32g0xx_hal_pwr.c ****          Its also possible to define I/O states using APIs:
 184:Drivers/STM32G0xx_HAL_Driver/Src/stm32g0xx_hal_pwr.c ****          HAL_PWREx_EnableGPIOPullUp, HAL_PWREx_EnableGPIOPullDown &
 185:Drivers/STM32G0xx_HAL_Driver/Src/stm32g0xx_hal_pwr.c ****          HAL_PWREx_EnablePullUpPullDownConfig
 186:Drivers/STM32G0xx_HAL_Driver/Src/stm32g0xx_hal_pwr.c ****       (+) Entry:
 187:Drivers/STM32G0xx_HAL_Driver/Src/stm32g0xx_hal_pwr.c ****           (++) The Standby mode is entered through HAL_PWR_EnterSTANDBYMode() API, by
 188:Drivers/STM32G0xx_HAL_Driver/Src/stm32g0xx_hal_pwr.c ****                setting SLEEPDEEP in Cortex control register.
 189:Drivers/STM32G0xx_HAL_Driver/Src/stm32g0xx_hal_pwr.c ****       (+) Exit:
 190:Drivers/STM32G0xx_HAL_Driver/Src/stm32g0xx_hal_pwr.c ****           (++) WKUP pin edge detection, RTC event (wakeup, alarm, timestamp),
 191:Drivers/STM32G0xx_HAL_Driver/Src/stm32g0xx_hal_pwr.c ****                tamper event (internal & external), LSE CSS detection, reset on
 192:Drivers/STM32G0xx_HAL_Driver/Src/stm32g0xx_hal_pwr.c ****                NRST pin, IWDG reset & BOR reset.
 193:Drivers/STM32G0xx_HAL_Driver/Src/stm32g0xx_hal_pwr.c ****     [..] Exiting Standby generates a power reset: Cortex is reset and execute
 194:Drivers/STM32G0xx_HAL_Driver/Src/stm32g0xx_hal_pwr.c ****          Reset handler vector, all registers in the Vcore domain are set to
 195:Drivers/STM32G0xx_HAL_Driver/Src/stm32g0xx_hal_pwr.c ****          their reset value. Registers outside the VCORE domain (RTC, WKUP, IWDG,
 196:Drivers/STM32G0xx_HAL_Driver/Src/stm32g0xx_hal_pwr.c ****          and Standby/Shutdown modes control) are not impacted.
 197:Drivers/STM32G0xx_HAL_Driver/Src/stm32g0xx_hal_pwr.c **** 
 198:Drivers/STM32G0xx_HAL_Driver/Src/stm32g0xx_hal_pwr.c ****     *** Shutdown mode ***
 199:Drivers/STM32G0xx_HAL_Driver/Src/stm32g0xx_hal_pwr.c ****    ======================
 200:Drivers/STM32G0xx_HAL_Driver/Src/stm32g0xx_hal_pwr.c ****     [..]
 201:Drivers/STM32G0xx_HAL_Driver/Src/stm32g0xx_hal_pwr.c ****       In Shutdown mode,
 202:Drivers/STM32G0xx_HAL_Driver/Src/stm32g0xx_hal_pwr.c ****         voltage regulator is disabled, all clocks are off except LSE, RRS bit is
 203:Drivers/STM32G0xx_HAL_Driver/Src/stm32g0xx_hal_pwr.c ****         cleared. SRAM and registers contents are lost except for backup domain
 204:Drivers/STM32G0xx_HAL_Driver/Src/stm32g0xx_hal_pwr.c ****         registers.
 205:Drivers/STM32G0xx_HAL_Driver/Src/stm32g0xx_hal_pwr.c ****       (+) Entry:
 206:Drivers/STM32G0xx_HAL_Driver/Src/stm32g0xx_hal_pwr.c ****           (++) The Shutdown mode is entered through HAL_PWREx_EnterSHUTDOWNMode() API,
 207:Drivers/STM32G0xx_HAL_Driver/Src/stm32g0xx_hal_pwr.c ****                by setting SLEEPDEEP in Cortex control register.
 208:Drivers/STM32G0xx_HAL_Driver/Src/stm32g0xx_hal_pwr.c ****       (+) Exit:
 209:Drivers/STM32G0xx_HAL_Driver/Src/stm32g0xx_hal_pwr.c ****           (++) WKUP pin edge detection, RTC event (wakeup, alarm, timestamp),
 210:Drivers/STM32G0xx_HAL_Driver/Src/stm32g0xx_hal_pwr.c ****                tamper event (internal & external), LSE CSS detection, reset on
 211:Drivers/STM32G0xx_HAL_Driver/Src/stm32g0xx_hal_pwr.c ****                NRST pin.
 212:Drivers/STM32G0xx_HAL_Driver/Src/stm32g0xx_hal_pwr.c ****     [..] Exiting Shutdown generates a brown out reset: Cortex is reset and execute
 213:Drivers/STM32G0xx_HAL_Driver/Src/stm32g0xx_hal_pwr.c ****          Reset handler vector, all registers are set to their reset value but ones
 214:Drivers/STM32G0xx_HAL_Driver/Src/stm32g0xx_hal_pwr.c ****          in backup domain.
 215:Drivers/STM32G0xx_HAL_Driver/Src/stm32g0xx_hal_pwr.c **** 
 216:Drivers/STM32G0xx_HAL_Driver/Src/stm32g0xx_hal_pwr.c **** @endverbatim
 217:Drivers/STM32G0xx_HAL_Driver/Src/stm32g0xx_hal_pwr.c ****   * @{
 218:Drivers/STM32G0xx_HAL_Driver/Src/stm32g0xx_hal_pwr.c ****   */
 219:Drivers/STM32G0xx_HAL_Driver/Src/stm32g0xx_hal_pwr.c **** 
 220:Drivers/STM32G0xx_HAL_Driver/Src/stm32g0xx_hal_pwr.c **** /**
 221:Drivers/STM32G0xx_HAL_Driver/Src/stm32g0xx_hal_pwr.c ****   * @brief  Enable access to the backup domain
ARM GAS  /tmp/cclXc8d7.s 			page 6


 222:Drivers/STM32G0xx_HAL_Driver/Src/stm32g0xx_hal_pwr.c ****   *         (RTC & TAMP registers, backup registers, RCC BDCR register).
 223:Drivers/STM32G0xx_HAL_Driver/Src/stm32g0xx_hal_pwr.c ****   * @note   After reset, the backup domain is protected against
 224:Drivers/STM32G0xx_HAL_Driver/Src/stm32g0xx_hal_pwr.c ****   *         possible unwanted write accesses. All RTC & TAMP registers (backup
 225:Drivers/STM32G0xx_HAL_Driver/Src/stm32g0xx_hal_pwr.c ****   *         registers included) and RCC BDCR register are concerned.
 226:Drivers/STM32G0xx_HAL_Driver/Src/stm32g0xx_hal_pwr.c ****   * @retval None
 227:Drivers/STM32G0xx_HAL_Driver/Src/stm32g0xx_hal_pwr.c ****   */
 228:Drivers/STM32G0xx_HAL_Driver/Src/stm32g0xx_hal_pwr.c **** void HAL_PWR_EnableBkUpAccess(void)
 229:Drivers/STM32G0xx_HAL_Driver/Src/stm32g0xx_hal_pwr.c **** {
  66              		.loc 1 229 1 is_stmt 1 view -0
  67              		.cfi_startproc
  68              		@ args = 0, pretend = 0, frame = 0
  69              		@ frame_needed = 0, uses_anonymous_args = 0
  70              		@ link register save eliminated.
 230:Drivers/STM32G0xx_HAL_Driver/Src/stm32g0xx_hal_pwr.c ****   SET_BIT(PWR->CR1, PWR_CR1_DBP);
  71              		.loc 1 230 3 view .LVU7
  72 0000 8023     		movs	r3, #128
 231:Drivers/STM32G0xx_HAL_Driver/Src/stm32g0xx_hal_pwr.c **** }
  73              		.loc 1 231 1 is_stmt 0 view .LVU8
  74              		@ sp needed
 230:Drivers/STM32G0xx_HAL_Driver/Src/stm32g0xx_hal_pwr.c ****   SET_BIT(PWR->CR1, PWR_CR1_DBP);
  75              		.loc 1 230 3 view .LVU9
  76 0002 034A     		ldr	r2, .L5
  77 0004 5B00     		lsls	r3, r3, #1
  78 0006 1168     		ldr	r1, [r2]
  79 0008 0B43     		orrs	r3, r1
  80 000a 1360     		str	r3, [r2]
  81              		.loc 1 231 1 view .LVU10
  82 000c 7047     		bx	lr
  83              	.L6:
  84 000e C046     		.align	2
  85              	.L5:
  86 0010 00700040 		.word	1073770496
  87              		.cfi_endproc
  88              	.LFE421:
  90              		.section	.text.HAL_PWR_DisableBkUpAccess,"ax",%progbits
  91              		.align	1
  92              		.global	HAL_PWR_DisableBkUpAccess
  93              		.syntax unified
  94              		.code	16
  95              		.thumb_func
  97              	HAL_PWR_DisableBkUpAccess:
  98              	.LFB422:
 232:Drivers/STM32G0xx_HAL_Driver/Src/stm32g0xx_hal_pwr.c **** 
 233:Drivers/STM32G0xx_HAL_Driver/Src/stm32g0xx_hal_pwr.c **** 
 234:Drivers/STM32G0xx_HAL_Driver/Src/stm32g0xx_hal_pwr.c **** /**
 235:Drivers/STM32G0xx_HAL_Driver/Src/stm32g0xx_hal_pwr.c ****   * @brief  Disable access to the backup domain
 236:Drivers/STM32G0xx_HAL_Driver/Src/stm32g0xx_hal_pwr.c ****   * @retval None
 237:Drivers/STM32G0xx_HAL_Driver/Src/stm32g0xx_hal_pwr.c ****   */
 238:Drivers/STM32G0xx_HAL_Driver/Src/stm32g0xx_hal_pwr.c **** void HAL_PWR_DisableBkUpAccess(void)
 239:Drivers/STM32G0xx_HAL_Driver/Src/stm32g0xx_hal_pwr.c **** {
  99              		.loc 1 239 1 is_stmt 1 view -0
 100              		.cfi_startproc
 101              		@ args = 0, pretend = 0, frame = 0
 102              		@ frame_needed = 0, uses_anonymous_args = 0
 103              		@ link register save eliminated.
 240:Drivers/STM32G0xx_HAL_Driver/Src/stm32g0xx_hal_pwr.c ****   CLEAR_BIT(PWR->CR1, PWR_CR1_DBP);
 104              		.loc 1 240 3 view .LVU12
ARM GAS  /tmp/cclXc8d7.s 			page 7


 105 0000 024A     		ldr	r2, .L8
 106 0002 0349     		ldr	r1, .L8+4
 107 0004 1368     		ldr	r3, [r2]
 241:Drivers/STM32G0xx_HAL_Driver/Src/stm32g0xx_hal_pwr.c **** }
 108              		.loc 1 241 1 is_stmt 0 view .LVU13
 109              		@ sp needed
 240:Drivers/STM32G0xx_HAL_Driver/Src/stm32g0xx_hal_pwr.c ****   CLEAR_BIT(PWR->CR1, PWR_CR1_DBP);
 110              		.loc 1 240 3 view .LVU14
 111 0006 0B40     		ands	r3, r1
 112 0008 1360     		str	r3, [r2]
 113              		.loc 1 241 1 view .LVU15
 114 000a 7047     		bx	lr
 115              	.L9:
 116              		.align	2
 117              	.L8:
 118 000c 00700040 		.word	1073770496
 119 0010 FFFEFFFF 		.word	-257
 120              		.cfi_endproc
 121              	.LFE422:
 123              		.section	.text.HAL_PWR_EnableWakeUpPin,"ax",%progbits
 124              		.align	1
 125              		.global	HAL_PWR_EnableWakeUpPin
 126              		.syntax unified
 127              		.code	16
 128              		.thumb_func
 130              	HAL_PWR_EnableWakeUpPin:
 131              	.LVL0:
 132              	.LFB423:
 242:Drivers/STM32G0xx_HAL_Driver/Src/stm32g0xx_hal_pwr.c **** 
 243:Drivers/STM32G0xx_HAL_Driver/Src/stm32g0xx_hal_pwr.c **** /**
 244:Drivers/STM32G0xx_HAL_Driver/Src/stm32g0xx_hal_pwr.c ****   * @brief  Enable the WakeUp PINx functionality.
 245:Drivers/STM32G0xx_HAL_Driver/Src/stm32g0xx_hal_pwr.c ****   * @param  WakeUpPinPolarity Specifies which Wake-Up pin to enable.
 246:Drivers/STM32G0xx_HAL_Driver/Src/stm32g0xx_hal_pwr.c ****   *         This parameter can be one of the following legacy values which set
 247:Drivers/STM32G0xx_HAL_Driver/Src/stm32g0xx_hal_pwr.c ****   *         the default polarity i.e. detection on high level (rising edge):
 248:Drivers/STM32G0xx_HAL_Driver/Src/stm32g0xx_hal_pwr.c ****   *           @arg @ref PWR_WAKEUP_PIN1, PWR_WAKEUP_PIN2, PWR_WAKEUP_PIN3(*),
 249:Drivers/STM32G0xx_HAL_Driver/Src/stm32g0xx_hal_pwr.c ****   *                     PWR_WAKEUP_PIN4, PWR_WAKEUP_PIN5(*),PWR_WAKEUP_PIN6
 250:Drivers/STM32G0xx_HAL_Driver/Src/stm32g0xx_hal_pwr.c ****   *         or one of the following value where the user can explicitly specify
 251:Drivers/STM32G0xx_HAL_Driver/Src/stm32g0xx_hal_pwr.c ****   *         the enabled pin and the chosen polarity:
 252:Drivers/STM32G0xx_HAL_Driver/Src/stm32g0xx_hal_pwr.c ****   *           @arg @ref PWR_WAKEUP_PIN1_HIGH or PWR_WAKEUP_PIN1_LOW
 253:Drivers/STM32G0xx_HAL_Driver/Src/stm32g0xx_hal_pwr.c ****   *           @arg @ref PWR_WAKEUP_PIN2_HIGH or PWR_WAKEUP_PIN2_LOW
 254:Drivers/STM32G0xx_HAL_Driver/Src/stm32g0xx_hal_pwr.c ****   *           @arg @ref PWR_WAKEUP_PIN3_HIGH or PWR_WAKEUP_PIN3_LOW (*)
 255:Drivers/STM32G0xx_HAL_Driver/Src/stm32g0xx_hal_pwr.c ****   *           @arg @ref PWR_WAKEUP_PIN4_HIGH or PWR_WAKEUP_PIN4_LOW
 256:Drivers/STM32G0xx_HAL_Driver/Src/stm32g0xx_hal_pwr.c ****   *           @arg @ref PWR_WAKEUP_PIN5_HIGH or PWR_WAKEUP_PIN5_LOW (*)
 257:Drivers/STM32G0xx_HAL_Driver/Src/stm32g0xx_hal_pwr.c ****   *           @arg @ref PWR_WAKEUP_PIN6_HIGH or PWR_WAKEUP_PIN6_LOW
 258:Drivers/STM32G0xx_HAL_Driver/Src/stm32g0xx_hal_pwr.c ****   * @note  PWR_WAKEUP_PINx and PWR_WAKEUP_PINx_HIGH are equivalent.
 259:Drivers/STM32G0xx_HAL_Driver/Src/stm32g0xx_hal_pwr.c ****   * @note (*) availability depends on devices
 260:Drivers/STM32G0xx_HAL_Driver/Src/stm32g0xx_hal_pwr.c ****   * @retval None
 261:Drivers/STM32G0xx_HAL_Driver/Src/stm32g0xx_hal_pwr.c ****   */
 262:Drivers/STM32G0xx_HAL_Driver/Src/stm32g0xx_hal_pwr.c **** void HAL_PWR_EnableWakeUpPin(uint32_t WakeUpPinPolarity)
 263:Drivers/STM32G0xx_HAL_Driver/Src/stm32g0xx_hal_pwr.c **** {
 133              		.loc 1 263 1 is_stmt 1 view -0
 134              		.cfi_startproc
 135              		@ args = 0, pretend = 0, frame = 0
 136              		@ frame_needed = 0, uses_anonymous_args = 0
 137              		@ link register save eliminated.
 264:Drivers/STM32G0xx_HAL_Driver/Src/stm32g0xx_hal_pwr.c ****   assert_param(IS_PWR_WAKEUP_PIN(WakeUpPinPolarity));
 138              		.loc 1 264 3 view .LVU17
ARM GAS  /tmp/cclXc8d7.s 			page 8


 265:Drivers/STM32G0xx_HAL_Driver/Src/stm32g0xx_hal_pwr.c **** 
 266:Drivers/STM32G0xx_HAL_Driver/Src/stm32g0xx_hal_pwr.c ****   /* Specifies the Wake-Up pin polarity for the event detection
 267:Drivers/STM32G0xx_HAL_Driver/Src/stm32g0xx_hal_pwr.c ****     (rising or falling edge) */
 268:Drivers/STM32G0xx_HAL_Driver/Src/stm32g0xx_hal_pwr.c ****   MODIFY_REG(PWR->CR4, (PWR_CR4_WP & WakeUpPinPolarity), (WakeUpPinPolarity >> PWR_WUP_POLARITY_SHI
 139              		.loc 1 268 3 view .LVU18
 140 0000 2B23     		movs	r3, #43
 269:Drivers/STM32G0xx_HAL_Driver/Src/stm32g0xx_hal_pwr.c **** 
 270:Drivers/STM32G0xx_HAL_Driver/Src/stm32g0xx_hal_pwr.c ****   /* Enable wake-up pin */
 271:Drivers/STM32G0xx_HAL_Driver/Src/stm32g0xx_hal_pwr.c ****   SET_BIT(PWR->CR3, (PWR_CR3_EWUP & WakeUpPinPolarity));
 272:Drivers/STM32G0xx_HAL_Driver/Src/stm32g0xx_hal_pwr.c **** }
 141              		.loc 1 272 1 is_stmt 0 view .LVU19
 142              		@ sp needed
 268:Drivers/STM32G0xx_HAL_Driver/Src/stm32g0xx_hal_pwr.c **** 
 143              		.loc 1 268 3 view .LVU20
 144 0002 0549     		ldr	r1, .L11
 145 0004 0340     		ands	r3, r0
 146 0006 CA68     		ldr	r2, [r1, #12]
 147 0008 000A     		lsrs	r0, r0, #8
 148              	.LVL1:
 268:Drivers/STM32G0xx_HAL_Driver/Src/stm32g0xx_hal_pwr.c **** 
 149              		.loc 1 268 3 view .LVU21
 150 000a 9A43     		bics	r2, r3
 151 000c 0243     		orrs	r2, r0
 152 000e CA60     		str	r2, [r1, #12]
 271:Drivers/STM32G0xx_HAL_Driver/Src/stm32g0xx_hal_pwr.c **** }
 153              		.loc 1 271 3 is_stmt 1 view .LVU22
 154 0010 8A68     		ldr	r2, [r1, #8]
 155 0012 1343     		orrs	r3, r2
 156 0014 8B60     		str	r3, [r1, #8]
 157              		.loc 1 272 1 is_stmt 0 view .LVU23
 158 0016 7047     		bx	lr
 159              	.L12:
 160              		.align	2
 161              	.L11:
 162 0018 00700040 		.word	1073770496
 163              		.cfi_endproc
 164              	.LFE423:
 166              		.section	.text.HAL_PWR_DisableWakeUpPin,"ax",%progbits
 167              		.align	1
 168              		.global	HAL_PWR_DisableWakeUpPin
 169              		.syntax unified
 170              		.code	16
 171              		.thumb_func
 173              	HAL_PWR_DisableWakeUpPin:
 174              	.LVL2:
 175              	.LFB424:
 273:Drivers/STM32G0xx_HAL_Driver/Src/stm32g0xx_hal_pwr.c **** 
 274:Drivers/STM32G0xx_HAL_Driver/Src/stm32g0xx_hal_pwr.c **** 
 275:Drivers/STM32G0xx_HAL_Driver/Src/stm32g0xx_hal_pwr.c **** /**
 276:Drivers/STM32G0xx_HAL_Driver/Src/stm32g0xx_hal_pwr.c ****   * @brief  Disable the WakeUp PINx functionality.
 277:Drivers/STM32G0xx_HAL_Driver/Src/stm32g0xx_hal_pwr.c ****   * @param  WakeUpPinx Specifies the Power Wake-Up pin to disable.
 278:Drivers/STM32G0xx_HAL_Driver/Src/stm32g0xx_hal_pwr.c ****   *         This parameter can be one of the following values:
 279:Drivers/STM32G0xx_HAL_Driver/Src/stm32g0xx_hal_pwr.c ****   *           @arg @ref PWR_WAKEUP_PIN1, PWR_WAKEUP_PIN2,PWR_WAKEUP_PIN3(*),
 280:Drivers/STM32G0xx_HAL_Driver/Src/stm32g0xx_hal_pwr.c ****   *                     PWR_WAKEUP_PIN4,PWR_WAKEUP_PIN5(*),PWR_WAKEUP_PIN6
 281:Drivers/STM32G0xx_HAL_Driver/Src/stm32g0xx_hal_pwr.c ****   * @note (*) availability depends on devices
 282:Drivers/STM32G0xx_HAL_Driver/Src/stm32g0xx_hal_pwr.c ****   * @retval None
 283:Drivers/STM32G0xx_HAL_Driver/Src/stm32g0xx_hal_pwr.c ****   */
ARM GAS  /tmp/cclXc8d7.s 			page 9


 284:Drivers/STM32G0xx_HAL_Driver/Src/stm32g0xx_hal_pwr.c **** void HAL_PWR_DisableWakeUpPin(uint32_t WakeUpPinx)
 285:Drivers/STM32G0xx_HAL_Driver/Src/stm32g0xx_hal_pwr.c **** {
 176              		.loc 1 285 1 is_stmt 1 view -0
 177              		.cfi_startproc
 178              		@ args = 0, pretend = 0, frame = 0
 179              		@ frame_needed = 0, uses_anonymous_args = 0
 180              		@ link register save eliminated.
 286:Drivers/STM32G0xx_HAL_Driver/Src/stm32g0xx_hal_pwr.c ****   assert_param(IS_PWR_WAKEUP_PIN(WakeUpPinx));
 181              		.loc 1 286 3 view .LVU25
 287:Drivers/STM32G0xx_HAL_Driver/Src/stm32g0xx_hal_pwr.c **** 
 288:Drivers/STM32G0xx_HAL_Driver/Src/stm32g0xx_hal_pwr.c ****   CLEAR_BIT(PWR->CR3, (PWR_CR3_EWUP & WakeUpPinx));
 182              		.loc 1 288 3 view .LVU26
 183 0000 2B21     		movs	r1, #43
 289:Drivers/STM32G0xx_HAL_Driver/Src/stm32g0xx_hal_pwr.c **** }
 184              		.loc 1 289 1 is_stmt 0 view .LVU27
 185              		@ sp needed
 288:Drivers/STM32G0xx_HAL_Driver/Src/stm32g0xx_hal_pwr.c **** }
 186              		.loc 1 288 3 view .LVU28
 187 0002 034A     		ldr	r2, .L14
 188 0004 0840     		ands	r0, r1
 189              	.LVL3:
 288:Drivers/STM32G0xx_HAL_Driver/Src/stm32g0xx_hal_pwr.c **** }
 190              		.loc 1 288 3 view .LVU29
 191 0006 9368     		ldr	r3, [r2, #8]
 192 0008 8343     		bics	r3, r0
 193 000a 9360     		str	r3, [r2, #8]
 194              		.loc 1 289 1 view .LVU30
 195 000c 7047     		bx	lr
 196              	.L15:
 197 000e C046     		.align	2
 198              	.L14:
 199 0010 00700040 		.word	1073770496
 200              		.cfi_endproc
 201              	.LFE424:
 203              		.section	.text.HAL_PWR_EnterSLEEPMode,"ax",%progbits
 204              		.align	1
 205              		.global	HAL_PWR_EnterSLEEPMode
 206              		.syntax unified
 207              		.code	16
 208              		.thumb_func
 210              	HAL_PWR_EnterSLEEPMode:
 211              	.LVL4:
 212              	.LFB425:
 290:Drivers/STM32G0xx_HAL_Driver/Src/stm32g0xx_hal_pwr.c **** 
 291:Drivers/STM32G0xx_HAL_Driver/Src/stm32g0xx_hal_pwr.c **** 
 292:Drivers/STM32G0xx_HAL_Driver/Src/stm32g0xx_hal_pwr.c **** /**
 293:Drivers/STM32G0xx_HAL_Driver/Src/stm32g0xx_hal_pwr.c ****   * @brief  Enter Sleep or Low-power Sleep mode.
 294:Drivers/STM32G0xx_HAL_Driver/Src/stm32g0xx_hal_pwr.c ****   * @note   In Sleep/Low-power Sleep mode, all I/O pins keep the same state as
 295:Drivers/STM32G0xx_HAL_Driver/Src/stm32g0xx_hal_pwr.c ****   *         in Run mode.
 296:Drivers/STM32G0xx_HAL_Driver/Src/stm32g0xx_hal_pwr.c ****   * @param  Regulator Specifies the regulator state in Sleep/Low-power Sleep
 297:Drivers/STM32G0xx_HAL_Driver/Src/stm32g0xx_hal_pwr.c ****   *         mode. This parameter can be one of the following values:
 298:Drivers/STM32G0xx_HAL_Driver/Src/stm32g0xx_hal_pwr.c ****   *           @arg @ref PWR_MAINREGULATOR_ON Sleep mode (regulator in main mode)
 299:Drivers/STM32G0xx_HAL_Driver/Src/stm32g0xx_hal_pwr.c ****   *           @arg @ref PWR_LOWPOWERREGULATOR_ON Low-power Sleep mode (regulator
 300:Drivers/STM32G0xx_HAL_Driver/Src/stm32g0xx_hal_pwr.c ****   *                     in low-power mode)
 301:Drivers/STM32G0xx_HAL_Driver/Src/stm32g0xx_hal_pwr.c ****   * @note   Low-power Sleep mode is entered from Low-power Run mode only. In
 302:Drivers/STM32G0xx_HAL_Driver/Src/stm32g0xx_hal_pwr.c ****   *         case Regulator parameter is set to Low Power but MCU is in Run mode,
 303:Drivers/STM32G0xx_HAL_Driver/Src/stm32g0xx_hal_pwr.c ****   *         we will first enter in Low-power Run mode. Therefore, user should
ARM GAS  /tmp/cclXc8d7.s 			page 10


 304:Drivers/STM32G0xx_HAL_Driver/Src/stm32g0xx_hal_pwr.c ****   *         take care that HCLK frequency is less than 2 MHz.
 305:Drivers/STM32G0xx_HAL_Driver/Src/stm32g0xx_hal_pwr.c ****   * @note   When exiting Low-power Sleep mode, the MCU is in Low-power Run mode.
 306:Drivers/STM32G0xx_HAL_Driver/Src/stm32g0xx_hal_pwr.c ****   *         To switch back to Run mode, user must call
 307:Drivers/STM32G0xx_HAL_Driver/Src/stm32g0xx_hal_pwr.c ****   *         HAL_PWREx_DisableLowPowerRunMode() API.
 308:Drivers/STM32G0xx_HAL_Driver/Src/stm32g0xx_hal_pwr.c ****   * @param  SLEEPEntry Specifies if Sleep mode is entered with WFI or WFE
 309:Drivers/STM32G0xx_HAL_Driver/Src/stm32g0xx_hal_pwr.c ****   *         instruction. This parameter can be one of the following values:
 310:Drivers/STM32G0xx_HAL_Driver/Src/stm32g0xx_hal_pwr.c ****   *           @arg @ref PWR_SLEEPENTRY_WFI enter Sleep or Low-power Sleep
 311:Drivers/STM32G0xx_HAL_Driver/Src/stm32g0xx_hal_pwr.c ****   *                     mode with WFI instruction
 312:Drivers/STM32G0xx_HAL_Driver/Src/stm32g0xx_hal_pwr.c ****   *           @arg @ref PWR_SLEEPENTRY_WFE enter Sleep or Low-power Sleep
 313:Drivers/STM32G0xx_HAL_Driver/Src/stm32g0xx_hal_pwr.c ****   *                     mode with WFE instruction
 314:Drivers/STM32G0xx_HAL_Driver/Src/stm32g0xx_hal_pwr.c ****   * @note   When WFI entry is used, tick interrupt have to be disabled if not
 315:Drivers/STM32G0xx_HAL_Driver/Src/stm32g0xx_hal_pwr.c ****   *         desired as the interrupt wake up source.
 316:Drivers/STM32G0xx_HAL_Driver/Src/stm32g0xx_hal_pwr.c ****   * @retval None
 317:Drivers/STM32G0xx_HAL_Driver/Src/stm32g0xx_hal_pwr.c ****   */
 318:Drivers/STM32G0xx_HAL_Driver/Src/stm32g0xx_hal_pwr.c **** void HAL_PWR_EnterSLEEPMode(uint32_t Regulator, uint8_t SLEEPEntry)
 319:Drivers/STM32G0xx_HAL_Driver/Src/stm32g0xx_hal_pwr.c **** {
 213              		.loc 1 319 1 is_stmt 1 view -0
 214              		.cfi_startproc
 215              		@ args = 0, pretend = 0, frame = 0
 216              		@ frame_needed = 0, uses_anonymous_args = 0
 320:Drivers/STM32G0xx_HAL_Driver/Src/stm32g0xx_hal_pwr.c ****   /* Check the parameters */
 321:Drivers/STM32G0xx_HAL_Driver/Src/stm32g0xx_hal_pwr.c ****   assert_param(IS_PWR_REGULATOR(Regulator));
 217              		.loc 1 321 3 view .LVU32
 322:Drivers/STM32G0xx_HAL_Driver/Src/stm32g0xx_hal_pwr.c ****   assert_param(IS_PWR_SLEEP_ENTRY(SLEEPEntry));
 218              		.loc 1 322 3 view .LVU33
 323:Drivers/STM32G0xx_HAL_Driver/Src/stm32g0xx_hal_pwr.c **** 
 324:Drivers/STM32G0xx_HAL_Driver/Src/stm32g0xx_hal_pwr.c ****   /* Set Regulator parameter */
 325:Drivers/STM32G0xx_HAL_Driver/Src/stm32g0xx_hal_pwr.c ****   if (Regulator != PWR_MAINREGULATOR_ON)
 219              		.loc 1 325 3 view .LVU34
 220 0000 8023     		movs	r3, #128
 221 0002 0F4A     		ldr	r2, .L26
 319:Drivers/STM32G0xx_HAL_Driver/Src/stm32g0xx_hal_pwr.c ****   /* Check the parameters */
 222              		.loc 1 319 1 is_stmt 0 view .LVU35
 223 0004 10B5     		push	{r4, lr}
 224              	.LCFI0:
 225              		.cfi_def_cfa_offset 8
 226              		.cfi_offset 4, -8
 227              		.cfi_offset 14, -4
 326:Drivers/STM32G0xx_HAL_Driver/Src/stm32g0xx_hal_pwr.c ****   {
 327:Drivers/STM32G0xx_HAL_Driver/Src/stm32g0xx_hal_pwr.c ****     /* If in run mode, first move to low-power run mode.
 328:Drivers/STM32G0xx_HAL_Driver/Src/stm32g0xx_hal_pwr.c ****        The system clock frequency must be below 2 MHz at this point. */
 329:Drivers/STM32G0xx_HAL_Driver/Src/stm32g0xx_hal_pwr.c ****     if ((PWR->SR2 & PWR_SR2_REGLPF) == 0x00u)
 228              		.loc 1 329 13 view .LVU36
 229 0006 5269     		ldr	r2, [r2, #20]
 319:Drivers/STM32G0xx_HAL_Driver/Src/stm32g0xx_hal_pwr.c ****   /* Check the parameters */
 230              		.loc 1 319 1 view .LVU37
 231 0008 0C00     		movs	r4, r1
 232 000a 9B00     		lsls	r3, r3, #2
 325:Drivers/STM32G0xx_HAL_Driver/Src/stm32g0xx_hal_pwr.c ****   {
 233              		.loc 1 325 6 view .LVU38
 234 000c 0028     		cmp	r0, #0
 235 000e 0CD0     		beq	.L17
 236              		.loc 1 329 5 is_stmt 1 view .LVU39
 237              		.loc 1 329 8 is_stmt 0 view .LVU40
 238 0010 1A42     		tst	r2, r3
 239 0012 01D1     		bne	.L19
 330:Drivers/STM32G0xx_HAL_Driver/Src/stm32g0xx_hal_pwr.c ****     {
ARM GAS  /tmp/cclXc8d7.s 			page 11


 331:Drivers/STM32G0xx_HAL_Driver/Src/stm32g0xx_hal_pwr.c ****       HAL_PWREx_EnableLowPowerRunMode();
 240              		.loc 1 331 7 is_stmt 1 view .LVU41
 241 0014 FFF7FEFF 		bl	HAL_PWREx_EnableLowPowerRunMode
 242              	.LVL5:
 243              	.L19:
 332:Drivers/STM32G0xx_HAL_Driver/Src/stm32g0xx_hal_pwr.c ****     }
 333:Drivers/STM32G0xx_HAL_Driver/Src/stm32g0xx_hal_pwr.c ****   }
 334:Drivers/STM32G0xx_HAL_Driver/Src/stm32g0xx_hal_pwr.c ****   else
 335:Drivers/STM32G0xx_HAL_Driver/Src/stm32g0xx_hal_pwr.c ****   {
 336:Drivers/STM32G0xx_HAL_Driver/Src/stm32g0xx_hal_pwr.c ****     /* If in low-power run mode at this point, exit it */
 337:Drivers/STM32G0xx_HAL_Driver/Src/stm32g0xx_hal_pwr.c ****     if ((PWR->SR2 & PWR_SR2_REGLPF) != 0x00u)
 338:Drivers/STM32G0xx_HAL_Driver/Src/stm32g0xx_hal_pwr.c ****     {
 339:Drivers/STM32G0xx_HAL_Driver/Src/stm32g0xx_hal_pwr.c ****       if (HAL_PWREx_DisableLowPowerRunMode() != HAL_OK)
 340:Drivers/STM32G0xx_HAL_Driver/Src/stm32g0xx_hal_pwr.c ****       {
 341:Drivers/STM32G0xx_HAL_Driver/Src/stm32g0xx_hal_pwr.c ****         return ;
 342:Drivers/STM32G0xx_HAL_Driver/Src/stm32g0xx_hal_pwr.c ****       }
 343:Drivers/STM32G0xx_HAL_Driver/Src/stm32g0xx_hal_pwr.c ****     }
 344:Drivers/STM32G0xx_HAL_Driver/Src/stm32g0xx_hal_pwr.c ****   }
 345:Drivers/STM32G0xx_HAL_Driver/Src/stm32g0xx_hal_pwr.c **** 
 346:Drivers/STM32G0xx_HAL_Driver/Src/stm32g0xx_hal_pwr.c ****   /* Clear SLEEPDEEP bit of Cortex System Control Register */
 347:Drivers/STM32G0xx_HAL_Driver/Src/stm32g0xx_hal_pwr.c ****   CLEAR_BIT(SCB->SCR, ((uint32_t)SCB_SCR_SLEEPDEEP_Msk));
 244              		.loc 1 347 3 view .LVU42
 245 0018 0421     		movs	r1, #4
 246 001a 0A4A     		ldr	r2, .L26+4
 247 001c 1369     		ldr	r3, [r2, #16]
 248 001e 8B43     		bics	r3, r1
 249 0020 1361     		str	r3, [r2, #16]
 348:Drivers/STM32G0xx_HAL_Driver/Src/stm32g0xx_hal_pwr.c **** 
 349:Drivers/STM32G0xx_HAL_Driver/Src/stm32g0xx_hal_pwr.c ****   /* Select SLEEP mode entry -------------------------------------------------*/
 350:Drivers/STM32G0xx_HAL_Driver/Src/stm32g0xx_hal_pwr.c ****   if (SLEEPEntry == PWR_SLEEPENTRY_WFI)
 250              		.loc 1 350 3 view .LVU43
 251              		.loc 1 350 6 is_stmt 0 view .LVU44
 252 0022 012C     		cmp	r4, #1
 253 0024 08D1     		bne	.L22
 351:Drivers/STM32G0xx_HAL_Driver/Src/stm32g0xx_hal_pwr.c ****   {
 352:Drivers/STM32G0xx_HAL_Driver/Src/stm32g0xx_hal_pwr.c ****     /* Request Wait For Interrupt */
 353:Drivers/STM32G0xx_HAL_Driver/Src/stm32g0xx_hal_pwr.c ****     __WFI();
 254              		.loc 1 353 5 is_stmt 1 view .LVU45
 255              		.syntax divided
 256              	@ 353 "Drivers/STM32G0xx_HAL_Driver/Src/stm32g0xx_hal_pwr.c" 1
 257 0026 30BF     		wfi
 258              	@ 0 "" 2
 259              		.thumb
 260              		.syntax unified
 261 0028 05E0     		b	.L16
 262              	.LVL6:
 263              	.L17:
 337:Drivers/STM32G0xx_HAL_Driver/Src/stm32g0xx_hal_pwr.c ****     {
 264              		.loc 1 337 5 view .LVU46
 337:Drivers/STM32G0xx_HAL_Driver/Src/stm32g0xx_hal_pwr.c ****     {
 265              		.loc 1 337 8 is_stmt 0 view .LVU47
 266 002a 1A42     		tst	r2, r3
 267 002c F4D0     		beq	.L19
 339:Drivers/STM32G0xx_HAL_Driver/Src/stm32g0xx_hal_pwr.c ****       {
 268              		.loc 1 339 7 is_stmt 1 view .LVU48
 339:Drivers/STM32G0xx_HAL_Driver/Src/stm32g0xx_hal_pwr.c ****       {
 269              		.loc 1 339 11 is_stmt 0 view .LVU49
ARM GAS  /tmp/cclXc8d7.s 			page 12


 270 002e FFF7FEFF 		bl	HAL_PWREx_DisableLowPowerRunMode
 271              	.LVL7:
 339:Drivers/STM32G0xx_HAL_Driver/Src/stm32g0xx_hal_pwr.c ****       {
 272              		.loc 1 339 10 discriminator 1 view .LVU50
 273 0032 0028     		cmp	r0, #0
 274 0034 F0D0     		beq	.L19
 275              	.L16:
 354:Drivers/STM32G0xx_HAL_Driver/Src/stm32g0xx_hal_pwr.c ****   }
 355:Drivers/STM32G0xx_HAL_Driver/Src/stm32g0xx_hal_pwr.c ****   else
 356:Drivers/STM32G0xx_HAL_Driver/Src/stm32g0xx_hal_pwr.c ****   {
 357:Drivers/STM32G0xx_HAL_Driver/Src/stm32g0xx_hal_pwr.c ****     /* Request Wait For Event */
 358:Drivers/STM32G0xx_HAL_Driver/Src/stm32g0xx_hal_pwr.c ****     __SEV();
 359:Drivers/STM32G0xx_HAL_Driver/Src/stm32g0xx_hal_pwr.c ****     __WFE();
 360:Drivers/STM32G0xx_HAL_Driver/Src/stm32g0xx_hal_pwr.c ****     __WFE();
 361:Drivers/STM32G0xx_HAL_Driver/Src/stm32g0xx_hal_pwr.c ****   }
 362:Drivers/STM32G0xx_HAL_Driver/Src/stm32g0xx_hal_pwr.c **** }
 276              		.loc 1 362 1 view .LVU51
 277              		@ sp needed
 278              	.LVL8:
 279              		.loc 1 362 1 view .LVU52
 280 0036 10BD     		pop	{r4, pc}
 281              	.L22:
 358:Drivers/STM32G0xx_HAL_Driver/Src/stm32g0xx_hal_pwr.c ****     __WFE();
 282              		.loc 1 358 5 is_stmt 1 view .LVU53
 283              		.syntax divided
 284              	@ 358 "Drivers/STM32G0xx_HAL_Driver/Src/stm32g0xx_hal_pwr.c" 1
 285 0038 40BF     		sev
 286              	@ 0 "" 2
 359:Drivers/STM32G0xx_HAL_Driver/Src/stm32g0xx_hal_pwr.c ****     __WFE();
 287              		.loc 1 359 5 view .LVU54
 288              	@ 359 "Drivers/STM32G0xx_HAL_Driver/Src/stm32g0xx_hal_pwr.c" 1
 289 003a 20BF     		wfe
 290              	@ 0 "" 2
 360:Drivers/STM32G0xx_HAL_Driver/Src/stm32g0xx_hal_pwr.c ****   }
 291              		.loc 1 360 5 view .LVU55
 292              	@ 360 "Drivers/STM32G0xx_HAL_Driver/Src/stm32g0xx_hal_pwr.c" 1
 293 003c 20BF     		wfe
 294              	@ 0 "" 2
 295              		.thumb
 296              		.syntax unified
 297 003e FAE7     		b	.L16
 298              	.L27:
 299              		.align	2
 300              	.L26:
 301 0040 00700040 		.word	1073770496
 302 0044 00ED00E0 		.word	-536810240
 303              		.cfi_endproc
 304              	.LFE425:
 306              		.section	.text.HAL_PWR_EnterSTOPMode,"ax",%progbits
 307              		.align	1
 308              		.global	HAL_PWR_EnterSTOPMode
 309              		.syntax unified
 310              		.code	16
 311              		.thumb_func
 313              	HAL_PWR_EnterSTOPMode:
 314              	.LVL9:
 315              	.LFB426:
ARM GAS  /tmp/cclXc8d7.s 			page 13


 363:Drivers/STM32G0xx_HAL_Driver/Src/stm32g0xx_hal_pwr.c **** 
 364:Drivers/STM32G0xx_HAL_Driver/Src/stm32g0xx_hal_pwr.c **** 
 365:Drivers/STM32G0xx_HAL_Driver/Src/stm32g0xx_hal_pwr.c **** /**
 366:Drivers/STM32G0xx_HAL_Driver/Src/stm32g0xx_hal_pwr.c ****   * @brief  Enter Stop mode
 367:Drivers/STM32G0xx_HAL_Driver/Src/stm32g0xx_hal_pwr.c ****   * @note   This API is named HAL_PWR_EnterSTOPMode to ensure compatibility with
 368:Drivers/STM32G0xx_HAL_Driver/Src/stm32g0xx_hal_pwr.c ****   *         legacy code running on devices where only "Stop mode" is mentioned
 369:Drivers/STM32G0xx_HAL_Driver/Src/stm32g0xx_hal_pwr.c ****   *         with main or low power regulator ON.
 370:Drivers/STM32G0xx_HAL_Driver/Src/stm32g0xx_hal_pwr.c ****   * @note   In Stop mode, all I/O pins keep the same state as in Run mode.
 371:Drivers/STM32G0xx_HAL_Driver/Src/stm32g0xx_hal_pwr.c ****   * @note   All clocks in the VCORE domain are stopped; the PLL, the HSI and the
 372:Drivers/STM32G0xx_HAL_Driver/Src/stm32g0xx_hal_pwr.c ****   *         HSE oscillators are disabled. Some peripherals with the wakeup
 373:Drivers/STM32G0xx_HAL_Driver/Src/stm32g0xx_hal_pwr.c ****   *         capability can switch on the HSI to receive a frame, and switch off
 374:Drivers/STM32G0xx_HAL_Driver/Src/stm32g0xx_hal_pwr.c ****   *         the HSI after receiving the frame if it is not a wakeup frame.
 375:Drivers/STM32G0xx_HAL_Driver/Src/stm32g0xx_hal_pwr.c ****   *         SRAM and register contents are preserved.
 376:Drivers/STM32G0xx_HAL_Driver/Src/stm32g0xx_hal_pwr.c ****   *         The BOR is available.
 377:Drivers/STM32G0xx_HAL_Driver/Src/stm32g0xx_hal_pwr.c ****   *         The voltage regulator can be configured either in normal (Stop 0) or
 378:Drivers/STM32G0xx_HAL_Driver/Src/stm32g0xx_hal_pwr.c ****   *         low-power mode (Stop 1).
 379:Drivers/STM32G0xx_HAL_Driver/Src/stm32g0xx_hal_pwr.c ****   * @note   When exiting Stop 0 or Stop 1 mode by issuing an interrupt or a
 380:Drivers/STM32G0xx_HAL_Driver/Src/stm32g0xx_hal_pwr.c ****   *         wakeup event, the HSI RC oscillator is selected as system clock
 381:Drivers/STM32G0xx_HAL_Driver/Src/stm32g0xx_hal_pwr.c ****   * @note   When the voltage regulator operates in low power mode (Stop 1),
 382:Drivers/STM32G0xx_HAL_Driver/Src/stm32g0xx_hal_pwr.c ****   *         an additional startup delay is incurred when waking up. By keeping
 383:Drivers/STM32G0xx_HAL_Driver/Src/stm32g0xx_hal_pwr.c ****   *         the internal regulator ON during Stop mode (Stop 0), the consumption
 384:Drivers/STM32G0xx_HAL_Driver/Src/stm32g0xx_hal_pwr.c ****   *         is higher although the startup time is reduced.
 385:Drivers/STM32G0xx_HAL_Driver/Src/stm32g0xx_hal_pwr.c ****   * @param  Regulator Specifies the regulator state in Stop mode
 386:Drivers/STM32G0xx_HAL_Driver/Src/stm32g0xx_hal_pwr.c ****   *         This parameter can be one of the following values:
 387:Drivers/STM32G0xx_HAL_Driver/Src/stm32g0xx_hal_pwr.c ****   *            @arg @ref PWR_MAINREGULATOR_ON  Stop 0 mode (main regulator ON)
 388:Drivers/STM32G0xx_HAL_Driver/Src/stm32g0xx_hal_pwr.c ****   *            @arg @ref PWR_LOWPOWERREGULATOR_ON  Stop 1 mode (low power
 389:Drivers/STM32G0xx_HAL_Driver/Src/stm32g0xx_hal_pwr.c ****   *                                                regulator ON)
 390:Drivers/STM32G0xx_HAL_Driver/Src/stm32g0xx_hal_pwr.c ****   * @param  STOPEntry Specifies Stop 0 or Stop 1 mode is entered with WFI or
 391:Drivers/STM32G0xx_HAL_Driver/Src/stm32g0xx_hal_pwr.c ****   *         WFE instruction. This parameter can be one of the following values:
 392:Drivers/STM32G0xx_HAL_Driver/Src/stm32g0xx_hal_pwr.c ****   *            @arg @ref PWR_STOPENTRY_WFI  Enter Stop 0 or Stop 1 mode with WFI
 393:Drivers/STM32G0xx_HAL_Driver/Src/stm32g0xx_hal_pwr.c ****   *                                         instruction.
 394:Drivers/STM32G0xx_HAL_Driver/Src/stm32g0xx_hal_pwr.c ****   *            @arg @ref PWR_STOPENTRY_WFE  Enter Stop 0 or Stop 1 mode with WFE
 395:Drivers/STM32G0xx_HAL_Driver/Src/stm32g0xx_hal_pwr.c ****   *                                         instruction.
 396:Drivers/STM32G0xx_HAL_Driver/Src/stm32g0xx_hal_pwr.c ****   * @retval None
 397:Drivers/STM32G0xx_HAL_Driver/Src/stm32g0xx_hal_pwr.c ****   */
 398:Drivers/STM32G0xx_HAL_Driver/Src/stm32g0xx_hal_pwr.c **** void HAL_PWR_EnterSTOPMode(uint32_t Regulator, uint8_t STOPEntry)
 399:Drivers/STM32G0xx_HAL_Driver/Src/stm32g0xx_hal_pwr.c **** {
 316              		.loc 1 399 1 view -0
 317              		.cfi_startproc
 318              		@ args = 0, pretend = 0, frame = 0
 319              		@ frame_needed = 0, uses_anonymous_args = 0
 400:Drivers/STM32G0xx_HAL_Driver/Src/stm32g0xx_hal_pwr.c ****   /* Check the parameters */
 401:Drivers/STM32G0xx_HAL_Driver/Src/stm32g0xx_hal_pwr.c ****   assert_param(IS_PWR_REGULATOR(Regulator));
 320              		.loc 1 401 3 view .LVU57
 402:Drivers/STM32G0xx_HAL_Driver/Src/stm32g0xx_hal_pwr.c ****   assert_param(IS_PWR_STOP_ENTRY(STOPEntry));
 321              		.loc 1 402 3 view .LVU58
 403:Drivers/STM32G0xx_HAL_Driver/Src/stm32g0xx_hal_pwr.c **** 
 404:Drivers/STM32G0xx_HAL_Driver/Src/stm32g0xx_hal_pwr.c ****   if (Regulator != PWR_MAINREGULATOR_ON)
 322              		.loc 1 404 3 view .LVU59
 399:Drivers/STM32G0xx_HAL_Driver/Src/stm32g0xx_hal_pwr.c ****   /* Check the parameters */
 323              		.loc 1 399 1 is_stmt 0 view .LVU60
 324 0000 10B5     		push	{r4, lr}
 325              	.LCFI1:
 326              		.cfi_def_cfa_offset 8
 327              		.cfi_offset 4, -8
 328              		.cfi_offset 14, -4
 329 0002 0E4B     		ldr	r3, .L34
ARM GAS  /tmp/cclXc8d7.s 			page 14


 330 0004 0724     		movs	r4, #7
 331              		.loc 1 404 6 view .LVU61
 332 0006 0028     		cmp	r0, #0
 333 0008 11D0     		beq	.L29
 405:Drivers/STM32G0xx_HAL_Driver/Src/stm32g0xx_hal_pwr.c ****   {
 406:Drivers/STM32G0xx_HAL_Driver/Src/stm32g0xx_hal_pwr.c ****     /* Stop mode with Low-Power Regulator */
 407:Drivers/STM32G0xx_HAL_Driver/Src/stm32g0xx_hal_pwr.c ****     MODIFY_REG(PWR->CR1, PWR_CR1_LPMS, PWR_LOWPOWERMODE_STOP1);
 334              		.loc 1 407 5 is_stmt 1 view .LVU62
 335 000a 0122     		movs	r2, #1
 336 000c 1868     		ldr	r0, [r3]
 337              	.LVL10:
 338              		.loc 1 407 5 is_stmt 0 view .LVU63
 339 000e A043     		bics	r0, r4
 340 0010 0243     		orrs	r2, r0
 341              	.L33:
 408:Drivers/STM32G0xx_HAL_Driver/Src/stm32g0xx_hal_pwr.c ****   }
 409:Drivers/STM32G0xx_HAL_Driver/Src/stm32g0xx_hal_pwr.c ****   else
 410:Drivers/STM32G0xx_HAL_Driver/Src/stm32g0xx_hal_pwr.c ****   {
 411:Drivers/STM32G0xx_HAL_Driver/Src/stm32g0xx_hal_pwr.c ****     /* Stop mode with Main Regulator */
 412:Drivers/STM32G0xx_HAL_Driver/Src/stm32g0xx_hal_pwr.c ****     MODIFY_REG(PWR->CR1, PWR_CR1_LPMS, PWR_LOWPOWERMODE_STOP0);
 342              		.loc 1 412 5 view .LVU64
 343 0012 1A60     		str	r2, [r3]
 413:Drivers/STM32G0xx_HAL_Driver/Src/stm32g0xx_hal_pwr.c ****   }
 414:Drivers/STM32G0xx_HAL_Driver/Src/stm32g0xx_hal_pwr.c **** 
 415:Drivers/STM32G0xx_HAL_Driver/Src/stm32g0xx_hal_pwr.c ****   /* Set SLEEPDEEP bit of Cortex System Control Register */
 416:Drivers/STM32G0xx_HAL_Driver/Src/stm32g0xx_hal_pwr.c ****   SET_BIT(SCB->SCR, ((uint32_t)SCB_SCR_SLEEPDEEP_Msk));
 344              		.loc 1 416 3 is_stmt 1 view .LVU65
 345 0014 0422     		movs	r2, #4
 346 0016 0A4B     		ldr	r3, .L34+4
 347 0018 1869     		ldr	r0, [r3, #16]
 348 001a 0243     		orrs	r2, r0
 349 001c 1A61     		str	r2, [r3, #16]
 417:Drivers/STM32G0xx_HAL_Driver/Src/stm32g0xx_hal_pwr.c **** 
 418:Drivers/STM32G0xx_HAL_Driver/Src/stm32g0xx_hal_pwr.c ****   /* Select Stop mode entry --------------------------------------------------*/
 419:Drivers/STM32G0xx_HAL_Driver/Src/stm32g0xx_hal_pwr.c ****   if (STOPEntry == PWR_STOPENTRY_WFI)
 350              		.loc 1 419 3 view .LVU66
 351              		.loc 1 419 6 is_stmt 0 view .LVU67
 352 001e 0129     		cmp	r1, #1
 353 0020 08D1     		bne	.L31
 420:Drivers/STM32G0xx_HAL_Driver/Src/stm32g0xx_hal_pwr.c ****   {
 421:Drivers/STM32G0xx_HAL_Driver/Src/stm32g0xx_hal_pwr.c ****     /* Request Wait For Interrupt */
 422:Drivers/STM32G0xx_HAL_Driver/Src/stm32g0xx_hal_pwr.c ****     __WFI();
 354              		.loc 1 422 5 is_stmt 1 view .LVU68
 355              		.syntax divided
 356              	@ 422 "Drivers/STM32G0xx_HAL_Driver/Src/stm32g0xx_hal_pwr.c" 1
 357 0022 30BF     		wfi
 358              	@ 0 "" 2
 359              		.thumb
 360              		.syntax unified
 361              	.L32:
 423:Drivers/STM32G0xx_HAL_Driver/Src/stm32g0xx_hal_pwr.c ****   }
 424:Drivers/STM32G0xx_HAL_Driver/Src/stm32g0xx_hal_pwr.c ****   else
 425:Drivers/STM32G0xx_HAL_Driver/Src/stm32g0xx_hal_pwr.c ****   {
 426:Drivers/STM32G0xx_HAL_Driver/Src/stm32g0xx_hal_pwr.c ****     /* Request Wait For Event */
 427:Drivers/STM32G0xx_HAL_Driver/Src/stm32g0xx_hal_pwr.c ****     __SEV();
 428:Drivers/STM32G0xx_HAL_Driver/Src/stm32g0xx_hal_pwr.c ****     __WFE();
 429:Drivers/STM32G0xx_HAL_Driver/Src/stm32g0xx_hal_pwr.c ****     __WFE();
ARM GAS  /tmp/cclXc8d7.s 			page 15


 430:Drivers/STM32G0xx_HAL_Driver/Src/stm32g0xx_hal_pwr.c ****   }
 431:Drivers/STM32G0xx_HAL_Driver/Src/stm32g0xx_hal_pwr.c **** 
 432:Drivers/STM32G0xx_HAL_Driver/Src/stm32g0xx_hal_pwr.c ****   /* Reset SLEEPDEEP bit of Cortex System Control Register */
 433:Drivers/STM32G0xx_HAL_Driver/Src/stm32g0xx_hal_pwr.c ****   CLEAR_BIT(SCB->SCR, ((uint32_t)SCB_SCR_SLEEPDEEP_Msk));
 362              		.loc 1 433 3 view .LVU69
 434:Drivers/STM32G0xx_HAL_Driver/Src/stm32g0xx_hal_pwr.c **** }
 363              		.loc 1 434 1 is_stmt 0 view .LVU70
 364              		@ sp needed
 433:Drivers/STM32G0xx_HAL_Driver/Src/stm32g0xx_hal_pwr.c **** }
 365              		.loc 1 433 3 view .LVU71
 366 0024 0421     		movs	r1, #4
 367              	.LVL11:
 433:Drivers/STM32G0xx_HAL_Driver/Src/stm32g0xx_hal_pwr.c **** }
 368              		.loc 1 433 3 view .LVU72
 369 0026 1A69     		ldr	r2, [r3, #16]
 370 0028 8A43     		bics	r2, r1
 371 002a 1A61     		str	r2, [r3, #16]
 372              		.loc 1 434 1 view .LVU73
 373 002c 10BD     		pop	{r4, pc}
 374              	.LVL12:
 375              	.L29:
 412:Drivers/STM32G0xx_HAL_Driver/Src/stm32g0xx_hal_pwr.c ****   }
 376              		.loc 1 412 5 is_stmt 1 view .LVU74
 377 002e 1A68     		ldr	r2, [r3]
 378 0030 A243     		bics	r2, r4
 379 0032 EEE7     		b	.L33
 380              	.LVL13:
 381              	.L31:
 427:Drivers/STM32G0xx_HAL_Driver/Src/stm32g0xx_hal_pwr.c ****     __WFE();
 382              		.loc 1 427 5 view .LVU75
 383              		.syntax divided
 384              	@ 427 "Drivers/STM32G0xx_HAL_Driver/Src/stm32g0xx_hal_pwr.c" 1
 385 0034 40BF     		sev
 386              	@ 0 "" 2
 428:Drivers/STM32G0xx_HAL_Driver/Src/stm32g0xx_hal_pwr.c ****     __WFE();
 387              		.loc 1 428 5 view .LVU76
 388              	@ 428 "Drivers/STM32G0xx_HAL_Driver/Src/stm32g0xx_hal_pwr.c" 1
 389 0036 20BF     		wfe
 390              	@ 0 "" 2
 429:Drivers/STM32G0xx_HAL_Driver/Src/stm32g0xx_hal_pwr.c ****   }
 391              		.loc 1 429 5 view .LVU77
 392              	@ 429 "Drivers/STM32G0xx_HAL_Driver/Src/stm32g0xx_hal_pwr.c" 1
 393 0038 20BF     		wfe
 394              	@ 0 "" 2
 395              		.thumb
 396              		.syntax unified
 397 003a F3E7     		b	.L32
 398              	.L35:
 399              		.align	2
 400              	.L34:
 401 003c 00700040 		.word	1073770496
 402 0040 00ED00E0 		.word	-536810240
 403              		.cfi_endproc
 404              	.LFE426:
 406              		.section	.text.HAL_PWR_EnterSTANDBYMode,"ax",%progbits
 407              		.align	1
 408              		.global	HAL_PWR_EnterSTANDBYMode
ARM GAS  /tmp/cclXc8d7.s 			page 16


 409              		.syntax unified
 410              		.code	16
 411              		.thumb_func
 413              	HAL_PWR_EnterSTANDBYMode:
 414              	.LFB427:
 435:Drivers/STM32G0xx_HAL_Driver/Src/stm32g0xx_hal_pwr.c **** 
 436:Drivers/STM32G0xx_HAL_Driver/Src/stm32g0xx_hal_pwr.c **** 
 437:Drivers/STM32G0xx_HAL_Driver/Src/stm32g0xx_hal_pwr.c **** /**
 438:Drivers/STM32G0xx_HAL_Driver/Src/stm32g0xx_hal_pwr.c ****   * @brief  Enter Standby mode.
 439:Drivers/STM32G0xx_HAL_Driver/Src/stm32g0xx_hal_pwr.c ****   * @note   In Standby mode, the PLL, the HSI and the HSE oscillators are
 440:Drivers/STM32G0xx_HAL_Driver/Src/stm32g0xx_hal_pwr.c ****   *         switched off. The voltage regulator is disabled. SRAM and register
 441:Drivers/STM32G0xx_HAL_Driver/Src/stm32g0xx_hal_pwr.c ****   *         contents are lost except for registers in the Backup domain and
 442:Drivers/STM32G0xx_HAL_Driver/Src/stm32g0xx_hal_pwr.c ****   *         Standby circuitry. BOR is available.
 443:Drivers/STM32G0xx_HAL_Driver/Src/stm32g0xx_hal_pwr.c ****   * @note   The I/Os can be configured either with a pull-up or pull-down or can
 444:Drivers/STM32G0xx_HAL_Driver/Src/stm32g0xx_hal_pwr.c ****   *         be kept in analog state.
 445:Drivers/STM32G0xx_HAL_Driver/Src/stm32g0xx_hal_pwr.c ****   *         HAL_PWREx_EnableGPIOPullUp() and HAL_PWREx_EnableGPIOPullDown()
 446:Drivers/STM32G0xx_HAL_Driver/Src/stm32g0xx_hal_pwr.c ****   *         respectively enable Pull Up and PullDown state.
 447:Drivers/STM32G0xx_HAL_Driver/Src/stm32g0xx_hal_pwr.c ****   *         HAL_PWREx_DisableGPIOPullUp() & HAL_PWREx_DisableGPIOPullDown()
 448:Drivers/STM32G0xx_HAL_Driver/Src/stm32g0xx_hal_pwr.c ****   *         disable the same. These states are effective in Standby mode only if
 449:Drivers/STM32G0xx_HAL_Driver/Src/stm32g0xx_hal_pwr.c ****   *         APC bit is set through HAL_PWREx_EnablePullUpPullDownConfig() API.
 450:Drivers/STM32G0xx_HAL_Driver/Src/stm32g0xx_hal_pwr.c ****   * @note   Sram content can be kept setting RRS through HAL_PWREx_EnableSRAMRetention()
 451:Drivers/STM32G0xx_HAL_Driver/Src/stm32g0xx_hal_pwr.c ****   * @retval None
 452:Drivers/STM32G0xx_HAL_Driver/Src/stm32g0xx_hal_pwr.c ****   */
 453:Drivers/STM32G0xx_HAL_Driver/Src/stm32g0xx_hal_pwr.c **** void HAL_PWR_EnterSTANDBYMode(void)
 454:Drivers/STM32G0xx_HAL_Driver/Src/stm32g0xx_hal_pwr.c **** {
 415              		.loc 1 454 1 view -0
 416              		.cfi_startproc
 417              		@ args = 0, pretend = 0, frame = 0
 418              		@ frame_needed = 0, uses_anonymous_args = 0
 419              		@ link register save eliminated.
 455:Drivers/STM32G0xx_HAL_Driver/Src/stm32g0xx_hal_pwr.c ****   /* Set Stand-by mode */
 456:Drivers/STM32G0xx_HAL_Driver/Src/stm32g0xx_hal_pwr.c ****   MODIFY_REG(PWR->CR1, PWR_CR1_LPMS, PWR_LOWPOWERMODE_STANDBY);
 420              		.loc 1 456 3 view .LVU79
 421 0000 0723     		movs	r3, #7
 422 0002 0649     		ldr	r1, .L37
 423 0004 0A68     		ldr	r2, [r1]
 424 0006 9A43     		bics	r2, r3
 425 0008 043B     		subs	r3, r3, #4
 426 000a 1343     		orrs	r3, r2
 427 000c 0B60     		str	r3, [r1]
 457:Drivers/STM32G0xx_HAL_Driver/Src/stm32g0xx_hal_pwr.c **** 
 458:Drivers/STM32G0xx_HAL_Driver/Src/stm32g0xx_hal_pwr.c ****   /* Set SLEEPDEEP bit of Cortex System Control Register */
 459:Drivers/STM32G0xx_HAL_Driver/Src/stm32g0xx_hal_pwr.c ****   SET_BIT(SCB->SCR, ((uint32_t)SCB_SCR_SLEEPDEEP_Msk));
 428              		.loc 1 459 3 view .LVU80
 429 000e 0423     		movs	r3, #4
 430 0010 034A     		ldr	r2, .L37+4
 431 0012 1169     		ldr	r1, [r2, #16]
 432 0014 0B43     		orrs	r3, r1
 433 0016 1361     		str	r3, [r2, #16]
 460:Drivers/STM32G0xx_HAL_Driver/Src/stm32g0xx_hal_pwr.c **** 
 461:Drivers/STM32G0xx_HAL_Driver/Src/stm32g0xx_hal_pwr.c ****   /* This option is used to ensure that store operations are completed */
 462:Drivers/STM32G0xx_HAL_Driver/Src/stm32g0xx_hal_pwr.c **** #if defined ( __CC_ARM)
 463:Drivers/STM32G0xx_HAL_Driver/Src/stm32g0xx_hal_pwr.c ****   __force_stores();
 464:Drivers/STM32G0xx_HAL_Driver/Src/stm32g0xx_hal_pwr.c **** #endif /* __CC_ARM */
 465:Drivers/STM32G0xx_HAL_Driver/Src/stm32g0xx_hal_pwr.c **** 
 466:Drivers/STM32G0xx_HAL_Driver/Src/stm32g0xx_hal_pwr.c ****   /* Request Wait For Interrupt */
 467:Drivers/STM32G0xx_HAL_Driver/Src/stm32g0xx_hal_pwr.c ****   __WFI();
ARM GAS  /tmp/cclXc8d7.s 			page 17


 434              		.loc 1 467 3 view .LVU81
 435              		.syntax divided
 436              	@ 467 "Drivers/STM32G0xx_HAL_Driver/Src/stm32g0xx_hal_pwr.c" 1
 437 0018 30BF     		wfi
 438              	@ 0 "" 2
 468:Drivers/STM32G0xx_HAL_Driver/Src/stm32g0xx_hal_pwr.c **** }
 439              		.loc 1 468 1 is_stmt 0 view .LVU82
 440              		.thumb
 441              		.syntax unified
 442              		@ sp needed
 443 001a 7047     		bx	lr
 444              	.L38:
 445              		.align	2
 446              	.L37:
 447 001c 00700040 		.word	1073770496
 448 0020 00ED00E0 		.word	-536810240
 449              		.cfi_endproc
 450              	.LFE427:
 452              		.section	.text.HAL_PWR_EnableSleepOnExit,"ax",%progbits
 453              		.align	1
 454              		.global	HAL_PWR_EnableSleepOnExit
 455              		.syntax unified
 456              		.code	16
 457              		.thumb_func
 459              	HAL_PWR_EnableSleepOnExit:
 460              	.LFB428:
 469:Drivers/STM32G0xx_HAL_Driver/Src/stm32g0xx_hal_pwr.c **** 
 470:Drivers/STM32G0xx_HAL_Driver/Src/stm32g0xx_hal_pwr.c **** 
 471:Drivers/STM32G0xx_HAL_Driver/Src/stm32g0xx_hal_pwr.c **** /**
 472:Drivers/STM32G0xx_HAL_Driver/Src/stm32g0xx_hal_pwr.c ****   * @brief  Enable Sleep-On-Exit Cortex feature
 473:Drivers/STM32G0xx_HAL_Driver/Src/stm32g0xx_hal_pwr.c ****   * @note   Set SLEEPONEXIT bit of SCR register. When this bit is set, the
 474:Drivers/STM32G0xx_HAL_Driver/Src/stm32g0xx_hal_pwr.c ****   *         processor enters SLEEP or DEEPSLEEP mode when an interruption
 475:Drivers/STM32G0xx_HAL_Driver/Src/stm32g0xx_hal_pwr.c ****   *         handling is over returning to thread mode. Setting this bit is
 476:Drivers/STM32G0xx_HAL_Driver/Src/stm32g0xx_hal_pwr.c ****   *         useful when the processor is expected to run only on interruptions
 477:Drivers/STM32G0xx_HAL_Driver/Src/stm32g0xx_hal_pwr.c ****   *         handling.
 478:Drivers/STM32G0xx_HAL_Driver/Src/stm32g0xx_hal_pwr.c ****   * @retval None
 479:Drivers/STM32G0xx_HAL_Driver/Src/stm32g0xx_hal_pwr.c ****   */
 480:Drivers/STM32G0xx_HAL_Driver/Src/stm32g0xx_hal_pwr.c **** void HAL_PWR_EnableSleepOnExit(void)
 481:Drivers/STM32G0xx_HAL_Driver/Src/stm32g0xx_hal_pwr.c **** {
 461              		.loc 1 481 1 is_stmt 1 view -0
 462              		.cfi_startproc
 463              		@ args = 0, pretend = 0, frame = 0
 464              		@ frame_needed = 0, uses_anonymous_args = 0
 465              		@ link register save eliminated.
 482:Drivers/STM32G0xx_HAL_Driver/Src/stm32g0xx_hal_pwr.c ****   /* Set SLEEPONEXIT bit of Cortex System Control Register */
 483:Drivers/STM32G0xx_HAL_Driver/Src/stm32g0xx_hal_pwr.c ****   SET_BIT(SCB->SCR, ((uint32_t)SCB_SCR_SLEEPONEXIT_Msk));
 466              		.loc 1 483 3 view .LVU84
 467 0000 0223     		movs	r3, #2
 484:Drivers/STM32G0xx_HAL_Driver/Src/stm32g0xx_hal_pwr.c **** }
 468              		.loc 1 484 1 is_stmt 0 view .LVU85
 469              		@ sp needed
 483:Drivers/STM32G0xx_HAL_Driver/Src/stm32g0xx_hal_pwr.c **** }
 470              		.loc 1 483 3 view .LVU86
 471 0002 024A     		ldr	r2, .L40
 472 0004 1169     		ldr	r1, [r2, #16]
 473 0006 0B43     		orrs	r3, r1
 474 0008 1361     		str	r3, [r2, #16]
ARM GAS  /tmp/cclXc8d7.s 			page 18


 475              		.loc 1 484 1 view .LVU87
 476 000a 7047     		bx	lr
 477              	.L41:
 478              		.align	2
 479              	.L40:
 480 000c 00ED00E0 		.word	-536810240
 481              		.cfi_endproc
 482              	.LFE428:
 484              		.section	.text.HAL_PWR_DisableSleepOnExit,"ax",%progbits
 485              		.align	1
 486              		.global	HAL_PWR_DisableSleepOnExit
 487              		.syntax unified
 488              		.code	16
 489              		.thumb_func
 491              	HAL_PWR_DisableSleepOnExit:
 492              	.LFB429:
 485:Drivers/STM32G0xx_HAL_Driver/Src/stm32g0xx_hal_pwr.c **** 
 486:Drivers/STM32G0xx_HAL_Driver/Src/stm32g0xx_hal_pwr.c **** 
 487:Drivers/STM32G0xx_HAL_Driver/Src/stm32g0xx_hal_pwr.c **** /**
 488:Drivers/STM32G0xx_HAL_Driver/Src/stm32g0xx_hal_pwr.c ****   * @brief  Disable Sleep-On-Exit Cortex feature
 489:Drivers/STM32G0xx_HAL_Driver/Src/stm32g0xx_hal_pwr.c ****   * @note   Clear SLEEPONEXIT bit of SCR register. When this bit is set, the
 490:Drivers/STM32G0xx_HAL_Driver/Src/stm32g0xx_hal_pwr.c ****   *         processor enters SLEEP or DEEPSLEEP mode when an interruption
 491:Drivers/STM32G0xx_HAL_Driver/Src/stm32g0xx_hal_pwr.c ****   *         handling is over.
 492:Drivers/STM32G0xx_HAL_Driver/Src/stm32g0xx_hal_pwr.c ****   * @retval None
 493:Drivers/STM32G0xx_HAL_Driver/Src/stm32g0xx_hal_pwr.c ****   */
 494:Drivers/STM32G0xx_HAL_Driver/Src/stm32g0xx_hal_pwr.c **** void HAL_PWR_DisableSleepOnExit(void)
 495:Drivers/STM32G0xx_HAL_Driver/Src/stm32g0xx_hal_pwr.c **** {
 493              		.loc 1 495 1 is_stmt 1 view -0
 494              		.cfi_startproc
 495              		@ args = 0, pretend = 0, frame = 0
 496              		@ frame_needed = 0, uses_anonymous_args = 0
 497              		@ link register save eliminated.
 496:Drivers/STM32G0xx_HAL_Driver/Src/stm32g0xx_hal_pwr.c ****   /* Clear SLEEPONEXIT bit of Cortex System Control Register */
 497:Drivers/STM32G0xx_HAL_Driver/Src/stm32g0xx_hal_pwr.c ****   CLEAR_BIT(SCB->SCR, ((uint32_t)SCB_SCR_SLEEPONEXIT_Msk));
 498              		.loc 1 497 3 view .LVU89
 499 0000 0221     		movs	r1, #2
 498:Drivers/STM32G0xx_HAL_Driver/Src/stm32g0xx_hal_pwr.c **** }
 500              		.loc 1 498 1 is_stmt 0 view .LVU90
 501              		@ sp needed
 497:Drivers/STM32G0xx_HAL_Driver/Src/stm32g0xx_hal_pwr.c **** }
 502              		.loc 1 497 3 view .LVU91
 503 0002 024A     		ldr	r2, .L43
 504 0004 1369     		ldr	r3, [r2, #16]
 505 0006 8B43     		bics	r3, r1
 506 0008 1361     		str	r3, [r2, #16]
 507              		.loc 1 498 1 view .LVU92
 508 000a 7047     		bx	lr
 509              	.L44:
 510              		.align	2
 511              	.L43:
 512 000c 00ED00E0 		.word	-536810240
 513              		.cfi_endproc
 514              	.LFE429:
 516              		.section	.text.HAL_PWR_EnableSEVOnPend,"ax",%progbits
 517              		.align	1
 518              		.global	HAL_PWR_EnableSEVOnPend
 519              		.syntax unified
ARM GAS  /tmp/cclXc8d7.s 			page 19


 520              		.code	16
 521              		.thumb_func
 523              	HAL_PWR_EnableSEVOnPend:
 524              	.LFB430:
 499:Drivers/STM32G0xx_HAL_Driver/Src/stm32g0xx_hal_pwr.c **** 
 500:Drivers/STM32G0xx_HAL_Driver/Src/stm32g0xx_hal_pwr.c **** 
 501:Drivers/STM32G0xx_HAL_Driver/Src/stm32g0xx_hal_pwr.c **** /**
 502:Drivers/STM32G0xx_HAL_Driver/Src/stm32g0xx_hal_pwr.c ****   * @brief  Enable Cortex Sev On Pending feature.
 503:Drivers/STM32G0xx_HAL_Driver/Src/stm32g0xx_hal_pwr.c ****   * @note   Set SEVONPEND bit of SCR register. When this bit is set, enabled
 504:Drivers/STM32G0xx_HAL_Driver/Src/stm32g0xx_hal_pwr.c ****   *         events and all interrupts, including disabled ones can wakeup
 505:Drivers/STM32G0xx_HAL_Driver/Src/stm32g0xx_hal_pwr.c ****   *         processor from WFE.
 506:Drivers/STM32G0xx_HAL_Driver/Src/stm32g0xx_hal_pwr.c ****   * @retval None
 507:Drivers/STM32G0xx_HAL_Driver/Src/stm32g0xx_hal_pwr.c ****   */
 508:Drivers/STM32G0xx_HAL_Driver/Src/stm32g0xx_hal_pwr.c **** void HAL_PWR_EnableSEVOnPend(void)
 509:Drivers/STM32G0xx_HAL_Driver/Src/stm32g0xx_hal_pwr.c **** {
 525              		.loc 1 509 1 is_stmt 1 view -0
 526              		.cfi_startproc
 527              		@ args = 0, pretend = 0, frame = 0
 528              		@ frame_needed = 0, uses_anonymous_args = 0
 529              		@ link register save eliminated.
 510:Drivers/STM32G0xx_HAL_Driver/Src/stm32g0xx_hal_pwr.c ****   /* Set SEVONPEND bit of Cortex System Control Register */
 511:Drivers/STM32G0xx_HAL_Driver/Src/stm32g0xx_hal_pwr.c ****   SET_BIT(SCB->SCR, ((uint32_t)SCB_SCR_SEVONPEND_Msk));
 530              		.loc 1 511 3 view .LVU94
 531 0000 1023     		movs	r3, #16
 512:Drivers/STM32G0xx_HAL_Driver/Src/stm32g0xx_hal_pwr.c **** }
 532              		.loc 1 512 1 is_stmt 0 view .LVU95
 533              		@ sp needed
 511:Drivers/STM32G0xx_HAL_Driver/Src/stm32g0xx_hal_pwr.c **** }
 534              		.loc 1 511 3 view .LVU96
 535 0002 024A     		ldr	r2, .L46
 536 0004 1169     		ldr	r1, [r2, #16]
 537 0006 0B43     		orrs	r3, r1
 538 0008 1361     		str	r3, [r2, #16]
 539              		.loc 1 512 1 view .LVU97
 540 000a 7047     		bx	lr
 541              	.L47:
 542              		.align	2
 543              	.L46:
 544 000c 00ED00E0 		.word	-536810240
 545              		.cfi_endproc
 546              	.LFE430:
 548              		.section	.text.HAL_PWR_DisableSEVOnPend,"ax",%progbits
 549              		.align	1
 550              		.global	HAL_PWR_DisableSEVOnPend
 551              		.syntax unified
 552              		.code	16
 553              		.thumb_func
 555              	HAL_PWR_DisableSEVOnPend:
 556              	.LFB431:
 513:Drivers/STM32G0xx_HAL_Driver/Src/stm32g0xx_hal_pwr.c **** 
 514:Drivers/STM32G0xx_HAL_Driver/Src/stm32g0xx_hal_pwr.c **** 
 515:Drivers/STM32G0xx_HAL_Driver/Src/stm32g0xx_hal_pwr.c **** /**
 516:Drivers/STM32G0xx_HAL_Driver/Src/stm32g0xx_hal_pwr.c ****   * @brief  Disable Cortex Sev On Pending feature.
 517:Drivers/STM32G0xx_HAL_Driver/Src/stm32g0xx_hal_pwr.c ****   * @note   Clear SEVONPEND bit of SCR register. When this bit is clear, only
 518:Drivers/STM32G0xx_HAL_Driver/Src/stm32g0xx_hal_pwr.c ****   *         enable interrupts or events can wakeup processor from WFE
 519:Drivers/STM32G0xx_HAL_Driver/Src/stm32g0xx_hal_pwr.c ****   * @retval None
 520:Drivers/STM32G0xx_HAL_Driver/Src/stm32g0xx_hal_pwr.c ****   */
ARM GAS  /tmp/cclXc8d7.s 			page 20


 521:Drivers/STM32G0xx_HAL_Driver/Src/stm32g0xx_hal_pwr.c **** void HAL_PWR_DisableSEVOnPend(void)
 522:Drivers/STM32G0xx_HAL_Driver/Src/stm32g0xx_hal_pwr.c **** {
 557              		.loc 1 522 1 is_stmt 1 view -0
 558              		.cfi_startproc
 559              		@ args = 0, pretend = 0, frame = 0
 560              		@ frame_needed = 0, uses_anonymous_args = 0
 561              		@ link register save eliminated.
 523:Drivers/STM32G0xx_HAL_Driver/Src/stm32g0xx_hal_pwr.c ****   /* Clear SEVONPEND bit of Cortex System Control Register */
 524:Drivers/STM32G0xx_HAL_Driver/Src/stm32g0xx_hal_pwr.c ****   CLEAR_BIT(SCB->SCR, ((uint32_t)SCB_SCR_SEVONPEND_Msk));
 562              		.loc 1 524 3 view .LVU99
 563 0000 1021     		movs	r1, #16
 525:Drivers/STM32G0xx_HAL_Driver/Src/stm32g0xx_hal_pwr.c **** }
 564              		.loc 1 525 1 is_stmt 0 view .LVU100
 565              		@ sp needed
 524:Drivers/STM32G0xx_HAL_Driver/Src/stm32g0xx_hal_pwr.c **** }
 566              		.loc 1 524 3 view .LVU101
 567 0002 024A     		ldr	r2, .L49
 568 0004 1369     		ldr	r3, [r2, #16]
 569 0006 8B43     		bics	r3, r1
 570 0008 1361     		str	r3, [r2, #16]
 571              		.loc 1 525 1 view .LVU102
 572 000a 7047     		bx	lr
 573              	.L50:
 574              		.align	2
 575              	.L49:
 576 000c 00ED00E0 		.word	-536810240
 577              		.cfi_endproc
 578              	.LFE431:
 580              		.text
 581              	.Letext0:
 582              		.file 2 "/usr/arm-none-eabi/include/machine/_default_types.h"
 583              		.file 3 "/usr/arm-none-eabi/include/sys/_stdint.h"
 584              		.file 4 "Drivers/CMSIS/Include/core_cm0plus.h"
 585              		.file 5 "Drivers/CMSIS/Device/ST/STM32G0xx/Include/stm32g030xx.h"
 586              		.file 6 "Drivers/STM32G0xx_HAL_Driver/Inc/stm32g0xx_hal_def.h"
 587              		.file 7 "Drivers/STM32G0xx_HAL_Driver/Inc/stm32g0xx_ll_dma.h"
 588              		.file 8 "Drivers/STM32G0xx_HAL_Driver/Inc/stm32g0xx_hal_pwr_ex.h"
ARM GAS  /tmp/cclXc8d7.s 			page 21

