ARM GAS  /tmp/ccheJOBr.s 			page 1


   1              		.cpu cortex-m0plus
   2              		.arch armv6s-m
   3              		.fpu softvfp
   4              		.eabi_attribute 20, 1
   5              		.eabi_attribute 21, 1
   6              		.eabi_attribute 23, 3
   7              		.eabi_attribute 24, 1
   8              		.eabi_attribute 25, 1
   9              		.eabi_attribute 26, 1
  10              		.eabi_attribute 30, 4
  11              		.eabi_attribute 34, 0
  12              		.eabi_attribute 18, 4
  13              		.file	"stm32g0xx_hal_rcc.c"
  14              		.text
  15              	.Ltext0:
  16              		.cfi_sections	.debug_frame
  17              		.file 1 "Drivers/STM32G0xx_HAL_Driver/Src/stm32g0xx_hal_rcc.c"
  18              		.section	.text.HAL_RCC_DeInit,"ax",%progbits
  19              		.align	1
  20              		.global	HAL_RCC_DeInit
  21              		.syntax unified
  22              		.code	16
  23              		.thumb_func
  25              	HAL_RCC_DeInit:
  26              	.LFB420:
   1:Drivers/STM32G0xx_HAL_Driver/Src/stm32g0xx_hal_rcc.c **** /**
   2:Drivers/STM32G0xx_HAL_Driver/Src/stm32g0xx_hal_rcc.c ****   ******************************************************************************
   3:Drivers/STM32G0xx_HAL_Driver/Src/stm32g0xx_hal_rcc.c ****   * @file    stm32g0xx_hal_rcc.c
   4:Drivers/STM32G0xx_HAL_Driver/Src/stm32g0xx_hal_rcc.c ****   * @author  MCD Application Team
   5:Drivers/STM32G0xx_HAL_Driver/Src/stm32g0xx_hal_rcc.c ****   * @brief   RCC HAL module driver.
   6:Drivers/STM32G0xx_HAL_Driver/Src/stm32g0xx_hal_rcc.c ****   *          This file provides firmware functions to manage the following
   7:Drivers/STM32G0xx_HAL_Driver/Src/stm32g0xx_hal_rcc.c ****   *          functionalities of the Reset and Clock Control (RCC) peripheral:
   8:Drivers/STM32G0xx_HAL_Driver/Src/stm32g0xx_hal_rcc.c ****   *           + Initialization and de-initialization functions
   9:Drivers/STM32G0xx_HAL_Driver/Src/stm32g0xx_hal_rcc.c ****   *           + Peripheral Control functions
  10:Drivers/STM32G0xx_HAL_Driver/Src/stm32g0xx_hal_rcc.c ****   *
  11:Drivers/STM32G0xx_HAL_Driver/Src/stm32g0xx_hal_rcc.c ****   @verbatim
  12:Drivers/STM32G0xx_HAL_Driver/Src/stm32g0xx_hal_rcc.c ****   ==============================================================================
  13:Drivers/STM32G0xx_HAL_Driver/Src/stm32g0xx_hal_rcc.c ****                       ##### RCC specific features #####
  14:Drivers/STM32G0xx_HAL_Driver/Src/stm32g0xx_hal_rcc.c ****   ==============================================================================
  15:Drivers/STM32G0xx_HAL_Driver/Src/stm32g0xx_hal_rcc.c ****     [..]
  16:Drivers/STM32G0xx_HAL_Driver/Src/stm32g0xx_hal_rcc.c ****       After reset the device is running from High Speed Internal oscillator
  17:Drivers/STM32G0xx_HAL_Driver/Src/stm32g0xx_hal_rcc.c ****       (from 8 MHz to reach 16MHz) with Flash 0 wait state. Flash prefetch buffer,
  18:Drivers/STM32G0xx_HAL_Driver/Src/stm32g0xx_hal_rcc.c ****       D-Cache and I-Cache are disabled, and all peripherals are off except internal
  19:Drivers/STM32G0xx_HAL_Driver/Src/stm32g0xx_hal_rcc.c ****       SRAM, Flash and JTAG.
  20:Drivers/STM32G0xx_HAL_Driver/Src/stm32g0xx_hal_rcc.c **** 
  21:Drivers/STM32G0xx_HAL_Driver/Src/stm32g0xx_hal_rcc.c ****       (+) There is no prescaler on High speed (AHB) and Low speed (APB) buses:
  22:Drivers/STM32G0xx_HAL_Driver/Src/stm32g0xx_hal_rcc.c ****           all peripherals mapped on these buses are running at HSI speed.
  23:Drivers/STM32G0xx_HAL_Driver/Src/stm32g0xx_hal_rcc.c ****       (+) The clock for all peripherals is switched off, except the SRAM and FLASH.
  24:Drivers/STM32G0xx_HAL_Driver/Src/stm32g0xx_hal_rcc.c ****       (+) All GPIOs are in analog mode, except the JTAG pins which
  25:Drivers/STM32G0xx_HAL_Driver/Src/stm32g0xx_hal_rcc.c ****           are assigned to be used for debug purpose.
  26:Drivers/STM32G0xx_HAL_Driver/Src/stm32g0xx_hal_rcc.c **** 
  27:Drivers/STM32G0xx_HAL_Driver/Src/stm32g0xx_hal_rcc.c ****     [..]
  28:Drivers/STM32G0xx_HAL_Driver/Src/stm32g0xx_hal_rcc.c ****       Once the device started from reset, the user application has to:
  29:Drivers/STM32G0xx_HAL_Driver/Src/stm32g0xx_hal_rcc.c ****       (+) Configure the clock source to be used to drive the System clock
  30:Drivers/STM32G0xx_HAL_Driver/Src/stm32g0xx_hal_rcc.c ****           (if the application needs higher frequency/performance)
  31:Drivers/STM32G0xx_HAL_Driver/Src/stm32g0xx_hal_rcc.c ****       (+) Configure the System clock frequency and Flash settings
  32:Drivers/STM32G0xx_HAL_Driver/Src/stm32g0xx_hal_rcc.c ****       (+) Configure the AHB and APB buses prescalers
ARM GAS  /tmp/ccheJOBr.s 			page 2


  33:Drivers/STM32G0xx_HAL_Driver/Src/stm32g0xx_hal_rcc.c ****       (+) Enable the clock for the peripheral(s) to be used
  34:Drivers/STM32G0xx_HAL_Driver/Src/stm32g0xx_hal_rcc.c ****       (+) Configure the clock source(s) for peripherals which clocks are not
  35:Drivers/STM32G0xx_HAL_Driver/Src/stm32g0xx_hal_rcc.c ****           derived from the System clock (RTC, ADC, RNG, HSTIM)
  36:Drivers/STM32G0xx_HAL_Driver/Src/stm32g0xx_hal_rcc.c **** 
  37:Drivers/STM32G0xx_HAL_Driver/Src/stm32g0xx_hal_rcc.c ****   @endverbatim
  38:Drivers/STM32G0xx_HAL_Driver/Src/stm32g0xx_hal_rcc.c ****   ******************************************************************************
  39:Drivers/STM32G0xx_HAL_Driver/Src/stm32g0xx_hal_rcc.c ****   * @attention
  40:Drivers/STM32G0xx_HAL_Driver/Src/stm32g0xx_hal_rcc.c ****   *
  41:Drivers/STM32G0xx_HAL_Driver/Src/stm32g0xx_hal_rcc.c ****   * Copyright (c) 2018 STMicroelectronics.
  42:Drivers/STM32G0xx_HAL_Driver/Src/stm32g0xx_hal_rcc.c ****   * All rights reserved.
  43:Drivers/STM32G0xx_HAL_Driver/Src/stm32g0xx_hal_rcc.c ****   *
  44:Drivers/STM32G0xx_HAL_Driver/Src/stm32g0xx_hal_rcc.c ****   * This software is licensed under terms that can be found in the LICENSE file in
  45:Drivers/STM32G0xx_HAL_Driver/Src/stm32g0xx_hal_rcc.c ****   * the root directory of this software component.
  46:Drivers/STM32G0xx_HAL_Driver/Src/stm32g0xx_hal_rcc.c ****   * If no LICENSE file comes with this software, it is provided AS-IS.
  47:Drivers/STM32G0xx_HAL_Driver/Src/stm32g0xx_hal_rcc.c ****   ******************************************************************************
  48:Drivers/STM32G0xx_HAL_Driver/Src/stm32g0xx_hal_rcc.c ****   */
  49:Drivers/STM32G0xx_HAL_Driver/Src/stm32g0xx_hal_rcc.c **** 
  50:Drivers/STM32G0xx_HAL_Driver/Src/stm32g0xx_hal_rcc.c **** /* Includes ------------------------------------------------------------------*/
  51:Drivers/STM32G0xx_HAL_Driver/Src/stm32g0xx_hal_rcc.c **** #include "stm32g0xx_hal.h"
  52:Drivers/STM32G0xx_HAL_Driver/Src/stm32g0xx_hal_rcc.c **** 
  53:Drivers/STM32G0xx_HAL_Driver/Src/stm32g0xx_hal_rcc.c **** /** @addtogroup STM32G0xx_HAL_Driver
  54:Drivers/STM32G0xx_HAL_Driver/Src/stm32g0xx_hal_rcc.c ****   * @{
  55:Drivers/STM32G0xx_HAL_Driver/Src/stm32g0xx_hal_rcc.c ****   */
  56:Drivers/STM32G0xx_HAL_Driver/Src/stm32g0xx_hal_rcc.c **** 
  57:Drivers/STM32G0xx_HAL_Driver/Src/stm32g0xx_hal_rcc.c **** /** @defgroup RCC RCC
  58:Drivers/STM32G0xx_HAL_Driver/Src/stm32g0xx_hal_rcc.c ****   * @brief RCC HAL module driver
  59:Drivers/STM32G0xx_HAL_Driver/Src/stm32g0xx_hal_rcc.c ****   * @{
  60:Drivers/STM32G0xx_HAL_Driver/Src/stm32g0xx_hal_rcc.c ****   */
  61:Drivers/STM32G0xx_HAL_Driver/Src/stm32g0xx_hal_rcc.c **** 
  62:Drivers/STM32G0xx_HAL_Driver/Src/stm32g0xx_hal_rcc.c **** #ifdef HAL_RCC_MODULE_ENABLED
  63:Drivers/STM32G0xx_HAL_Driver/Src/stm32g0xx_hal_rcc.c **** 
  64:Drivers/STM32G0xx_HAL_Driver/Src/stm32g0xx_hal_rcc.c **** /* Private typedef -----------------------------------------------------------*/
  65:Drivers/STM32G0xx_HAL_Driver/Src/stm32g0xx_hal_rcc.c **** /* Private define ------------------------------------------------------------*/
  66:Drivers/STM32G0xx_HAL_Driver/Src/stm32g0xx_hal_rcc.c **** /** @defgroup RCC_Private_Constants RCC Private Constants
  67:Drivers/STM32G0xx_HAL_Driver/Src/stm32g0xx_hal_rcc.c ****   * @{
  68:Drivers/STM32G0xx_HAL_Driver/Src/stm32g0xx_hal_rcc.c ****   */
  69:Drivers/STM32G0xx_HAL_Driver/Src/stm32g0xx_hal_rcc.c **** #define HSE_TIMEOUT_VALUE          HSE_STARTUP_TIMEOUT
  70:Drivers/STM32G0xx_HAL_Driver/Src/stm32g0xx_hal_rcc.c **** #define HSI_TIMEOUT_VALUE          (2U)    /* 2 ms (minimum Tick + 1) */
  71:Drivers/STM32G0xx_HAL_Driver/Src/stm32g0xx_hal_rcc.c **** #define LSI_TIMEOUT_VALUE          (2U)    /* 2 ms (minimum Tick + 1) */
  72:Drivers/STM32G0xx_HAL_Driver/Src/stm32g0xx_hal_rcc.c **** #define PLL_TIMEOUT_VALUE          (2U)    /* 2 ms (minimum Tick + 1) */
  73:Drivers/STM32G0xx_HAL_Driver/Src/stm32g0xx_hal_rcc.c **** 
  74:Drivers/STM32G0xx_HAL_Driver/Src/stm32g0xx_hal_rcc.c **** #if defined(RCC_HSI48_SUPPORT)
  75:Drivers/STM32G0xx_HAL_Driver/Src/stm32g0xx_hal_rcc.c **** #define HSI48_TIMEOUT_VALUE        (2U)    /* 2 ms (minimum Tick + 1) */
  76:Drivers/STM32G0xx_HAL_Driver/Src/stm32g0xx_hal_rcc.c **** #endif /* RCC_HSI48_SUPPORT */
  77:Drivers/STM32G0xx_HAL_Driver/Src/stm32g0xx_hal_rcc.c **** #define CLOCKSWITCH_TIMEOUT_VALUE  (5000U) /* 5 s    */
  78:Drivers/STM32G0xx_HAL_Driver/Src/stm32g0xx_hal_rcc.c **** 
  79:Drivers/STM32G0xx_HAL_Driver/Src/stm32g0xx_hal_rcc.c **** #define PLLSOURCE_NONE             (0U)
  80:Drivers/STM32G0xx_HAL_Driver/Src/stm32g0xx_hal_rcc.c **** /**
  81:Drivers/STM32G0xx_HAL_Driver/Src/stm32g0xx_hal_rcc.c ****   * @}
  82:Drivers/STM32G0xx_HAL_Driver/Src/stm32g0xx_hal_rcc.c ****   */
  83:Drivers/STM32G0xx_HAL_Driver/Src/stm32g0xx_hal_rcc.c **** 
  84:Drivers/STM32G0xx_HAL_Driver/Src/stm32g0xx_hal_rcc.c **** /* Private macro -------------------------------------------------------------*/
  85:Drivers/STM32G0xx_HAL_Driver/Src/stm32g0xx_hal_rcc.c **** /** @defgroup RCC_Private_Macros RCC Private Macros
  86:Drivers/STM32G0xx_HAL_Driver/Src/stm32g0xx_hal_rcc.c ****   * @{
  87:Drivers/STM32G0xx_HAL_Driver/Src/stm32g0xx_hal_rcc.c ****   */
  88:Drivers/STM32G0xx_HAL_Driver/Src/stm32g0xx_hal_rcc.c **** #define MCO1_CLK_ENABLE()     __HAL_RCC_GPIOA_CLK_ENABLE()
  89:Drivers/STM32G0xx_HAL_Driver/Src/stm32g0xx_hal_rcc.c **** #define MCO1_GPIO_PORT        GPIOA
ARM GAS  /tmp/ccheJOBr.s 			page 3


  90:Drivers/STM32G0xx_HAL_Driver/Src/stm32g0xx_hal_rcc.c **** #define MCO1_PIN              GPIO_PIN_8
  91:Drivers/STM32G0xx_HAL_Driver/Src/stm32g0xx_hal_rcc.c **** 
  92:Drivers/STM32G0xx_HAL_Driver/Src/stm32g0xx_hal_rcc.c **** #if defined(RCC_MCO2_SUPPORT)
  93:Drivers/STM32G0xx_HAL_Driver/Src/stm32g0xx_hal_rcc.c **** #define MCO2_CLK_ENABLE()    __HAL_RCC_GPIOA_CLK_ENABLE()
  94:Drivers/STM32G0xx_HAL_Driver/Src/stm32g0xx_hal_rcc.c **** #define MCO2_GPIO_PORT        GPIOA
  95:Drivers/STM32G0xx_HAL_Driver/Src/stm32g0xx_hal_rcc.c **** #define MCO2_PIN              GPIO_PIN_10
  96:Drivers/STM32G0xx_HAL_Driver/Src/stm32g0xx_hal_rcc.c **** #endif /* RCC_MCO2_SUPPORT */
  97:Drivers/STM32G0xx_HAL_Driver/Src/stm32g0xx_hal_rcc.c **** 
  98:Drivers/STM32G0xx_HAL_Driver/Src/stm32g0xx_hal_rcc.c **** #define RCC_PLL_OSCSOURCE_CONFIG(__HAL_RCC_PLLSOURCE__) \
  99:Drivers/STM32G0xx_HAL_Driver/Src/stm32g0xx_hal_rcc.c ****   (MODIFY_REG(RCC->PLLCFGR, RCC_PLLCFGR_PLLSRC, (uint32_t)(__HAL_RCC_PLLSOURCE__)))
 100:Drivers/STM32G0xx_HAL_Driver/Src/stm32g0xx_hal_rcc.c **** /**
 101:Drivers/STM32G0xx_HAL_Driver/Src/stm32g0xx_hal_rcc.c ****   * @}
 102:Drivers/STM32G0xx_HAL_Driver/Src/stm32g0xx_hal_rcc.c ****   */
 103:Drivers/STM32G0xx_HAL_Driver/Src/stm32g0xx_hal_rcc.c **** 
 104:Drivers/STM32G0xx_HAL_Driver/Src/stm32g0xx_hal_rcc.c **** /* Private variables ---------------------------------------------------------*/
 105:Drivers/STM32G0xx_HAL_Driver/Src/stm32g0xx_hal_rcc.c **** /** @defgroup RCC_Private_Variables RCC Private Variables
 106:Drivers/STM32G0xx_HAL_Driver/Src/stm32g0xx_hal_rcc.c ****   * @{
 107:Drivers/STM32G0xx_HAL_Driver/Src/stm32g0xx_hal_rcc.c ****   */
 108:Drivers/STM32G0xx_HAL_Driver/Src/stm32g0xx_hal_rcc.c **** 
 109:Drivers/STM32G0xx_HAL_Driver/Src/stm32g0xx_hal_rcc.c **** /**
 110:Drivers/STM32G0xx_HAL_Driver/Src/stm32g0xx_hal_rcc.c ****   * @}
 111:Drivers/STM32G0xx_HAL_Driver/Src/stm32g0xx_hal_rcc.c ****   */
 112:Drivers/STM32G0xx_HAL_Driver/Src/stm32g0xx_hal_rcc.c **** 
 113:Drivers/STM32G0xx_HAL_Driver/Src/stm32g0xx_hal_rcc.c **** /* Private function prototypes -----------------------------------------------*/
 114:Drivers/STM32G0xx_HAL_Driver/Src/stm32g0xx_hal_rcc.c **** /* Exported functions --------------------------------------------------------*/
 115:Drivers/STM32G0xx_HAL_Driver/Src/stm32g0xx_hal_rcc.c **** 
 116:Drivers/STM32G0xx_HAL_Driver/Src/stm32g0xx_hal_rcc.c **** /** @defgroup RCC_Exported_Functions RCC Exported Functions
 117:Drivers/STM32G0xx_HAL_Driver/Src/stm32g0xx_hal_rcc.c ****   * @{
 118:Drivers/STM32G0xx_HAL_Driver/Src/stm32g0xx_hal_rcc.c ****   */
 119:Drivers/STM32G0xx_HAL_Driver/Src/stm32g0xx_hal_rcc.c **** 
 120:Drivers/STM32G0xx_HAL_Driver/Src/stm32g0xx_hal_rcc.c **** /** @defgroup RCC_Exported_Functions_Group1 Initialization and de-initialization functions
 121:Drivers/STM32G0xx_HAL_Driver/Src/stm32g0xx_hal_rcc.c ****   *  @brief    Initialization and Configuration functions
 122:Drivers/STM32G0xx_HAL_Driver/Src/stm32g0xx_hal_rcc.c ****   *
 123:Drivers/STM32G0xx_HAL_Driver/Src/stm32g0xx_hal_rcc.c ****   @verbatim
 124:Drivers/STM32G0xx_HAL_Driver/Src/stm32g0xx_hal_rcc.c ****  ===============================================================================
 125:Drivers/STM32G0xx_HAL_Driver/Src/stm32g0xx_hal_rcc.c ****            ##### Initialization and de-initialization functions #####
 126:Drivers/STM32G0xx_HAL_Driver/Src/stm32g0xx_hal_rcc.c ****  ===============================================================================
 127:Drivers/STM32G0xx_HAL_Driver/Src/stm32g0xx_hal_rcc.c ****     [..]
 128:Drivers/STM32G0xx_HAL_Driver/Src/stm32g0xx_hal_rcc.c ****       This section provides functions allowing to configure the internal and external oscillators
 129:Drivers/STM32G0xx_HAL_Driver/Src/stm32g0xx_hal_rcc.c ****       (HSE, HSI, LSE, LSI, PLL, CSS and MCO) and the System buses clocks (SYSCLK, AHB, APB)
 130:Drivers/STM32G0xx_HAL_Driver/Src/stm32g0xx_hal_rcc.c **** 
 131:Drivers/STM32G0xx_HAL_Driver/Src/stm32g0xx_hal_rcc.c ****     [..] Internal/external clock and PLL configuration
 132:Drivers/STM32G0xx_HAL_Driver/Src/stm32g0xx_hal_rcc.c ****          (+) HSI (high-speed internal): 16 MHz factory-trimmed RC used directly or through
 133:Drivers/STM32G0xx_HAL_Driver/Src/stm32g0xx_hal_rcc.c ****              the PLL as System clock source.
 134:Drivers/STM32G0xx_HAL_Driver/Src/stm32g0xx_hal_rcc.c **** 
 135:Drivers/STM32G0xx_HAL_Driver/Src/stm32g0xx_hal_rcc.c ****          (+) LSI (low-speed internal): 32 KHz low consumption RC used as IWDG and/or RTC
 136:Drivers/STM32G0xx_HAL_Driver/Src/stm32g0xx_hal_rcc.c ****              clock source.
 137:Drivers/STM32G0xx_HAL_Driver/Src/stm32g0xx_hal_rcc.c **** 
 138:Drivers/STM32G0xx_HAL_Driver/Src/stm32g0xx_hal_rcc.c ****          (+) HSE (high-speed external): 4 to 48 MHz crystal oscillator used directly or
 139:Drivers/STM32G0xx_HAL_Driver/Src/stm32g0xx_hal_rcc.c ****              through the PLL as System clock source. Can be used also optionally as RTC clock sourc
 140:Drivers/STM32G0xx_HAL_Driver/Src/stm32g0xx_hal_rcc.c **** 
 141:Drivers/STM32G0xx_HAL_Driver/Src/stm32g0xx_hal_rcc.c ****          (+) LSE (low-speed external): 32.768 KHz oscillator used optionally as RTC clock source.
 142:Drivers/STM32G0xx_HAL_Driver/Src/stm32g0xx_hal_rcc.c **** 
 143:Drivers/STM32G0xx_HAL_Driver/Src/stm32g0xx_hal_rcc.c ****          (+) PLL (clocked by HSI, HSE) providing up to three independent output clocks:
 144:Drivers/STM32G0xx_HAL_Driver/Src/stm32g0xx_hal_rcc.c ****            (++) The first output (R) is used to generate the high speed system clock (up to 64MHz).
 145:Drivers/STM32G0xx_HAL_Driver/Src/stm32g0xx_hal_rcc.c ****            (++) The second output(Q) is used to generate the clock for the random analog generator 
 146:Drivers/STM32G0xx_HAL_Driver/Src/stm32g0xx_hal_rcc.c ****            (++) The Third output (P) is used to generate the clock for the Analog to Digital Conver
ARM GAS  /tmp/ccheJOBr.s 			page 4


 147:Drivers/STM32G0xx_HAL_Driver/Src/stm32g0xx_hal_rcc.c **** 
 148:Drivers/STM32G0xx_HAL_Driver/Src/stm32g0xx_hal_rcc.c ****          (+) CSS (Clock security system): once enabled, if a HSE or LSE clock failure occurs
 149:Drivers/STM32G0xx_HAL_Driver/Src/stm32g0xx_hal_rcc.c ****             (HSE used directly or through PLL as System clock source), the System clock
 150:Drivers/STM32G0xx_HAL_Driver/Src/stm32g0xx_hal_rcc.c ****              is automatically switched respectively to HSI or LSI and an interrupt is generated
 151:Drivers/STM32G0xx_HAL_Driver/Src/stm32g0xx_hal_rcc.c ****              if enabled. The interrupt is linked to the Cortex-M0+ NMI (Non-Maskable Interrupt)
 152:Drivers/STM32G0xx_HAL_Driver/Src/stm32g0xx_hal_rcc.c ****              exception vector.
 153:Drivers/STM32G0xx_HAL_Driver/Src/stm32g0xx_hal_rcc.c **** 
 154:Drivers/STM32G0xx_HAL_Driver/Src/stm32g0xx_hal_rcc.c ****          (+) MCOx (microcontroller clock output):
 155:Drivers/STM32G0xx_HAL_Driver/Src/stm32g0xx_hal_rcc.c ****              (++) MCO1 used to output LSI, HSI48(*), HSI, LSE, HSE or main PLL clock (through a con
 156:Drivers/STM32G0xx_HAL_Driver/Src/stm32g0xx_hal_rcc.c ****              (++) MCO2(*) used to output LSI, HSI48(*), HSI, LSE, HSE, main PLLR clock, PLLQ clock,
 157:Drivers/STM32G0xx_HAL_Driver/Src/stm32g0xx_hal_rcc.c ****                  (*) available on certain devices only
 158:Drivers/STM32G0xx_HAL_Driver/Src/stm32g0xx_hal_rcc.c **** 
 159:Drivers/STM32G0xx_HAL_Driver/Src/stm32g0xx_hal_rcc.c ****     [..] System, AHB and APB buses clocks configuration
 160:Drivers/STM32G0xx_HAL_Driver/Src/stm32g0xx_hal_rcc.c ****          (+) Several clock sources can be used to drive the System clock (SYSCLK): HSI,
 161:Drivers/STM32G0xx_HAL_Driver/Src/stm32g0xx_hal_rcc.c ****              HSE, LSI, LSE and main PLL.
 162:Drivers/STM32G0xx_HAL_Driver/Src/stm32g0xx_hal_rcc.c ****              The AHB clock (HCLK) is derived from System clock through configurable
 163:Drivers/STM32G0xx_HAL_Driver/Src/stm32g0xx_hal_rcc.c ****              prescaler and used to clock the CPU, memory and peripherals mapped
 164:Drivers/STM32G0xx_HAL_Driver/Src/stm32g0xx_hal_rcc.c ****              on AHB bus (DMA, GPIO...).and APB (PCLK1) clock is derived
 165:Drivers/STM32G0xx_HAL_Driver/Src/stm32g0xx_hal_rcc.c ****              from AHB clock through configurable prescalers and used to clock
 166:Drivers/STM32G0xx_HAL_Driver/Src/stm32g0xx_hal_rcc.c ****              the peripherals mapped on these buses. You can use
 167:Drivers/STM32G0xx_HAL_Driver/Src/stm32g0xx_hal_rcc.c ****              "HAL_RCC_GetSysClockFreq()" function to retrieve the frequencies of these clocks.
 168:Drivers/STM32G0xx_HAL_Driver/Src/stm32g0xx_hal_rcc.c **** 
 169:Drivers/STM32G0xx_HAL_Driver/Src/stm32g0xx_hal_rcc.c ****          -@- All the peripheral clocks are derived from the System clock (SYSCLK) except:
 170:Drivers/STM32G0xx_HAL_Driver/Src/stm32g0xx_hal_rcc.c **** 
 171:Drivers/STM32G0xx_HAL_Driver/Src/stm32g0xx_hal_rcc.c ****             (+@) RTC: the RTC clock can be derived either from the LSI, LSE or HSE clock
 172:Drivers/STM32G0xx_HAL_Driver/Src/stm32g0xx_hal_rcc.c ****                 divided by 2 to 31.
 173:Drivers/STM32G0xx_HAL_Driver/Src/stm32g0xx_hal_rcc.c ****                 You have to use __HAL_RCC_RTC_ENABLE() and HAL_RCCEx_PeriphCLKConfig() function
 174:Drivers/STM32G0xx_HAL_Driver/Src/stm32g0xx_hal_rcc.c ****                  to configure this clock.
 175:Drivers/STM32G0xx_HAL_Driver/Src/stm32g0xx_hal_rcc.c **** 
 176:Drivers/STM32G0xx_HAL_Driver/Src/stm32g0xx_hal_rcc.c ****             (+@) RNG(*) requires a frequency equal or lower than 48 MHz.
 177:Drivers/STM32G0xx_HAL_Driver/Src/stm32g0xx_hal_rcc.c ****                  This clock is derived from the main PLL or HSI or System clock.
 178:Drivers/STM32G0xx_HAL_Driver/Src/stm32g0xx_hal_rcc.c ****                  (*) available on certain devices only
 179:Drivers/STM32G0xx_HAL_Driver/Src/stm32g0xx_hal_rcc.c **** 
 180:Drivers/STM32G0xx_HAL_Driver/Src/stm32g0xx_hal_rcc.c ****             (+@) IWDG clock which is always the LSI clock.
 181:Drivers/STM32G0xx_HAL_Driver/Src/stm32g0xx_hal_rcc.c **** 
 182:Drivers/STM32G0xx_HAL_Driver/Src/stm32g0xx_hal_rcc.c **** 
 183:Drivers/STM32G0xx_HAL_Driver/Src/stm32g0xx_hal_rcc.c ****          (+) The maximum frequency of the SYSCLK, HCLK, PCLK is 64 MHz.
 184:Drivers/STM32G0xx_HAL_Driver/Src/stm32g0xx_hal_rcc.c ****              Depending on the device voltage range, the maximum frequency should be
 185:Drivers/STM32G0xx_HAL_Driver/Src/stm32g0xx_hal_rcc.c ****              adapted accordingly.
 186:Drivers/STM32G0xx_HAL_Driver/Src/stm32g0xx_hal_rcc.c **** 
 187:Drivers/STM32G0xx_HAL_Driver/Src/stm32g0xx_hal_rcc.c ****   @endverbatim
 188:Drivers/STM32G0xx_HAL_Driver/Src/stm32g0xx_hal_rcc.c **** 
 189:Drivers/STM32G0xx_HAL_Driver/Src/stm32g0xx_hal_rcc.c ****      (++)  Table 1. HCLK clock frequency.
 190:Drivers/STM32G0xx_HAL_Driver/Src/stm32g0xx_hal_rcc.c ****      (++)  +-------------------------------------------------------+
 191:Drivers/STM32G0xx_HAL_Driver/Src/stm32g0xx_hal_rcc.c ****      (++)  | Latency         |    HCLK clock frequency (MHz)       |
 192:Drivers/STM32G0xx_HAL_Driver/Src/stm32g0xx_hal_rcc.c ****      (++)  |                 |-------------------------------------|
 193:Drivers/STM32G0xx_HAL_Driver/Src/stm32g0xx_hal_rcc.c ****      (++)  |                 | voltage range 1  | voltage range 2  |
 194:Drivers/STM32G0xx_HAL_Driver/Src/stm32g0xx_hal_rcc.c ****      (++)  |                 |      1.2 V       |     1.0 V        |
 195:Drivers/STM32G0xx_HAL_Driver/Src/stm32g0xx_hal_rcc.c ****      (++)  |-----------------|------------------|------------------|
 196:Drivers/STM32G0xx_HAL_Driver/Src/stm32g0xx_hal_rcc.c ****      (++)  |0WS(1 CPU cycles)|  HCLK <= 24      |  HCLK <= 8       |
 197:Drivers/STM32G0xx_HAL_Driver/Src/stm32g0xx_hal_rcc.c ****      (++)  |-----------------|------------------|------------------|
 198:Drivers/STM32G0xx_HAL_Driver/Src/stm32g0xx_hal_rcc.c ****      (++)  |1WS(2 CPU cycles)|  HCLK <= 48      |  HCLK <= 16      |
 199:Drivers/STM32G0xx_HAL_Driver/Src/stm32g0xx_hal_rcc.c ****      (++)  |-----------------|------------------|------------------|
 200:Drivers/STM32G0xx_HAL_Driver/Src/stm32g0xx_hal_rcc.c ****      (++)  |2WS(3 CPU cycles)|  HCLK <= 64      |           -      |
 201:Drivers/STM32G0xx_HAL_Driver/Src/stm32g0xx_hal_rcc.c ****      (++)  |-----------------|------------------|------------------|
 202:Drivers/STM32G0xx_HAL_Driver/Src/stm32g0xx_hal_rcc.c ****    * @{
 203:Drivers/STM32G0xx_HAL_Driver/Src/stm32g0xx_hal_rcc.c ****   */
ARM GAS  /tmp/ccheJOBr.s 			page 5


 204:Drivers/STM32G0xx_HAL_Driver/Src/stm32g0xx_hal_rcc.c **** 
 205:Drivers/STM32G0xx_HAL_Driver/Src/stm32g0xx_hal_rcc.c **** /**
 206:Drivers/STM32G0xx_HAL_Driver/Src/stm32g0xx_hal_rcc.c ****   * @brief  Reset the RCC clock configuration to the default reset state.
 207:Drivers/STM32G0xx_HAL_Driver/Src/stm32g0xx_hal_rcc.c ****   * @note   The default reset state of the clock configuration is given below:
 208:Drivers/STM32G0xx_HAL_Driver/Src/stm32g0xx_hal_rcc.c ****   *            - HSI ON and used as system clock source
 209:Drivers/STM32G0xx_HAL_Driver/Src/stm32g0xx_hal_rcc.c ****   *            - HSE, PLL OFF
 210:Drivers/STM32G0xx_HAL_Driver/Src/stm32g0xx_hal_rcc.c ****   *            - AHB and APB prescaler set to 1.
 211:Drivers/STM32G0xx_HAL_Driver/Src/stm32g0xx_hal_rcc.c ****   *            - CSS, MCO1 OFF
 212:Drivers/STM32G0xx_HAL_Driver/Src/stm32g0xx_hal_rcc.c ****   *            - All interrupts disabled
 213:Drivers/STM32G0xx_HAL_Driver/Src/stm32g0xx_hal_rcc.c ****   * @note   This function does not modify the configuration of the
 214:Drivers/STM32G0xx_HAL_Driver/Src/stm32g0xx_hal_rcc.c ****   *            - Peripheral clocks
 215:Drivers/STM32G0xx_HAL_Driver/Src/stm32g0xx_hal_rcc.c ****   *            - LSI, LSE and RTC clocks
 216:Drivers/STM32G0xx_HAL_Driver/Src/stm32g0xx_hal_rcc.c ****   * @retval HAL status
 217:Drivers/STM32G0xx_HAL_Driver/Src/stm32g0xx_hal_rcc.c ****   */
 218:Drivers/STM32G0xx_HAL_Driver/Src/stm32g0xx_hal_rcc.c **** HAL_StatusTypeDef HAL_RCC_DeInit(void)
 219:Drivers/STM32G0xx_HAL_Driver/Src/stm32g0xx_hal_rcc.c **** {
  27              		.loc 1 219 1 view -0
  28              		.cfi_startproc
  29              		@ args = 0, pretend = 0, frame = 0
  30              		@ frame_needed = 0, uses_anonymous_args = 0
 220:Drivers/STM32G0xx_HAL_Driver/Src/stm32g0xx_hal_rcc.c ****   uint32_t tickstart;
  31              		.loc 1 220 3 view .LVU1
 221:Drivers/STM32G0xx_HAL_Driver/Src/stm32g0xx_hal_rcc.c **** 
 222:Drivers/STM32G0xx_HAL_Driver/Src/stm32g0xx_hal_rcc.c ****   /* Get Start Tick*/
 223:Drivers/STM32G0xx_HAL_Driver/Src/stm32g0xx_hal_rcc.c ****   tickstart = HAL_GetTick();
  32              		.loc 1 223 3 view .LVU2
 219:Drivers/STM32G0xx_HAL_Driver/Src/stm32g0xx_hal_rcc.c ****   uint32_t tickstart;
  33              		.loc 1 219 1 is_stmt 0 view .LVU3
  34 0000 70B5     		push	{r4, r5, r6, lr}
  35              	.LCFI0:
  36              		.cfi_def_cfa_offset 16
  37              		.cfi_offset 4, -16
  38              		.cfi_offset 5, -12
  39              		.cfi_offset 6, -8
  40              		.cfi_offset 14, -4
  41              		.loc 1 223 15 view .LVU4
  42 0002 FFF7FEFF 		bl	HAL_GetTick
  43              	.LVL0:
 224:Drivers/STM32G0xx_HAL_Driver/Src/stm32g0xx_hal_rcc.c **** 
 225:Drivers/STM32G0xx_HAL_Driver/Src/stm32g0xx_hal_rcc.c ****   /* Set HSION bit to the reset value */
 226:Drivers/STM32G0xx_HAL_Driver/Src/stm32g0xx_hal_rcc.c ****   SET_BIT(RCC->CR, RCC_CR_HSION);
  44              		.loc 1 226 3 view .LVU5
  45 0006 8023     		movs	r3, #128
 227:Drivers/STM32G0xx_HAL_Driver/Src/stm32g0xx_hal_rcc.c **** 
 228:Drivers/STM32G0xx_HAL_Driver/Src/stm32g0xx_hal_rcc.c ****   /* Wait till HSI is ready */
 229:Drivers/STM32G0xx_HAL_Driver/Src/stm32g0xx_hal_rcc.c ****   while (READ_BIT(RCC->CR, RCC_CR_HSIRDY) == 0U)
  46              		.loc 1 229 10 view .LVU6
  47 0008 8026     		movs	r6, #128
 223:Drivers/STM32G0xx_HAL_Driver/Src/stm32g0xx_hal_rcc.c **** 
  48              		.loc 1 223 15 view .LVU7
  49 000a 0500     		movs	r5, r0
  50              	.LVL1:
 226:Drivers/STM32G0xx_HAL_Driver/Src/stm32g0xx_hal_rcc.c **** 
  51              		.loc 1 226 3 is_stmt 1 view .LVU8
  52 000c 244C     		ldr	r4, .L11
  53 000e 5B00     		lsls	r3, r3, #1
  54 0010 2268     		ldr	r2, [r4]
ARM GAS  /tmp/ccheJOBr.s 			page 6


  55              		.loc 1 229 10 is_stmt 0 view .LVU9
  56 0012 F600     		lsls	r6, r6, #3
 226:Drivers/STM32G0xx_HAL_Driver/Src/stm32g0xx_hal_rcc.c **** 
  57              		.loc 1 226 3 view .LVU10
  58 0014 1343     		orrs	r3, r2
  59 0016 2360     		str	r3, [r4]
  60              		.loc 1 229 3 is_stmt 1 view .LVU11
  61              	.LVL2:
  62              	.L2:
  63              		.loc 1 229 43 view .LVU12
  64              		.loc 1 229 10 is_stmt 0 view .LVU13
  65 0018 2368     		ldr	r3, [r4]
  66              		.loc 1 229 43 view .LVU14
  67 001a 3342     		tst	r3, r6
  68 001c 2BD0     		beq	.L4
 230:Drivers/STM32G0xx_HAL_Driver/Src/stm32g0xx_hal_rcc.c ****   {
 231:Drivers/STM32G0xx_HAL_Driver/Src/stm32g0xx_hal_rcc.c ****     if ((HAL_GetTick() - tickstart) > HSI_TIMEOUT_VALUE)
 232:Drivers/STM32G0xx_HAL_Driver/Src/stm32g0xx_hal_rcc.c ****     {
 233:Drivers/STM32G0xx_HAL_Driver/Src/stm32g0xx_hal_rcc.c ****       return HAL_TIMEOUT;
 234:Drivers/STM32G0xx_HAL_Driver/Src/stm32g0xx_hal_rcc.c ****     }
 235:Drivers/STM32G0xx_HAL_Driver/Src/stm32g0xx_hal_rcc.c ****   }
 236:Drivers/STM32G0xx_HAL_Driver/Src/stm32g0xx_hal_rcc.c **** 
 237:Drivers/STM32G0xx_HAL_Driver/Src/stm32g0xx_hal_rcc.c ****   /* Set HSITRIM[6:0] bits to the reset value */
 238:Drivers/STM32G0xx_HAL_Driver/Src/stm32g0xx_hal_rcc.c ****   RCC->ICSCR = RCC_ICSCR_HSITRIM_6;
  69              		.loc 1 238 3 is_stmt 1 view .LVU15
  70              		.loc 1 238 14 is_stmt 0 view .LVU16
  71 001e 8023     		movs	r3, #128
  72 0020 DB01     		lsls	r3, r3, #7
  73 0022 6360     		str	r3, [r4, #4]
 239:Drivers/STM32G0xx_HAL_Driver/Src/stm32g0xx_hal_rcc.c **** 
 240:Drivers/STM32G0xx_HAL_Driver/Src/stm32g0xx_hal_rcc.c ****   /* Get Start Tick*/
 241:Drivers/STM32G0xx_HAL_Driver/Src/stm32g0xx_hal_rcc.c ****   tickstart = HAL_GetTick();
  74              		.loc 1 241 3 is_stmt 1 view .LVU17
  75              		.loc 1 241 15 is_stmt 0 view .LVU18
  76 0024 FFF7FEFF 		bl	HAL_GetTick
  77              	.LVL3:
 242:Drivers/STM32G0xx_HAL_Driver/Src/stm32g0xx_hal_rcc.c **** 
 243:Drivers/STM32G0xx_HAL_Driver/Src/stm32g0xx_hal_rcc.c ****   /* Reset CFGR register (HSI is selected as system clock source) */
 244:Drivers/STM32G0xx_HAL_Driver/Src/stm32g0xx_hal_rcc.c ****   RCC->CFGR = 0x00000000u;
  78              		.loc 1 244 13 view .LVU19
  79 0028 0023     		movs	r3, #0
 241:Drivers/STM32G0xx_HAL_Driver/Src/stm32g0xx_hal_rcc.c **** 
  80              		.loc 1 241 15 view .LVU20
  81 002a 0500     		movs	r5, r0
  82              	.LVL4:
  83              		.loc 1 244 3 is_stmt 1 view .LVU21
 245:Drivers/STM32G0xx_HAL_Driver/Src/stm32g0xx_hal_rcc.c **** 
 246:Drivers/STM32G0xx_HAL_Driver/Src/stm32g0xx_hal_rcc.c ****   /* Wait till HSI is ready */
 247:Drivers/STM32G0xx_HAL_Driver/Src/stm32g0xx_hal_rcc.c ****   while (READ_BIT(RCC->CFGR, RCC_CFGR_SWS) != 0U)
  84              		.loc 1 247 10 is_stmt 0 view .LVU22
  85 002c 3826     		movs	r6, #56
 244:Drivers/STM32G0xx_HAL_Driver/Src/stm32g0xx_hal_rcc.c **** 
  86              		.loc 1 244 13 view .LVU23
  87 002e A360     		str	r3, [r4, #8]
  88              		.loc 1 247 3 is_stmt 1 view .LVU24
  89              	.LVL5:
  90              	.L5:
ARM GAS  /tmp/ccheJOBr.s 			page 7


  91              		.loc 1 247 44 view .LVU25
  92              		.loc 1 247 10 is_stmt 0 view .LVU26
  93 0030 A368     		ldr	r3, [r4, #8]
  94              		.loc 1 247 44 view .LVU27
  95 0032 3342     		tst	r3, r6
  96 0034 26D1     		bne	.L7
 248:Drivers/STM32G0xx_HAL_Driver/Src/stm32g0xx_hal_rcc.c ****   {
 249:Drivers/STM32G0xx_HAL_Driver/Src/stm32g0xx_hal_rcc.c ****     if ((HAL_GetTick() - tickstart) > CLOCKSWITCH_TIMEOUT_VALUE)
 250:Drivers/STM32G0xx_HAL_Driver/Src/stm32g0xx_hal_rcc.c ****     {
 251:Drivers/STM32G0xx_HAL_Driver/Src/stm32g0xx_hal_rcc.c ****       return HAL_TIMEOUT;
 252:Drivers/STM32G0xx_HAL_Driver/Src/stm32g0xx_hal_rcc.c ****     }
 253:Drivers/STM32G0xx_HAL_Driver/Src/stm32g0xx_hal_rcc.c ****   }
 254:Drivers/STM32G0xx_HAL_Driver/Src/stm32g0xx_hal_rcc.c **** 
 255:Drivers/STM32G0xx_HAL_Driver/Src/stm32g0xx_hal_rcc.c ****   /* Clear CR register in 2 steps: first to clear HSEON in case bypass was enabled */
 256:Drivers/STM32G0xx_HAL_Driver/Src/stm32g0xx_hal_rcc.c ****   RCC->CR = RCC_CR_HSION;
  97              		.loc 1 256 3 is_stmt 1 view .LVU28
  98              		.loc 1 256 11 is_stmt 0 view .LVU29
  99 0036 8023     		movs	r3, #128
 100 0038 5B00     		lsls	r3, r3, #1
 101 003a 2360     		str	r3, [r4]
 257:Drivers/STM32G0xx_HAL_Driver/Src/stm32g0xx_hal_rcc.c **** 
 258:Drivers/STM32G0xx_HAL_Driver/Src/stm32g0xx_hal_rcc.c ****   /* Then again to HSEBYP in case bypass was enabled */
 259:Drivers/STM32G0xx_HAL_Driver/Src/stm32g0xx_hal_rcc.c ****   RCC->CR = RCC_CR_HSION;
 102              		.loc 1 259 3 is_stmt 1 view .LVU30
 103              		.loc 1 259 11 is_stmt 0 view .LVU31
 104 003c 2360     		str	r3, [r4]
 260:Drivers/STM32G0xx_HAL_Driver/Src/stm32g0xx_hal_rcc.c **** 
 261:Drivers/STM32G0xx_HAL_Driver/Src/stm32g0xx_hal_rcc.c ****   /* Get Start Tick*/
 262:Drivers/STM32G0xx_HAL_Driver/Src/stm32g0xx_hal_rcc.c ****   tickstart = HAL_GetTick();
 105              		.loc 1 262 3 is_stmt 1 view .LVU32
 106              		.loc 1 262 15 is_stmt 0 view .LVU33
 107 003e FFF7FEFF 		bl	HAL_GetTick
 108              	.LVL6:
 263:Drivers/STM32G0xx_HAL_Driver/Src/stm32g0xx_hal_rcc.c **** 
 264:Drivers/STM32G0xx_HAL_Driver/Src/stm32g0xx_hal_rcc.c ****   /* Wait till PLL is ready */
 265:Drivers/STM32G0xx_HAL_Driver/Src/stm32g0xx_hal_rcc.c ****   while (READ_BIT(RCC->CR, RCC_CR_PLLRDY) != 0U)
 109              		.loc 1 265 10 view .LVU34
 110 0042 8026     		movs	r6, #128
 262:Drivers/STM32G0xx_HAL_Driver/Src/stm32g0xx_hal_rcc.c **** 
 111              		.loc 1 262 15 view .LVU35
 112 0044 0500     		movs	r5, r0
 113              	.LVL7:
 114              		.loc 1 265 3 is_stmt 1 view .LVU36
 115              		.loc 1 265 10 is_stmt 0 view .LVU37
 116 0046 B604     		lsls	r6, r6, #18
 117              	.LVL8:
 118              	.L8:
 119              		.loc 1 265 43 is_stmt 1 view .LVU38
 120              		.loc 1 265 10 is_stmt 0 view .LVU39
 121 0048 2368     		ldr	r3, [r4]
 122 004a 1A00     		movs	r2, r3
 123 004c 3240     		ands	r2, r6
 124              		.loc 1 265 43 view .LVU40
 125 004e 3342     		tst	r3, r6
 126 0050 1FD1     		bne	.L9
 266:Drivers/STM32G0xx_HAL_Driver/Src/stm32g0xx_hal_rcc.c ****   {
 267:Drivers/STM32G0xx_HAL_Driver/Src/stm32g0xx_hal_rcc.c ****     if ((HAL_GetTick() - tickstart) > PLL_TIMEOUT_VALUE)
ARM GAS  /tmp/ccheJOBr.s 			page 8


 268:Drivers/STM32G0xx_HAL_Driver/Src/stm32g0xx_hal_rcc.c ****     {
 269:Drivers/STM32G0xx_HAL_Driver/Src/stm32g0xx_hal_rcc.c ****       return HAL_TIMEOUT;
 270:Drivers/STM32G0xx_HAL_Driver/Src/stm32g0xx_hal_rcc.c ****     }
 271:Drivers/STM32G0xx_HAL_Driver/Src/stm32g0xx_hal_rcc.c ****   }
 272:Drivers/STM32G0xx_HAL_Driver/Src/stm32g0xx_hal_rcc.c **** 
 273:Drivers/STM32G0xx_HAL_Driver/Src/stm32g0xx_hal_rcc.c ****   /* once PLL is OFF, reset PLLCFGR register to default value */
 274:Drivers/STM32G0xx_HAL_Driver/Src/stm32g0xx_hal_rcc.c ****   RCC->PLLCFGR = RCC_PLLCFGR_PLLN_4;
 127              		.loc 1 274 3 is_stmt 1 view .LVU41
 128              		.loc 1 274 16 is_stmt 0 view .LVU42
 129 0052 8023     		movs	r3, #128
 130 0054 5B01     		lsls	r3, r3, #5
 131 0056 E360     		str	r3, [r4, #12]
 275:Drivers/STM32G0xx_HAL_Driver/Src/stm32g0xx_hal_rcc.c **** 
 276:Drivers/STM32G0xx_HAL_Driver/Src/stm32g0xx_hal_rcc.c ****   /* Disable all interrupts */
 277:Drivers/STM32G0xx_HAL_Driver/Src/stm32g0xx_hal_rcc.c ****   RCC->CIER = 0x00000000u;
 132              		.loc 1 277 3 is_stmt 1 view .LVU43
 278:Drivers/STM32G0xx_HAL_Driver/Src/stm32g0xx_hal_rcc.c **** 
 279:Drivers/STM32G0xx_HAL_Driver/Src/stm32g0xx_hal_rcc.c ****   /* Clear all flags */
 280:Drivers/STM32G0xx_HAL_Driver/Src/stm32g0xx_hal_rcc.c ****   RCC->CICR = 0xFFFFFFFFu;
 133              		.loc 1 280 13 is_stmt 0 view .LVU44
 134 0058 0123     		movs	r3, #1
 135 005a 5B42     		rsbs	r3, r3, #0
 277:Drivers/STM32G0xx_HAL_Driver/Src/stm32g0xx_hal_rcc.c **** 
 136              		.loc 1 277 13 view .LVU45
 137 005c A261     		str	r2, [r4, #24]
 138              		.loc 1 280 3 is_stmt 1 view .LVU46
 139              		.loc 1 280 13 is_stmt 0 view .LVU47
 140 005e 2362     		str	r3, [r4, #32]
 281:Drivers/STM32G0xx_HAL_Driver/Src/stm32g0xx_hal_rcc.c **** 
 282:Drivers/STM32G0xx_HAL_Driver/Src/stm32g0xx_hal_rcc.c ****   /* Update the SystemCoreClock global variable */
 283:Drivers/STM32G0xx_HAL_Driver/Src/stm32g0xx_hal_rcc.c ****   SystemCoreClock = HSI_VALUE;
 141              		.loc 1 283 3 is_stmt 1 view .LVU48
 142              		.loc 1 283 19 is_stmt 0 view .LVU49
 143 0060 104A     		ldr	r2, .L11+4
 144 0062 114B     		ldr	r3, .L11+8
 145 0064 1A60     		str	r2, [r3]
 284:Drivers/STM32G0xx_HAL_Driver/Src/stm32g0xx_hal_rcc.c **** 
 285:Drivers/STM32G0xx_HAL_Driver/Src/stm32g0xx_hal_rcc.c ****   /* Adapt Systick interrupt period */
 286:Drivers/STM32G0xx_HAL_Driver/Src/stm32g0xx_hal_rcc.c ****   if (HAL_InitTick(uwTickPrio) != HAL_OK)
 146              		.loc 1 286 3 is_stmt 1 view .LVU50
 147              		.loc 1 286 7 is_stmt 0 view .LVU51
 148 0066 114B     		ldr	r3, .L11+12
 149 0068 1868     		ldr	r0, [r3]
 150 006a FFF7FEFF 		bl	HAL_InitTick
 151              	.LVL9:
 152              		.loc 1 286 6 discriminator 1 view .LVU52
 153 006e 431E     		subs	r3, r0, #1
 154 0070 9841     		sbcs	r0, r0, r3
 155 0072 C0B2     		uxtb	r0, r0
 156 0074 05E0     		b	.L3
 157              	.L4:
 231:Drivers/STM32G0xx_HAL_Driver/Src/stm32g0xx_hal_rcc.c ****     {
 158              		.loc 1 231 5 is_stmt 1 view .LVU53
 231:Drivers/STM32G0xx_HAL_Driver/Src/stm32g0xx_hal_rcc.c ****     {
 159              		.loc 1 231 10 is_stmt 0 view .LVU54
 160 0076 FFF7FEFF 		bl	HAL_GetTick
 161              	.LVL10:
ARM GAS  /tmp/ccheJOBr.s 			page 9


 231:Drivers/STM32G0xx_HAL_Driver/Src/stm32g0xx_hal_rcc.c ****     {
 162              		.loc 1 231 24 discriminator 1 view .LVU55
 163 007a 401B     		subs	r0, r0, r5
 231:Drivers/STM32G0xx_HAL_Driver/Src/stm32g0xx_hal_rcc.c ****     {
 164              		.loc 1 231 8 discriminator 1 view .LVU56
 165 007c 0228     		cmp	r0, #2
 166 007e CBD9     		bls	.L2
 167              	.L6:
 233:Drivers/STM32G0xx_HAL_Driver/Src/stm32g0xx_hal_rcc.c ****     }
 168              		.loc 1 233 14 view .LVU57
 169 0080 0320     		movs	r0, #3
 170              	.L3:
 287:Drivers/STM32G0xx_HAL_Driver/Src/stm32g0xx_hal_rcc.c ****   {
 288:Drivers/STM32G0xx_HAL_Driver/Src/stm32g0xx_hal_rcc.c ****     return HAL_ERROR;
 289:Drivers/STM32G0xx_HAL_Driver/Src/stm32g0xx_hal_rcc.c ****   }
 290:Drivers/STM32G0xx_HAL_Driver/Src/stm32g0xx_hal_rcc.c ****   else
 291:Drivers/STM32G0xx_HAL_Driver/Src/stm32g0xx_hal_rcc.c ****   {
 292:Drivers/STM32G0xx_HAL_Driver/Src/stm32g0xx_hal_rcc.c ****     return HAL_OK;
 293:Drivers/STM32G0xx_HAL_Driver/Src/stm32g0xx_hal_rcc.c ****   }
 294:Drivers/STM32G0xx_HAL_Driver/Src/stm32g0xx_hal_rcc.c **** }
 171              		.loc 1 294 1 view .LVU58
 172              		@ sp needed
 173              	.LVL11:
 174              		.loc 1 294 1 view .LVU59
 175 0082 70BD     		pop	{r4, r5, r6, pc}
 176              	.LVL12:
 177              	.L7:
 249:Drivers/STM32G0xx_HAL_Driver/Src/stm32g0xx_hal_rcc.c ****     {
 178              		.loc 1 249 5 is_stmt 1 view .LVU60
 249:Drivers/STM32G0xx_HAL_Driver/Src/stm32g0xx_hal_rcc.c ****     {
 179              		.loc 1 249 10 is_stmt 0 view .LVU61
 180 0084 FFF7FEFF 		bl	HAL_GetTick
 181              	.LVL13:
 249:Drivers/STM32G0xx_HAL_Driver/Src/stm32g0xx_hal_rcc.c ****     {
 182              		.loc 1 249 8 discriminator 1 view .LVU62
 183 0088 094B     		ldr	r3, .L11+16
 249:Drivers/STM32G0xx_HAL_Driver/Src/stm32g0xx_hal_rcc.c ****     {
 184              		.loc 1 249 24 discriminator 1 view .LVU63
 185 008a 401B     		subs	r0, r0, r5
 249:Drivers/STM32G0xx_HAL_Driver/Src/stm32g0xx_hal_rcc.c ****     {
 186              		.loc 1 249 8 discriminator 1 view .LVU64
 187 008c 9842     		cmp	r0, r3
 188 008e CFD9     		bls	.L5
 189 0090 F6E7     		b	.L6
 190              	.L9:
 267:Drivers/STM32G0xx_HAL_Driver/Src/stm32g0xx_hal_rcc.c ****     {
 191              		.loc 1 267 5 is_stmt 1 view .LVU65
 267:Drivers/STM32G0xx_HAL_Driver/Src/stm32g0xx_hal_rcc.c ****     {
 192              		.loc 1 267 10 is_stmt 0 view .LVU66
 193 0092 FFF7FEFF 		bl	HAL_GetTick
 194              	.LVL14:
 267:Drivers/STM32G0xx_HAL_Driver/Src/stm32g0xx_hal_rcc.c ****     {
 195              		.loc 1 267 24 discriminator 1 view .LVU67
 196 0096 401B     		subs	r0, r0, r5
 267:Drivers/STM32G0xx_HAL_Driver/Src/stm32g0xx_hal_rcc.c ****     {
 197              		.loc 1 267 8 discriminator 1 view .LVU68
 198 0098 0228     		cmp	r0, #2
ARM GAS  /tmp/ccheJOBr.s 			page 10


 199 009a D5D9     		bls	.L8
 200 009c F0E7     		b	.L6
 201              	.L12:
 202 009e C046     		.align	2
 203              	.L11:
 204 00a0 00100240 		.word	1073876992
 205 00a4 0024F400 		.word	16000000
 206 00a8 00000000 		.word	SystemCoreClock
 207 00ac 00000000 		.word	uwTickPrio
 208 00b0 88130000 		.word	5000
 209              		.cfi_endproc
 210              	.LFE420:
 212              		.section	.text.HAL_RCC_OscConfig,"ax",%progbits
 213              		.align	1
 214              		.global	HAL_RCC_OscConfig
 215              		.syntax unified
 216              		.code	16
 217              		.thumb_func
 219              	HAL_RCC_OscConfig:
 220              	.LVL15:
 221              	.LFB421:
 295:Drivers/STM32G0xx_HAL_Driver/Src/stm32g0xx_hal_rcc.c **** 
 296:Drivers/STM32G0xx_HAL_Driver/Src/stm32g0xx_hal_rcc.c **** /**
 297:Drivers/STM32G0xx_HAL_Driver/Src/stm32g0xx_hal_rcc.c ****   * @brief  Initialize the RCC Oscillators according to the specified parameters in the
 298:Drivers/STM32G0xx_HAL_Driver/Src/stm32g0xx_hal_rcc.c ****   *         @ref RCC_OscInitTypeDef.
 299:Drivers/STM32G0xx_HAL_Driver/Src/stm32g0xx_hal_rcc.c ****   * @param  RCC_OscInitStruct pointer to a @ref RCC_OscInitTypeDef structure that
 300:Drivers/STM32G0xx_HAL_Driver/Src/stm32g0xx_hal_rcc.c ****   *         contains the configuration information for the RCC Oscillators.
 301:Drivers/STM32G0xx_HAL_Driver/Src/stm32g0xx_hal_rcc.c ****   * @note   The PLL is not disabled when used as system clock.
 302:Drivers/STM32G0xx_HAL_Driver/Src/stm32g0xx_hal_rcc.c ****   * @note   Transition HSE Bypass to HSE On and HSE On to HSE Bypass are not
 303:Drivers/STM32G0xx_HAL_Driver/Src/stm32g0xx_hal_rcc.c ****   *         supported by this function. User should request a transition to HSE Off
 304:Drivers/STM32G0xx_HAL_Driver/Src/stm32g0xx_hal_rcc.c ****   *         first and then to HSE On or HSE Bypass.
 305:Drivers/STM32G0xx_HAL_Driver/Src/stm32g0xx_hal_rcc.c ****   * @note   Transition LSE Bypass to LSE On and LSE On to LSE Bypass are not
 306:Drivers/STM32G0xx_HAL_Driver/Src/stm32g0xx_hal_rcc.c ****   *         supported by this function. User should request a transition to LSE Off
 307:Drivers/STM32G0xx_HAL_Driver/Src/stm32g0xx_hal_rcc.c ****   *         first and then to LSE On or LSE Bypass.
 308:Drivers/STM32G0xx_HAL_Driver/Src/stm32g0xx_hal_rcc.c ****   * @retval HAL status
 309:Drivers/STM32G0xx_HAL_Driver/Src/stm32g0xx_hal_rcc.c ****   */
 310:Drivers/STM32G0xx_HAL_Driver/Src/stm32g0xx_hal_rcc.c **** HAL_StatusTypeDef HAL_RCC_OscConfig(RCC_OscInitTypeDef  *RCC_OscInitStruct)
 311:Drivers/STM32G0xx_HAL_Driver/Src/stm32g0xx_hal_rcc.c **** {
 222              		.loc 1 311 1 is_stmt 1 view -0
 223              		.cfi_startproc
 224              		@ args = 0, pretend = 0, frame = 16
 225              		@ frame_needed = 0, uses_anonymous_args = 0
 312:Drivers/STM32G0xx_HAL_Driver/Src/stm32g0xx_hal_rcc.c ****   uint32_t tickstart;
 226              		.loc 1 312 3 view .LVU70
 313:Drivers/STM32G0xx_HAL_Driver/Src/stm32g0xx_hal_rcc.c ****   uint32_t temp_sysclksrc;
 227              		.loc 1 313 3 view .LVU71
 314:Drivers/STM32G0xx_HAL_Driver/Src/stm32g0xx_hal_rcc.c ****   uint32_t temp_pllckcfg;
 228              		.loc 1 314 3 view .LVU72
 315:Drivers/STM32G0xx_HAL_Driver/Src/stm32g0xx_hal_rcc.c **** 
 316:Drivers/STM32G0xx_HAL_Driver/Src/stm32g0xx_hal_rcc.c ****   /* Check Null pointer */
 317:Drivers/STM32G0xx_HAL_Driver/Src/stm32g0xx_hal_rcc.c ****   if (RCC_OscInitStruct == NULL)
 229              		.loc 1 317 3 view .LVU73
 311:Drivers/STM32G0xx_HAL_Driver/Src/stm32g0xx_hal_rcc.c ****   uint32_t tickstart;
 230              		.loc 1 311 1 is_stmt 0 view .LVU74
 231 0000 F0B5     		push	{r4, r5, r6, r7, lr}
 232              	.LCFI1:
 233              		.cfi_def_cfa_offset 20
ARM GAS  /tmp/ccheJOBr.s 			page 11


 234              		.cfi_offset 4, -20
 235              		.cfi_offset 5, -16
 236              		.cfi_offset 6, -12
 237              		.cfi_offset 7, -8
 238              		.cfi_offset 14, -4
 239 0002 0400     		movs	r4, r0
 240 0004 85B0     		sub	sp, sp, #20
 241              	.LCFI2:
 242              		.cfi_def_cfa_offset 40
 243              		.loc 1 317 6 view .LVU75
 244 0006 0028     		cmp	r0, #0
 245 0008 02D1     		bne	.L14
 246              	.LVL16:
 247              	.L23:
 318:Drivers/STM32G0xx_HAL_Driver/Src/stm32g0xx_hal_rcc.c ****   {
 319:Drivers/STM32G0xx_HAL_Driver/Src/stm32g0xx_hal_rcc.c ****     return HAL_ERROR;
 248              		.loc 1 319 12 view .LVU76
 249 000a 0120     		movs	r0, #1
 250              	.LVL17:
 251              	.L15:
 320:Drivers/STM32G0xx_HAL_Driver/Src/stm32g0xx_hal_rcc.c ****   }
 321:Drivers/STM32G0xx_HAL_Driver/Src/stm32g0xx_hal_rcc.c **** 
 322:Drivers/STM32G0xx_HAL_Driver/Src/stm32g0xx_hal_rcc.c ****   /* Check the parameters */
 323:Drivers/STM32G0xx_HAL_Driver/Src/stm32g0xx_hal_rcc.c ****   assert_param(IS_RCC_OSCILLATORTYPE(RCC_OscInitStruct->OscillatorType));
 324:Drivers/STM32G0xx_HAL_Driver/Src/stm32g0xx_hal_rcc.c **** 
 325:Drivers/STM32G0xx_HAL_Driver/Src/stm32g0xx_hal_rcc.c ****   /*------------------------------- HSE Configuration ------------------------*/
 326:Drivers/STM32G0xx_HAL_Driver/Src/stm32g0xx_hal_rcc.c ****   if (((RCC_OscInitStruct->OscillatorType) & RCC_OSCILLATORTYPE_HSE) == RCC_OSCILLATORTYPE_HSE)
 327:Drivers/STM32G0xx_HAL_Driver/Src/stm32g0xx_hal_rcc.c ****   {
 328:Drivers/STM32G0xx_HAL_Driver/Src/stm32g0xx_hal_rcc.c ****     /* Check the parameters */
 329:Drivers/STM32G0xx_HAL_Driver/Src/stm32g0xx_hal_rcc.c ****     assert_param(IS_RCC_HSE(RCC_OscInitStruct->HSEState));
 330:Drivers/STM32G0xx_HAL_Driver/Src/stm32g0xx_hal_rcc.c **** 
 331:Drivers/STM32G0xx_HAL_Driver/Src/stm32g0xx_hal_rcc.c ****     temp_sysclksrc = __HAL_RCC_GET_SYSCLK_SOURCE();
 332:Drivers/STM32G0xx_HAL_Driver/Src/stm32g0xx_hal_rcc.c ****     temp_pllckcfg = __HAL_RCC_GET_PLL_OSCSOURCE();
 333:Drivers/STM32G0xx_HAL_Driver/Src/stm32g0xx_hal_rcc.c **** 
 334:Drivers/STM32G0xx_HAL_Driver/Src/stm32g0xx_hal_rcc.c ****     /* When the HSE is used as system clock or clock source for PLL in these cases it is not allowe
 335:Drivers/STM32G0xx_HAL_Driver/Src/stm32g0xx_hal_rcc.c ****     if (((temp_sysclksrc == RCC_SYSCLKSOURCE_STATUS_PLLCLK) && (temp_pllckcfg == RCC_PLLSOURCE_HSE)
 336:Drivers/STM32G0xx_HAL_Driver/Src/stm32g0xx_hal_rcc.c ****         || (temp_sysclksrc == RCC_SYSCLKSOURCE_STATUS_HSE))
 337:Drivers/STM32G0xx_HAL_Driver/Src/stm32g0xx_hal_rcc.c ****     {
 338:Drivers/STM32G0xx_HAL_Driver/Src/stm32g0xx_hal_rcc.c ****       if ((READ_BIT(RCC->CR, RCC_CR_HSERDY) != 0U) && (RCC_OscInitStruct->HSEState == RCC_HSE_OFF))
 339:Drivers/STM32G0xx_HAL_Driver/Src/stm32g0xx_hal_rcc.c ****       {
 340:Drivers/STM32G0xx_HAL_Driver/Src/stm32g0xx_hal_rcc.c ****         return HAL_ERROR;
 341:Drivers/STM32G0xx_HAL_Driver/Src/stm32g0xx_hal_rcc.c ****       }
 342:Drivers/STM32G0xx_HAL_Driver/Src/stm32g0xx_hal_rcc.c ****     }
 343:Drivers/STM32G0xx_HAL_Driver/Src/stm32g0xx_hal_rcc.c ****     else
 344:Drivers/STM32G0xx_HAL_Driver/Src/stm32g0xx_hal_rcc.c ****     {
 345:Drivers/STM32G0xx_HAL_Driver/Src/stm32g0xx_hal_rcc.c ****       /* Set the new HSE configuration ---------------------------------------*/
 346:Drivers/STM32G0xx_HAL_Driver/Src/stm32g0xx_hal_rcc.c ****       __HAL_RCC_HSE_CONFIG(RCC_OscInitStruct->HSEState);
 347:Drivers/STM32G0xx_HAL_Driver/Src/stm32g0xx_hal_rcc.c **** 
 348:Drivers/STM32G0xx_HAL_Driver/Src/stm32g0xx_hal_rcc.c ****       /* Check the HSE State */
 349:Drivers/STM32G0xx_HAL_Driver/Src/stm32g0xx_hal_rcc.c ****       if (RCC_OscInitStruct->HSEState != RCC_HSE_OFF)
 350:Drivers/STM32G0xx_HAL_Driver/Src/stm32g0xx_hal_rcc.c ****       {
 351:Drivers/STM32G0xx_HAL_Driver/Src/stm32g0xx_hal_rcc.c ****         /* Get Start Tick*/
 352:Drivers/STM32G0xx_HAL_Driver/Src/stm32g0xx_hal_rcc.c ****         tickstart = HAL_GetTick();
 353:Drivers/STM32G0xx_HAL_Driver/Src/stm32g0xx_hal_rcc.c **** 
 354:Drivers/STM32G0xx_HAL_Driver/Src/stm32g0xx_hal_rcc.c ****         /* Wait till HSE is ready */
 355:Drivers/STM32G0xx_HAL_Driver/Src/stm32g0xx_hal_rcc.c ****         while (READ_BIT(RCC->CR, RCC_CR_HSERDY) == 0U)
 356:Drivers/STM32G0xx_HAL_Driver/Src/stm32g0xx_hal_rcc.c ****         {
ARM GAS  /tmp/ccheJOBr.s 			page 12


 357:Drivers/STM32G0xx_HAL_Driver/Src/stm32g0xx_hal_rcc.c ****           if ((HAL_GetTick() - tickstart) > HSE_TIMEOUT_VALUE)
 358:Drivers/STM32G0xx_HAL_Driver/Src/stm32g0xx_hal_rcc.c ****           {
 359:Drivers/STM32G0xx_HAL_Driver/Src/stm32g0xx_hal_rcc.c ****             return HAL_TIMEOUT;
 360:Drivers/STM32G0xx_HAL_Driver/Src/stm32g0xx_hal_rcc.c ****           }
 361:Drivers/STM32G0xx_HAL_Driver/Src/stm32g0xx_hal_rcc.c ****         }
 362:Drivers/STM32G0xx_HAL_Driver/Src/stm32g0xx_hal_rcc.c ****       }
 363:Drivers/STM32G0xx_HAL_Driver/Src/stm32g0xx_hal_rcc.c ****       else
 364:Drivers/STM32G0xx_HAL_Driver/Src/stm32g0xx_hal_rcc.c ****       {
 365:Drivers/STM32G0xx_HAL_Driver/Src/stm32g0xx_hal_rcc.c ****         /* Get Start Tick*/
 366:Drivers/STM32G0xx_HAL_Driver/Src/stm32g0xx_hal_rcc.c ****         tickstart = HAL_GetTick();
 367:Drivers/STM32G0xx_HAL_Driver/Src/stm32g0xx_hal_rcc.c **** 
 368:Drivers/STM32G0xx_HAL_Driver/Src/stm32g0xx_hal_rcc.c ****         /* Wait till HSE is disabled */
 369:Drivers/STM32G0xx_HAL_Driver/Src/stm32g0xx_hal_rcc.c ****         while (READ_BIT(RCC->CR, RCC_CR_HSERDY) != 0U)
 370:Drivers/STM32G0xx_HAL_Driver/Src/stm32g0xx_hal_rcc.c ****         {
 371:Drivers/STM32G0xx_HAL_Driver/Src/stm32g0xx_hal_rcc.c ****           if ((HAL_GetTick() - tickstart) > HSE_TIMEOUT_VALUE)
 372:Drivers/STM32G0xx_HAL_Driver/Src/stm32g0xx_hal_rcc.c ****           {
 373:Drivers/STM32G0xx_HAL_Driver/Src/stm32g0xx_hal_rcc.c ****             return HAL_TIMEOUT;
 374:Drivers/STM32G0xx_HAL_Driver/Src/stm32g0xx_hal_rcc.c ****           }
 375:Drivers/STM32G0xx_HAL_Driver/Src/stm32g0xx_hal_rcc.c ****         }
 376:Drivers/STM32G0xx_HAL_Driver/Src/stm32g0xx_hal_rcc.c ****       }
 377:Drivers/STM32G0xx_HAL_Driver/Src/stm32g0xx_hal_rcc.c ****     }
 378:Drivers/STM32G0xx_HAL_Driver/Src/stm32g0xx_hal_rcc.c ****   }
 379:Drivers/STM32G0xx_HAL_Driver/Src/stm32g0xx_hal_rcc.c ****   /*----------------------------- HSI Configuration --------------------------*/
 380:Drivers/STM32G0xx_HAL_Driver/Src/stm32g0xx_hal_rcc.c ****   if (((RCC_OscInitStruct->OscillatorType) & RCC_OSCILLATORTYPE_HSI) == RCC_OSCILLATORTYPE_HSI)
 381:Drivers/STM32G0xx_HAL_Driver/Src/stm32g0xx_hal_rcc.c ****   {
 382:Drivers/STM32G0xx_HAL_Driver/Src/stm32g0xx_hal_rcc.c ****     /* Check the parameters */
 383:Drivers/STM32G0xx_HAL_Driver/Src/stm32g0xx_hal_rcc.c ****     assert_param(IS_RCC_HSI(RCC_OscInitStruct->HSIState));
 384:Drivers/STM32G0xx_HAL_Driver/Src/stm32g0xx_hal_rcc.c ****     assert_param(IS_RCC_HSI_CALIBRATION_VALUE(RCC_OscInitStruct->HSICalibrationValue));
 385:Drivers/STM32G0xx_HAL_Driver/Src/stm32g0xx_hal_rcc.c ****     assert_param(IS_RCC_HSIDIV(RCC_OscInitStruct->HSIDiv));
 386:Drivers/STM32G0xx_HAL_Driver/Src/stm32g0xx_hal_rcc.c **** 
 387:Drivers/STM32G0xx_HAL_Driver/Src/stm32g0xx_hal_rcc.c ****     /* Check if HSI16 is used as system clock or as PLL source when PLL is selected as system clock
 388:Drivers/STM32G0xx_HAL_Driver/Src/stm32g0xx_hal_rcc.c ****     temp_sysclksrc = __HAL_RCC_GET_SYSCLK_SOURCE();
 389:Drivers/STM32G0xx_HAL_Driver/Src/stm32g0xx_hal_rcc.c ****     temp_pllckcfg = __HAL_RCC_GET_PLL_OSCSOURCE();
 390:Drivers/STM32G0xx_HAL_Driver/Src/stm32g0xx_hal_rcc.c ****     if (((temp_sysclksrc == RCC_SYSCLKSOURCE_STATUS_PLLCLK) && (temp_pllckcfg == RCC_PLLSOURCE_HSI)
 391:Drivers/STM32G0xx_HAL_Driver/Src/stm32g0xx_hal_rcc.c ****         || (temp_sysclksrc == RCC_SYSCLKSOURCE_STATUS_HSI))
 392:Drivers/STM32G0xx_HAL_Driver/Src/stm32g0xx_hal_rcc.c ****     {
 393:Drivers/STM32G0xx_HAL_Driver/Src/stm32g0xx_hal_rcc.c ****       /* When HSI is used as system clock or as PLL input clock it can not be disabled */
 394:Drivers/STM32G0xx_HAL_Driver/Src/stm32g0xx_hal_rcc.c ****       if ((READ_BIT(RCC->CR, RCC_CR_HSIRDY) != 0U) && (RCC_OscInitStruct->HSIState == RCC_HSI_OFF))
 395:Drivers/STM32G0xx_HAL_Driver/Src/stm32g0xx_hal_rcc.c ****       {
 396:Drivers/STM32G0xx_HAL_Driver/Src/stm32g0xx_hal_rcc.c ****         return HAL_ERROR;
 397:Drivers/STM32G0xx_HAL_Driver/Src/stm32g0xx_hal_rcc.c ****       }
 398:Drivers/STM32G0xx_HAL_Driver/Src/stm32g0xx_hal_rcc.c ****       /* Otherwise, just the calibration is allowed */
 399:Drivers/STM32G0xx_HAL_Driver/Src/stm32g0xx_hal_rcc.c ****       else
 400:Drivers/STM32G0xx_HAL_Driver/Src/stm32g0xx_hal_rcc.c ****       {
 401:Drivers/STM32G0xx_HAL_Driver/Src/stm32g0xx_hal_rcc.c ****         /* Adjusts the Internal High Speed oscillator (HSI) calibration value.*/
 402:Drivers/STM32G0xx_HAL_Driver/Src/stm32g0xx_hal_rcc.c ****         __HAL_RCC_HSI_CALIBRATIONVALUE_ADJUST(RCC_OscInitStruct->HSICalibrationValue);
 403:Drivers/STM32G0xx_HAL_Driver/Src/stm32g0xx_hal_rcc.c **** 
 404:Drivers/STM32G0xx_HAL_Driver/Src/stm32g0xx_hal_rcc.c ****         if (temp_sysclksrc == RCC_SYSCLKSOURCE_STATUS_HSI)
 405:Drivers/STM32G0xx_HAL_Driver/Src/stm32g0xx_hal_rcc.c ****         {
 406:Drivers/STM32G0xx_HAL_Driver/Src/stm32g0xx_hal_rcc.c ****           /* Adjust the HSI16 division factor */
 407:Drivers/STM32G0xx_HAL_Driver/Src/stm32g0xx_hal_rcc.c ****           __HAL_RCC_HSI_CONFIG(RCC_OscInitStruct->HSIDiv);
 408:Drivers/STM32G0xx_HAL_Driver/Src/stm32g0xx_hal_rcc.c **** 
 409:Drivers/STM32G0xx_HAL_Driver/Src/stm32g0xx_hal_rcc.c ****           /* Update the SystemCoreClock global variable with HSISYS value  */
 410:Drivers/STM32G0xx_HAL_Driver/Src/stm32g0xx_hal_rcc.c ****           SystemCoreClock = (HSI_VALUE / (1UL << ((READ_BIT(RCC->CR, RCC_CR_HSIDIV)) >> RCC_CR_HSID
 411:Drivers/STM32G0xx_HAL_Driver/Src/stm32g0xx_hal_rcc.c ****         }
 412:Drivers/STM32G0xx_HAL_Driver/Src/stm32g0xx_hal_rcc.c **** 
 413:Drivers/STM32G0xx_HAL_Driver/Src/stm32g0xx_hal_rcc.c ****         /* Adapt Systick interrupt period */
ARM GAS  /tmp/ccheJOBr.s 			page 13


 414:Drivers/STM32G0xx_HAL_Driver/Src/stm32g0xx_hal_rcc.c ****         if (HAL_InitTick(uwTickPrio) != HAL_OK)
 415:Drivers/STM32G0xx_HAL_Driver/Src/stm32g0xx_hal_rcc.c ****         {
 416:Drivers/STM32G0xx_HAL_Driver/Src/stm32g0xx_hal_rcc.c ****           return HAL_ERROR;
 417:Drivers/STM32G0xx_HAL_Driver/Src/stm32g0xx_hal_rcc.c ****         }
 418:Drivers/STM32G0xx_HAL_Driver/Src/stm32g0xx_hal_rcc.c ****       }
 419:Drivers/STM32G0xx_HAL_Driver/Src/stm32g0xx_hal_rcc.c ****     }
 420:Drivers/STM32G0xx_HAL_Driver/Src/stm32g0xx_hal_rcc.c ****     else
 421:Drivers/STM32G0xx_HAL_Driver/Src/stm32g0xx_hal_rcc.c ****     {
 422:Drivers/STM32G0xx_HAL_Driver/Src/stm32g0xx_hal_rcc.c ****       /* Check the HSI State */
 423:Drivers/STM32G0xx_HAL_Driver/Src/stm32g0xx_hal_rcc.c ****       if (RCC_OscInitStruct->HSIState != RCC_HSI_OFF)
 424:Drivers/STM32G0xx_HAL_Driver/Src/stm32g0xx_hal_rcc.c ****       {
 425:Drivers/STM32G0xx_HAL_Driver/Src/stm32g0xx_hal_rcc.c ****         /* Configure the HSI16 division factor */
 426:Drivers/STM32G0xx_HAL_Driver/Src/stm32g0xx_hal_rcc.c ****         __HAL_RCC_HSI_CONFIG(RCC_OscInitStruct->HSIDiv);
 427:Drivers/STM32G0xx_HAL_Driver/Src/stm32g0xx_hal_rcc.c **** 
 428:Drivers/STM32G0xx_HAL_Driver/Src/stm32g0xx_hal_rcc.c ****         /* Enable the Internal High Speed oscillator (HSI16). */
 429:Drivers/STM32G0xx_HAL_Driver/Src/stm32g0xx_hal_rcc.c ****         __HAL_RCC_HSI_ENABLE();
 430:Drivers/STM32G0xx_HAL_Driver/Src/stm32g0xx_hal_rcc.c **** 
 431:Drivers/STM32G0xx_HAL_Driver/Src/stm32g0xx_hal_rcc.c ****         /* Get Start Tick*/
 432:Drivers/STM32G0xx_HAL_Driver/Src/stm32g0xx_hal_rcc.c ****         tickstart = HAL_GetTick();
 433:Drivers/STM32G0xx_HAL_Driver/Src/stm32g0xx_hal_rcc.c **** 
 434:Drivers/STM32G0xx_HAL_Driver/Src/stm32g0xx_hal_rcc.c ****         /* Wait till HSI is ready */
 435:Drivers/STM32G0xx_HAL_Driver/Src/stm32g0xx_hal_rcc.c ****         while (READ_BIT(RCC->CR, RCC_CR_HSIRDY) == 0U)
 436:Drivers/STM32G0xx_HAL_Driver/Src/stm32g0xx_hal_rcc.c ****         {
 437:Drivers/STM32G0xx_HAL_Driver/Src/stm32g0xx_hal_rcc.c ****           if ((HAL_GetTick() - tickstart) > HSI_TIMEOUT_VALUE)
 438:Drivers/STM32G0xx_HAL_Driver/Src/stm32g0xx_hal_rcc.c ****           {
 439:Drivers/STM32G0xx_HAL_Driver/Src/stm32g0xx_hal_rcc.c ****             return HAL_TIMEOUT;
 440:Drivers/STM32G0xx_HAL_Driver/Src/stm32g0xx_hal_rcc.c ****           }
 441:Drivers/STM32G0xx_HAL_Driver/Src/stm32g0xx_hal_rcc.c ****         }
 442:Drivers/STM32G0xx_HAL_Driver/Src/stm32g0xx_hal_rcc.c **** 
 443:Drivers/STM32G0xx_HAL_Driver/Src/stm32g0xx_hal_rcc.c ****         /* Adjusts the Internal High Speed oscillator (HSI) calibration value.*/
 444:Drivers/STM32G0xx_HAL_Driver/Src/stm32g0xx_hal_rcc.c ****         __HAL_RCC_HSI_CALIBRATIONVALUE_ADJUST(RCC_OscInitStruct->HSICalibrationValue);
 445:Drivers/STM32G0xx_HAL_Driver/Src/stm32g0xx_hal_rcc.c ****       }
 446:Drivers/STM32G0xx_HAL_Driver/Src/stm32g0xx_hal_rcc.c ****       else
 447:Drivers/STM32G0xx_HAL_Driver/Src/stm32g0xx_hal_rcc.c ****       {
 448:Drivers/STM32G0xx_HAL_Driver/Src/stm32g0xx_hal_rcc.c ****         /* Disable the Internal High Speed oscillator (HSI16). */
 449:Drivers/STM32G0xx_HAL_Driver/Src/stm32g0xx_hal_rcc.c ****         __HAL_RCC_HSI_DISABLE();
 450:Drivers/STM32G0xx_HAL_Driver/Src/stm32g0xx_hal_rcc.c **** 
 451:Drivers/STM32G0xx_HAL_Driver/Src/stm32g0xx_hal_rcc.c ****         /* Get Start Tick*/
 452:Drivers/STM32G0xx_HAL_Driver/Src/stm32g0xx_hal_rcc.c ****         tickstart = HAL_GetTick();
 453:Drivers/STM32G0xx_HAL_Driver/Src/stm32g0xx_hal_rcc.c **** 
 454:Drivers/STM32G0xx_HAL_Driver/Src/stm32g0xx_hal_rcc.c ****         /* Wait till HSI is disabled */
 455:Drivers/STM32G0xx_HAL_Driver/Src/stm32g0xx_hal_rcc.c ****         while (READ_BIT(RCC->CR, RCC_CR_HSIRDY) != 0U)
 456:Drivers/STM32G0xx_HAL_Driver/Src/stm32g0xx_hal_rcc.c ****         {
 457:Drivers/STM32G0xx_HAL_Driver/Src/stm32g0xx_hal_rcc.c ****           if ((HAL_GetTick() - tickstart) > HSI_TIMEOUT_VALUE)
 458:Drivers/STM32G0xx_HAL_Driver/Src/stm32g0xx_hal_rcc.c ****           {
 459:Drivers/STM32G0xx_HAL_Driver/Src/stm32g0xx_hal_rcc.c ****             return HAL_TIMEOUT;
 460:Drivers/STM32G0xx_HAL_Driver/Src/stm32g0xx_hal_rcc.c ****           }
 461:Drivers/STM32G0xx_HAL_Driver/Src/stm32g0xx_hal_rcc.c ****         }
 462:Drivers/STM32G0xx_HAL_Driver/Src/stm32g0xx_hal_rcc.c ****       }
 463:Drivers/STM32G0xx_HAL_Driver/Src/stm32g0xx_hal_rcc.c ****     }
 464:Drivers/STM32G0xx_HAL_Driver/Src/stm32g0xx_hal_rcc.c ****   }
 465:Drivers/STM32G0xx_HAL_Driver/Src/stm32g0xx_hal_rcc.c ****   /*------------------------------ LSI Configuration -------------------------*/
 466:Drivers/STM32G0xx_HAL_Driver/Src/stm32g0xx_hal_rcc.c ****   if (((RCC_OscInitStruct->OscillatorType) & RCC_OSCILLATORTYPE_LSI) == RCC_OSCILLATORTYPE_LSI)
 467:Drivers/STM32G0xx_HAL_Driver/Src/stm32g0xx_hal_rcc.c ****   {
 468:Drivers/STM32G0xx_HAL_Driver/Src/stm32g0xx_hal_rcc.c ****     /* Check the parameters */
 469:Drivers/STM32G0xx_HAL_Driver/Src/stm32g0xx_hal_rcc.c ****     assert_param(IS_RCC_LSI(RCC_OscInitStruct->LSIState));
 470:Drivers/STM32G0xx_HAL_Driver/Src/stm32g0xx_hal_rcc.c **** 
ARM GAS  /tmp/ccheJOBr.s 			page 14


 471:Drivers/STM32G0xx_HAL_Driver/Src/stm32g0xx_hal_rcc.c ****     /* Check if LSI is used as system clock */
 472:Drivers/STM32G0xx_HAL_Driver/Src/stm32g0xx_hal_rcc.c ****     if (__HAL_RCC_GET_SYSCLK_SOURCE() == RCC_SYSCLKSOURCE_STATUS_LSI)
 473:Drivers/STM32G0xx_HAL_Driver/Src/stm32g0xx_hal_rcc.c ****     {
 474:Drivers/STM32G0xx_HAL_Driver/Src/stm32g0xx_hal_rcc.c ****       /* When LSI is used as system clock it will not be disabled */
 475:Drivers/STM32G0xx_HAL_Driver/Src/stm32g0xx_hal_rcc.c ****       if ((((RCC->CSR) & RCC_CSR_LSIRDY) != 0U) && (RCC_OscInitStruct->LSIState == RCC_LSI_OFF))
 476:Drivers/STM32G0xx_HAL_Driver/Src/stm32g0xx_hal_rcc.c ****       {
 477:Drivers/STM32G0xx_HAL_Driver/Src/stm32g0xx_hal_rcc.c ****         return HAL_ERROR;
 478:Drivers/STM32G0xx_HAL_Driver/Src/stm32g0xx_hal_rcc.c ****       }
 479:Drivers/STM32G0xx_HAL_Driver/Src/stm32g0xx_hal_rcc.c ****     }
 480:Drivers/STM32G0xx_HAL_Driver/Src/stm32g0xx_hal_rcc.c ****     else
 481:Drivers/STM32G0xx_HAL_Driver/Src/stm32g0xx_hal_rcc.c ****     {
 482:Drivers/STM32G0xx_HAL_Driver/Src/stm32g0xx_hal_rcc.c ****       /* Check the LSI State */
 483:Drivers/STM32G0xx_HAL_Driver/Src/stm32g0xx_hal_rcc.c ****       if (RCC_OscInitStruct->LSIState != RCC_LSI_OFF)
 484:Drivers/STM32G0xx_HAL_Driver/Src/stm32g0xx_hal_rcc.c ****       {
 485:Drivers/STM32G0xx_HAL_Driver/Src/stm32g0xx_hal_rcc.c ****         /* Enable the Internal Low Speed oscillator (LSI). */
 486:Drivers/STM32G0xx_HAL_Driver/Src/stm32g0xx_hal_rcc.c ****         __HAL_RCC_LSI_ENABLE();
 487:Drivers/STM32G0xx_HAL_Driver/Src/stm32g0xx_hal_rcc.c **** 
 488:Drivers/STM32G0xx_HAL_Driver/Src/stm32g0xx_hal_rcc.c ****         /* Get Start Tick*/
 489:Drivers/STM32G0xx_HAL_Driver/Src/stm32g0xx_hal_rcc.c ****         tickstart = HAL_GetTick();
 490:Drivers/STM32G0xx_HAL_Driver/Src/stm32g0xx_hal_rcc.c **** 
 491:Drivers/STM32G0xx_HAL_Driver/Src/stm32g0xx_hal_rcc.c ****         /* Wait till LSI is ready */
 492:Drivers/STM32G0xx_HAL_Driver/Src/stm32g0xx_hal_rcc.c ****         while (READ_BIT(RCC->CSR, RCC_CSR_LSIRDY) == 0U)
 493:Drivers/STM32G0xx_HAL_Driver/Src/stm32g0xx_hal_rcc.c ****         {
 494:Drivers/STM32G0xx_HAL_Driver/Src/stm32g0xx_hal_rcc.c ****           if ((HAL_GetTick() - tickstart) > LSI_TIMEOUT_VALUE)
 495:Drivers/STM32G0xx_HAL_Driver/Src/stm32g0xx_hal_rcc.c ****           {
 496:Drivers/STM32G0xx_HAL_Driver/Src/stm32g0xx_hal_rcc.c ****             return HAL_TIMEOUT;
 497:Drivers/STM32G0xx_HAL_Driver/Src/stm32g0xx_hal_rcc.c ****           }
 498:Drivers/STM32G0xx_HAL_Driver/Src/stm32g0xx_hal_rcc.c ****         }
 499:Drivers/STM32G0xx_HAL_Driver/Src/stm32g0xx_hal_rcc.c ****       }
 500:Drivers/STM32G0xx_HAL_Driver/Src/stm32g0xx_hal_rcc.c ****       else
 501:Drivers/STM32G0xx_HAL_Driver/Src/stm32g0xx_hal_rcc.c ****       {
 502:Drivers/STM32G0xx_HAL_Driver/Src/stm32g0xx_hal_rcc.c ****         /* Disable the Internal Low Speed oscillator (LSI). */
 503:Drivers/STM32G0xx_HAL_Driver/Src/stm32g0xx_hal_rcc.c ****         __HAL_RCC_LSI_DISABLE();
 504:Drivers/STM32G0xx_HAL_Driver/Src/stm32g0xx_hal_rcc.c **** 
 505:Drivers/STM32G0xx_HAL_Driver/Src/stm32g0xx_hal_rcc.c ****         /* Get Start Tick*/
 506:Drivers/STM32G0xx_HAL_Driver/Src/stm32g0xx_hal_rcc.c ****         tickstart = HAL_GetTick();
 507:Drivers/STM32G0xx_HAL_Driver/Src/stm32g0xx_hal_rcc.c **** 
 508:Drivers/STM32G0xx_HAL_Driver/Src/stm32g0xx_hal_rcc.c ****         /* Wait till LSI is disabled */
 509:Drivers/STM32G0xx_HAL_Driver/Src/stm32g0xx_hal_rcc.c ****         while (READ_BIT(RCC->CSR, RCC_CSR_LSIRDY) != 0U)
 510:Drivers/STM32G0xx_HAL_Driver/Src/stm32g0xx_hal_rcc.c ****         {
 511:Drivers/STM32G0xx_HAL_Driver/Src/stm32g0xx_hal_rcc.c ****           if ((HAL_GetTick() - tickstart) > LSI_TIMEOUT_VALUE)
 512:Drivers/STM32G0xx_HAL_Driver/Src/stm32g0xx_hal_rcc.c ****           {
 513:Drivers/STM32G0xx_HAL_Driver/Src/stm32g0xx_hal_rcc.c ****             return HAL_TIMEOUT;
 514:Drivers/STM32G0xx_HAL_Driver/Src/stm32g0xx_hal_rcc.c ****           }
 515:Drivers/STM32G0xx_HAL_Driver/Src/stm32g0xx_hal_rcc.c ****         }
 516:Drivers/STM32G0xx_HAL_Driver/Src/stm32g0xx_hal_rcc.c ****       }
 517:Drivers/STM32G0xx_HAL_Driver/Src/stm32g0xx_hal_rcc.c ****     }
 518:Drivers/STM32G0xx_HAL_Driver/Src/stm32g0xx_hal_rcc.c ****   }
 519:Drivers/STM32G0xx_HAL_Driver/Src/stm32g0xx_hal_rcc.c ****   /*------------------------------ LSE Configuration -------------------------*/
 520:Drivers/STM32G0xx_HAL_Driver/Src/stm32g0xx_hal_rcc.c ****   if (((RCC_OscInitStruct->OscillatorType) & RCC_OSCILLATORTYPE_LSE) == RCC_OSCILLATORTYPE_LSE)
 521:Drivers/STM32G0xx_HAL_Driver/Src/stm32g0xx_hal_rcc.c ****   {
 522:Drivers/STM32G0xx_HAL_Driver/Src/stm32g0xx_hal_rcc.c ****     FlagStatus       pwrclkchanged = RESET;
 523:Drivers/STM32G0xx_HAL_Driver/Src/stm32g0xx_hal_rcc.c **** 
 524:Drivers/STM32G0xx_HAL_Driver/Src/stm32g0xx_hal_rcc.c ****     /* Check the parameters */
 525:Drivers/STM32G0xx_HAL_Driver/Src/stm32g0xx_hal_rcc.c ****     assert_param(IS_RCC_LSE(RCC_OscInitStruct->LSEState));
 526:Drivers/STM32G0xx_HAL_Driver/Src/stm32g0xx_hal_rcc.c **** 
 527:Drivers/STM32G0xx_HAL_Driver/Src/stm32g0xx_hal_rcc.c ****     /* When the LSE is used as system clock, it is not allowed disable it */
ARM GAS  /tmp/ccheJOBr.s 			page 15


 528:Drivers/STM32G0xx_HAL_Driver/Src/stm32g0xx_hal_rcc.c ****     if (__HAL_RCC_GET_SYSCLK_SOURCE() == RCC_SYSCLKSOURCE_STATUS_LSE)
 529:Drivers/STM32G0xx_HAL_Driver/Src/stm32g0xx_hal_rcc.c ****     {
 530:Drivers/STM32G0xx_HAL_Driver/Src/stm32g0xx_hal_rcc.c ****       if ((((RCC->BDCR) & RCC_BDCR_LSERDY) != 0U) && (RCC_OscInitStruct->LSEState == RCC_LSE_OFF))
 531:Drivers/STM32G0xx_HAL_Driver/Src/stm32g0xx_hal_rcc.c ****       {
 532:Drivers/STM32G0xx_HAL_Driver/Src/stm32g0xx_hal_rcc.c ****         return HAL_ERROR;
 533:Drivers/STM32G0xx_HAL_Driver/Src/stm32g0xx_hal_rcc.c ****       }
 534:Drivers/STM32G0xx_HAL_Driver/Src/stm32g0xx_hal_rcc.c ****     }
 535:Drivers/STM32G0xx_HAL_Driver/Src/stm32g0xx_hal_rcc.c ****     else
 536:Drivers/STM32G0xx_HAL_Driver/Src/stm32g0xx_hal_rcc.c ****     {
 537:Drivers/STM32G0xx_HAL_Driver/Src/stm32g0xx_hal_rcc.c ****       /* Update LSE configuration in Backup Domain control register    */
 538:Drivers/STM32G0xx_HAL_Driver/Src/stm32g0xx_hal_rcc.c ****       /* Requires to enable write access to Backup Domain of necessary */
 539:Drivers/STM32G0xx_HAL_Driver/Src/stm32g0xx_hal_rcc.c ****       if (__HAL_RCC_PWR_IS_CLK_DISABLED() != 0U)
 540:Drivers/STM32G0xx_HAL_Driver/Src/stm32g0xx_hal_rcc.c ****       {
 541:Drivers/STM32G0xx_HAL_Driver/Src/stm32g0xx_hal_rcc.c ****         __HAL_RCC_PWR_CLK_ENABLE();
 542:Drivers/STM32G0xx_HAL_Driver/Src/stm32g0xx_hal_rcc.c ****         pwrclkchanged = SET;
 543:Drivers/STM32G0xx_HAL_Driver/Src/stm32g0xx_hal_rcc.c ****       }
 544:Drivers/STM32G0xx_HAL_Driver/Src/stm32g0xx_hal_rcc.c **** 
 545:Drivers/STM32G0xx_HAL_Driver/Src/stm32g0xx_hal_rcc.c ****       if (HAL_IS_BIT_CLR(PWR->CR1, PWR_CR1_DBP))
 546:Drivers/STM32G0xx_HAL_Driver/Src/stm32g0xx_hal_rcc.c ****       {
 547:Drivers/STM32G0xx_HAL_Driver/Src/stm32g0xx_hal_rcc.c ****         /* Enable write access to Backup domain */
 548:Drivers/STM32G0xx_HAL_Driver/Src/stm32g0xx_hal_rcc.c ****         SET_BIT(PWR->CR1, PWR_CR1_DBP);
 549:Drivers/STM32G0xx_HAL_Driver/Src/stm32g0xx_hal_rcc.c **** 
 550:Drivers/STM32G0xx_HAL_Driver/Src/stm32g0xx_hal_rcc.c ****         /* Wait for Backup domain Write protection disable */
 551:Drivers/STM32G0xx_HAL_Driver/Src/stm32g0xx_hal_rcc.c ****         tickstart = HAL_GetTick();
 552:Drivers/STM32G0xx_HAL_Driver/Src/stm32g0xx_hal_rcc.c **** 
 553:Drivers/STM32G0xx_HAL_Driver/Src/stm32g0xx_hal_rcc.c ****         while (HAL_IS_BIT_CLR(PWR->CR1, PWR_CR1_DBP))
 554:Drivers/STM32G0xx_HAL_Driver/Src/stm32g0xx_hal_rcc.c ****         {
 555:Drivers/STM32G0xx_HAL_Driver/Src/stm32g0xx_hal_rcc.c ****           if ((HAL_GetTick() - tickstart) > RCC_DBP_TIMEOUT_VALUE)
 556:Drivers/STM32G0xx_HAL_Driver/Src/stm32g0xx_hal_rcc.c ****           {
 557:Drivers/STM32G0xx_HAL_Driver/Src/stm32g0xx_hal_rcc.c ****             return HAL_TIMEOUT;
 558:Drivers/STM32G0xx_HAL_Driver/Src/stm32g0xx_hal_rcc.c ****           }
 559:Drivers/STM32G0xx_HAL_Driver/Src/stm32g0xx_hal_rcc.c ****         }
 560:Drivers/STM32G0xx_HAL_Driver/Src/stm32g0xx_hal_rcc.c ****       }
 561:Drivers/STM32G0xx_HAL_Driver/Src/stm32g0xx_hal_rcc.c **** 
 562:Drivers/STM32G0xx_HAL_Driver/Src/stm32g0xx_hal_rcc.c ****       /* Set the new LSE configuration -----------------------------------------*/
 563:Drivers/STM32G0xx_HAL_Driver/Src/stm32g0xx_hal_rcc.c ****       __HAL_RCC_LSE_CONFIG(RCC_OscInitStruct->LSEState);
 564:Drivers/STM32G0xx_HAL_Driver/Src/stm32g0xx_hal_rcc.c **** 
 565:Drivers/STM32G0xx_HAL_Driver/Src/stm32g0xx_hal_rcc.c ****       /* Check the LSE State */
 566:Drivers/STM32G0xx_HAL_Driver/Src/stm32g0xx_hal_rcc.c ****       if (RCC_OscInitStruct->LSEState != RCC_LSE_OFF)
 567:Drivers/STM32G0xx_HAL_Driver/Src/stm32g0xx_hal_rcc.c ****       {
 568:Drivers/STM32G0xx_HAL_Driver/Src/stm32g0xx_hal_rcc.c ****         /* Get Start Tick*/
 569:Drivers/STM32G0xx_HAL_Driver/Src/stm32g0xx_hal_rcc.c ****         tickstart = HAL_GetTick();
 570:Drivers/STM32G0xx_HAL_Driver/Src/stm32g0xx_hal_rcc.c **** 
 571:Drivers/STM32G0xx_HAL_Driver/Src/stm32g0xx_hal_rcc.c ****         /* Wait till LSE is ready */
 572:Drivers/STM32G0xx_HAL_Driver/Src/stm32g0xx_hal_rcc.c ****         while (READ_BIT(RCC->BDCR, RCC_BDCR_LSERDY) == 0U)
 573:Drivers/STM32G0xx_HAL_Driver/Src/stm32g0xx_hal_rcc.c ****         {
 574:Drivers/STM32G0xx_HAL_Driver/Src/stm32g0xx_hal_rcc.c ****           if ((HAL_GetTick() - tickstart) > RCC_LSE_TIMEOUT_VALUE)
 575:Drivers/STM32G0xx_HAL_Driver/Src/stm32g0xx_hal_rcc.c ****           {
 576:Drivers/STM32G0xx_HAL_Driver/Src/stm32g0xx_hal_rcc.c ****             return HAL_TIMEOUT;
 577:Drivers/STM32G0xx_HAL_Driver/Src/stm32g0xx_hal_rcc.c ****           }
 578:Drivers/STM32G0xx_HAL_Driver/Src/stm32g0xx_hal_rcc.c ****         }
 579:Drivers/STM32G0xx_HAL_Driver/Src/stm32g0xx_hal_rcc.c ****       }
 580:Drivers/STM32G0xx_HAL_Driver/Src/stm32g0xx_hal_rcc.c ****       else
 581:Drivers/STM32G0xx_HAL_Driver/Src/stm32g0xx_hal_rcc.c ****       {
 582:Drivers/STM32G0xx_HAL_Driver/Src/stm32g0xx_hal_rcc.c ****         /* Get Start Tick*/
 583:Drivers/STM32G0xx_HAL_Driver/Src/stm32g0xx_hal_rcc.c ****         tickstart = HAL_GetTick();
 584:Drivers/STM32G0xx_HAL_Driver/Src/stm32g0xx_hal_rcc.c **** 
ARM GAS  /tmp/ccheJOBr.s 			page 16


 585:Drivers/STM32G0xx_HAL_Driver/Src/stm32g0xx_hal_rcc.c ****         /* Wait till LSE is disabled */
 586:Drivers/STM32G0xx_HAL_Driver/Src/stm32g0xx_hal_rcc.c ****         while (READ_BIT(RCC->BDCR, RCC_BDCR_LSERDY) != 0U)
 587:Drivers/STM32G0xx_HAL_Driver/Src/stm32g0xx_hal_rcc.c ****         {
 588:Drivers/STM32G0xx_HAL_Driver/Src/stm32g0xx_hal_rcc.c ****           if ((HAL_GetTick() - tickstart) > RCC_LSE_TIMEOUT_VALUE)
 589:Drivers/STM32G0xx_HAL_Driver/Src/stm32g0xx_hal_rcc.c ****           {
 590:Drivers/STM32G0xx_HAL_Driver/Src/stm32g0xx_hal_rcc.c ****             return HAL_TIMEOUT;
 591:Drivers/STM32G0xx_HAL_Driver/Src/stm32g0xx_hal_rcc.c ****           }
 592:Drivers/STM32G0xx_HAL_Driver/Src/stm32g0xx_hal_rcc.c ****         }
 593:Drivers/STM32G0xx_HAL_Driver/Src/stm32g0xx_hal_rcc.c ****       }
 594:Drivers/STM32G0xx_HAL_Driver/Src/stm32g0xx_hal_rcc.c **** 
 595:Drivers/STM32G0xx_HAL_Driver/Src/stm32g0xx_hal_rcc.c ****       /* Restore clock configuration if changed */
 596:Drivers/STM32G0xx_HAL_Driver/Src/stm32g0xx_hal_rcc.c ****       if (pwrclkchanged == SET)
 597:Drivers/STM32G0xx_HAL_Driver/Src/stm32g0xx_hal_rcc.c ****       {
 598:Drivers/STM32G0xx_HAL_Driver/Src/stm32g0xx_hal_rcc.c ****         __HAL_RCC_PWR_CLK_DISABLE();
 599:Drivers/STM32G0xx_HAL_Driver/Src/stm32g0xx_hal_rcc.c ****       }
 600:Drivers/STM32G0xx_HAL_Driver/Src/stm32g0xx_hal_rcc.c ****     }
 601:Drivers/STM32G0xx_HAL_Driver/Src/stm32g0xx_hal_rcc.c ****   }
 602:Drivers/STM32G0xx_HAL_Driver/Src/stm32g0xx_hal_rcc.c **** #if defined(RCC_HSI48_SUPPORT)
 603:Drivers/STM32G0xx_HAL_Driver/Src/stm32g0xx_hal_rcc.c ****   /*------------------------------ HSI48 Configuration -----------------------*/
 604:Drivers/STM32G0xx_HAL_Driver/Src/stm32g0xx_hal_rcc.c ****   if (((RCC_OscInitStruct->OscillatorType) & RCC_OSCILLATORTYPE_HSI48) == RCC_OSCILLATORTYPE_HSI48)
 605:Drivers/STM32G0xx_HAL_Driver/Src/stm32g0xx_hal_rcc.c ****   {
 606:Drivers/STM32G0xx_HAL_Driver/Src/stm32g0xx_hal_rcc.c ****     /* Check the parameters */
 607:Drivers/STM32G0xx_HAL_Driver/Src/stm32g0xx_hal_rcc.c ****     assert_param(IS_RCC_HSI48(RCC_OscInitStruct->HSI48State));
 608:Drivers/STM32G0xx_HAL_Driver/Src/stm32g0xx_hal_rcc.c **** 
 609:Drivers/STM32G0xx_HAL_Driver/Src/stm32g0xx_hal_rcc.c ****     /* Check the LSI State */
 610:Drivers/STM32G0xx_HAL_Driver/Src/stm32g0xx_hal_rcc.c ****     if (RCC_OscInitStruct->HSI48State != RCC_HSI48_OFF)
 611:Drivers/STM32G0xx_HAL_Driver/Src/stm32g0xx_hal_rcc.c ****     {
 612:Drivers/STM32G0xx_HAL_Driver/Src/stm32g0xx_hal_rcc.c ****       /* Enable the Internal Low Speed oscillator (HSI48). */
 613:Drivers/STM32G0xx_HAL_Driver/Src/stm32g0xx_hal_rcc.c ****       __HAL_RCC_HSI48_ENABLE();
 614:Drivers/STM32G0xx_HAL_Driver/Src/stm32g0xx_hal_rcc.c **** 
 615:Drivers/STM32G0xx_HAL_Driver/Src/stm32g0xx_hal_rcc.c ****       /* Get Start Tick*/
 616:Drivers/STM32G0xx_HAL_Driver/Src/stm32g0xx_hal_rcc.c ****       tickstart = HAL_GetTick();
 617:Drivers/STM32G0xx_HAL_Driver/Src/stm32g0xx_hal_rcc.c **** 
 618:Drivers/STM32G0xx_HAL_Driver/Src/stm32g0xx_hal_rcc.c ****       /* Wait till HSI48 is ready */
 619:Drivers/STM32G0xx_HAL_Driver/Src/stm32g0xx_hal_rcc.c ****       while (READ_BIT(RCC->CR, RCC_CR_HSI48RDY) == 0U)
 620:Drivers/STM32G0xx_HAL_Driver/Src/stm32g0xx_hal_rcc.c ****       {
 621:Drivers/STM32G0xx_HAL_Driver/Src/stm32g0xx_hal_rcc.c ****         if ((HAL_GetTick() - tickstart) > HSI48_TIMEOUT_VALUE)
 622:Drivers/STM32G0xx_HAL_Driver/Src/stm32g0xx_hal_rcc.c ****         {
 623:Drivers/STM32G0xx_HAL_Driver/Src/stm32g0xx_hal_rcc.c ****           return HAL_TIMEOUT;
 624:Drivers/STM32G0xx_HAL_Driver/Src/stm32g0xx_hal_rcc.c ****         }
 625:Drivers/STM32G0xx_HAL_Driver/Src/stm32g0xx_hal_rcc.c ****       }
 626:Drivers/STM32G0xx_HAL_Driver/Src/stm32g0xx_hal_rcc.c ****     }
 627:Drivers/STM32G0xx_HAL_Driver/Src/stm32g0xx_hal_rcc.c ****     else
 628:Drivers/STM32G0xx_HAL_Driver/Src/stm32g0xx_hal_rcc.c ****     {
 629:Drivers/STM32G0xx_HAL_Driver/Src/stm32g0xx_hal_rcc.c ****       /* Disable the Internal Low Speed oscillator (HSI48). */
 630:Drivers/STM32G0xx_HAL_Driver/Src/stm32g0xx_hal_rcc.c ****       __HAL_RCC_HSI48_DISABLE();
 631:Drivers/STM32G0xx_HAL_Driver/Src/stm32g0xx_hal_rcc.c **** 
 632:Drivers/STM32G0xx_HAL_Driver/Src/stm32g0xx_hal_rcc.c ****       /* Get Start Tick*/
 633:Drivers/STM32G0xx_HAL_Driver/Src/stm32g0xx_hal_rcc.c ****       tickstart = HAL_GetTick();
 634:Drivers/STM32G0xx_HAL_Driver/Src/stm32g0xx_hal_rcc.c **** 
 635:Drivers/STM32G0xx_HAL_Driver/Src/stm32g0xx_hal_rcc.c ****       /* Wait till HSI48 is disabled */
 636:Drivers/STM32G0xx_HAL_Driver/Src/stm32g0xx_hal_rcc.c ****       while (READ_BIT(RCC->CR, RCC_CR_HSI48RDY) != 0U)
 637:Drivers/STM32G0xx_HAL_Driver/Src/stm32g0xx_hal_rcc.c ****       {
 638:Drivers/STM32G0xx_HAL_Driver/Src/stm32g0xx_hal_rcc.c ****         if ((HAL_GetTick() - tickstart) > HSI48_TIMEOUT_VALUE)
 639:Drivers/STM32G0xx_HAL_Driver/Src/stm32g0xx_hal_rcc.c ****         {
 640:Drivers/STM32G0xx_HAL_Driver/Src/stm32g0xx_hal_rcc.c ****           return HAL_TIMEOUT;
 641:Drivers/STM32G0xx_HAL_Driver/Src/stm32g0xx_hal_rcc.c ****         }
ARM GAS  /tmp/ccheJOBr.s 			page 17


 642:Drivers/STM32G0xx_HAL_Driver/Src/stm32g0xx_hal_rcc.c ****       }
 643:Drivers/STM32G0xx_HAL_Driver/Src/stm32g0xx_hal_rcc.c ****     }
 644:Drivers/STM32G0xx_HAL_Driver/Src/stm32g0xx_hal_rcc.c ****   }
 645:Drivers/STM32G0xx_HAL_Driver/Src/stm32g0xx_hal_rcc.c **** #endif /* RCC_HSI48_SUPPORT */
 646:Drivers/STM32G0xx_HAL_Driver/Src/stm32g0xx_hal_rcc.c ****   /*-------------------------------- PLL Configuration -----------------------*/
 647:Drivers/STM32G0xx_HAL_Driver/Src/stm32g0xx_hal_rcc.c ****   /* Check the parameters */
 648:Drivers/STM32G0xx_HAL_Driver/Src/stm32g0xx_hal_rcc.c ****   assert_param(IS_RCC_PLL(RCC_OscInitStruct->PLL.PLLState));
 649:Drivers/STM32G0xx_HAL_Driver/Src/stm32g0xx_hal_rcc.c **** 
 650:Drivers/STM32G0xx_HAL_Driver/Src/stm32g0xx_hal_rcc.c ****   if (RCC_OscInitStruct->PLL.PLLState != RCC_PLL_NONE)
 651:Drivers/STM32G0xx_HAL_Driver/Src/stm32g0xx_hal_rcc.c ****   {
 652:Drivers/STM32G0xx_HAL_Driver/Src/stm32g0xx_hal_rcc.c ****     /* Check if the PLL is used as system clock or not */
 653:Drivers/STM32G0xx_HAL_Driver/Src/stm32g0xx_hal_rcc.c ****     if (__HAL_RCC_GET_SYSCLK_SOURCE() != RCC_SYSCLKSOURCE_STATUS_PLLCLK)
 654:Drivers/STM32G0xx_HAL_Driver/Src/stm32g0xx_hal_rcc.c ****     {
 655:Drivers/STM32G0xx_HAL_Driver/Src/stm32g0xx_hal_rcc.c ****       if (RCC_OscInitStruct->PLL.PLLState == RCC_PLL_ON)
 656:Drivers/STM32G0xx_HAL_Driver/Src/stm32g0xx_hal_rcc.c ****       {
 657:Drivers/STM32G0xx_HAL_Driver/Src/stm32g0xx_hal_rcc.c ****         /* Check the parameters */
 658:Drivers/STM32G0xx_HAL_Driver/Src/stm32g0xx_hal_rcc.c ****         assert_param(IS_RCC_PLLSOURCE(RCC_OscInitStruct->PLL.PLLSource));
 659:Drivers/STM32G0xx_HAL_Driver/Src/stm32g0xx_hal_rcc.c ****         assert_param(IS_RCC_PLLM_VALUE(RCC_OscInitStruct->PLL.PLLM));
 660:Drivers/STM32G0xx_HAL_Driver/Src/stm32g0xx_hal_rcc.c ****         assert_param(IS_RCC_PLLN_VALUE(RCC_OscInitStruct->PLL.PLLN));
 661:Drivers/STM32G0xx_HAL_Driver/Src/stm32g0xx_hal_rcc.c ****         assert_param(IS_RCC_PLLP_VALUE(RCC_OscInitStruct->PLL.PLLP));
 662:Drivers/STM32G0xx_HAL_Driver/Src/stm32g0xx_hal_rcc.c **** #if defined(RCC_PLLQ_SUPPORT)
 663:Drivers/STM32G0xx_HAL_Driver/Src/stm32g0xx_hal_rcc.c ****         assert_param(IS_RCC_PLLQ_VALUE(RCC_OscInitStruct->PLL.PLLQ));
 664:Drivers/STM32G0xx_HAL_Driver/Src/stm32g0xx_hal_rcc.c **** #endif /* RCC_PLLQ_SUPPORT */
 665:Drivers/STM32G0xx_HAL_Driver/Src/stm32g0xx_hal_rcc.c ****         assert_param(IS_RCC_PLLR_VALUE(RCC_OscInitStruct->PLL.PLLR));
 666:Drivers/STM32G0xx_HAL_Driver/Src/stm32g0xx_hal_rcc.c **** 
 667:Drivers/STM32G0xx_HAL_Driver/Src/stm32g0xx_hal_rcc.c ****         /* Disable the main PLL. */
 668:Drivers/STM32G0xx_HAL_Driver/Src/stm32g0xx_hal_rcc.c ****         __HAL_RCC_PLL_DISABLE();
 669:Drivers/STM32G0xx_HAL_Driver/Src/stm32g0xx_hal_rcc.c **** 
 670:Drivers/STM32G0xx_HAL_Driver/Src/stm32g0xx_hal_rcc.c ****         /* Get Start Tick*/
 671:Drivers/STM32G0xx_HAL_Driver/Src/stm32g0xx_hal_rcc.c ****         tickstart = HAL_GetTick();
 672:Drivers/STM32G0xx_HAL_Driver/Src/stm32g0xx_hal_rcc.c **** 
 673:Drivers/STM32G0xx_HAL_Driver/Src/stm32g0xx_hal_rcc.c ****         /* Wait till PLL is ready */
 674:Drivers/STM32G0xx_HAL_Driver/Src/stm32g0xx_hal_rcc.c ****         while (READ_BIT(RCC->CR, RCC_CR_PLLRDY) != 0U)
 675:Drivers/STM32G0xx_HAL_Driver/Src/stm32g0xx_hal_rcc.c ****         {
 676:Drivers/STM32G0xx_HAL_Driver/Src/stm32g0xx_hal_rcc.c ****           if ((HAL_GetTick() - tickstart) > PLL_TIMEOUT_VALUE)
 677:Drivers/STM32G0xx_HAL_Driver/Src/stm32g0xx_hal_rcc.c ****           {
 678:Drivers/STM32G0xx_HAL_Driver/Src/stm32g0xx_hal_rcc.c ****             return HAL_TIMEOUT;
 679:Drivers/STM32G0xx_HAL_Driver/Src/stm32g0xx_hal_rcc.c ****           }
 680:Drivers/STM32G0xx_HAL_Driver/Src/stm32g0xx_hal_rcc.c ****         }
 681:Drivers/STM32G0xx_HAL_Driver/Src/stm32g0xx_hal_rcc.c **** 
 682:Drivers/STM32G0xx_HAL_Driver/Src/stm32g0xx_hal_rcc.c ****         /* Configure the main PLL clock source, multiplication and division factors. */
 683:Drivers/STM32G0xx_HAL_Driver/Src/stm32g0xx_hal_rcc.c **** #if defined(RCC_PLLQ_SUPPORT)
 684:Drivers/STM32G0xx_HAL_Driver/Src/stm32g0xx_hal_rcc.c ****         __HAL_RCC_PLL_CONFIG(RCC_OscInitStruct->PLL.PLLSource,
 685:Drivers/STM32G0xx_HAL_Driver/Src/stm32g0xx_hal_rcc.c ****                              RCC_OscInitStruct->PLL.PLLM,
 686:Drivers/STM32G0xx_HAL_Driver/Src/stm32g0xx_hal_rcc.c ****                              RCC_OscInitStruct->PLL.PLLN,
 687:Drivers/STM32G0xx_HAL_Driver/Src/stm32g0xx_hal_rcc.c ****                              RCC_OscInitStruct->PLL.PLLP,
 688:Drivers/STM32G0xx_HAL_Driver/Src/stm32g0xx_hal_rcc.c ****                              RCC_OscInitStruct->PLL.PLLQ,
 689:Drivers/STM32G0xx_HAL_Driver/Src/stm32g0xx_hal_rcc.c ****                              RCC_OscInitStruct->PLL.PLLR);
 690:Drivers/STM32G0xx_HAL_Driver/Src/stm32g0xx_hal_rcc.c **** #else /* !RCC_PLLQ_SUPPORT */
 691:Drivers/STM32G0xx_HAL_Driver/Src/stm32g0xx_hal_rcc.c ****         __HAL_RCC_PLL_CONFIG(RCC_OscInitStruct->PLL.PLLSource,
 692:Drivers/STM32G0xx_HAL_Driver/Src/stm32g0xx_hal_rcc.c ****                              RCC_OscInitStruct->PLL.PLLM,
 693:Drivers/STM32G0xx_HAL_Driver/Src/stm32g0xx_hal_rcc.c ****                              RCC_OscInitStruct->PLL.PLLN,
 694:Drivers/STM32G0xx_HAL_Driver/Src/stm32g0xx_hal_rcc.c ****                              RCC_OscInitStruct->PLL.PLLP,
 695:Drivers/STM32G0xx_HAL_Driver/Src/stm32g0xx_hal_rcc.c ****                              RCC_OscInitStruct->PLL.PLLR);
 696:Drivers/STM32G0xx_HAL_Driver/Src/stm32g0xx_hal_rcc.c **** #endif /* RCC_PLLQ_SUPPORT */
 697:Drivers/STM32G0xx_HAL_Driver/Src/stm32g0xx_hal_rcc.c **** 
 698:Drivers/STM32G0xx_HAL_Driver/Src/stm32g0xx_hal_rcc.c ****         /* Enable the main PLL. */
ARM GAS  /tmp/ccheJOBr.s 			page 18


 699:Drivers/STM32G0xx_HAL_Driver/Src/stm32g0xx_hal_rcc.c ****         __HAL_RCC_PLL_ENABLE();
 700:Drivers/STM32G0xx_HAL_Driver/Src/stm32g0xx_hal_rcc.c **** 
 701:Drivers/STM32G0xx_HAL_Driver/Src/stm32g0xx_hal_rcc.c ****         /* Enable PLLR Clock output. */
 702:Drivers/STM32G0xx_HAL_Driver/Src/stm32g0xx_hal_rcc.c ****         __HAL_RCC_PLLCLKOUT_ENABLE(RCC_PLLRCLK);
 703:Drivers/STM32G0xx_HAL_Driver/Src/stm32g0xx_hal_rcc.c **** 
 704:Drivers/STM32G0xx_HAL_Driver/Src/stm32g0xx_hal_rcc.c ****         /* Get Start Tick*/
 705:Drivers/STM32G0xx_HAL_Driver/Src/stm32g0xx_hal_rcc.c ****         tickstart = HAL_GetTick();
 706:Drivers/STM32G0xx_HAL_Driver/Src/stm32g0xx_hal_rcc.c **** 
 707:Drivers/STM32G0xx_HAL_Driver/Src/stm32g0xx_hal_rcc.c ****         /* Wait till PLL is ready */
 708:Drivers/STM32G0xx_HAL_Driver/Src/stm32g0xx_hal_rcc.c ****         while (READ_BIT(RCC->CR, RCC_CR_PLLRDY) == 0U)
 709:Drivers/STM32G0xx_HAL_Driver/Src/stm32g0xx_hal_rcc.c ****         {
 710:Drivers/STM32G0xx_HAL_Driver/Src/stm32g0xx_hal_rcc.c ****           if ((HAL_GetTick() - tickstart) > PLL_TIMEOUT_VALUE)
 711:Drivers/STM32G0xx_HAL_Driver/Src/stm32g0xx_hal_rcc.c ****           {
 712:Drivers/STM32G0xx_HAL_Driver/Src/stm32g0xx_hal_rcc.c ****             return HAL_TIMEOUT;
 713:Drivers/STM32G0xx_HAL_Driver/Src/stm32g0xx_hal_rcc.c ****           }
 714:Drivers/STM32G0xx_HAL_Driver/Src/stm32g0xx_hal_rcc.c ****         }
 715:Drivers/STM32G0xx_HAL_Driver/Src/stm32g0xx_hal_rcc.c ****       }
 716:Drivers/STM32G0xx_HAL_Driver/Src/stm32g0xx_hal_rcc.c ****       else
 717:Drivers/STM32G0xx_HAL_Driver/Src/stm32g0xx_hal_rcc.c ****       {
 718:Drivers/STM32G0xx_HAL_Driver/Src/stm32g0xx_hal_rcc.c ****         /* Disable the main PLL. */
 719:Drivers/STM32G0xx_HAL_Driver/Src/stm32g0xx_hal_rcc.c ****         __HAL_RCC_PLL_DISABLE();
 720:Drivers/STM32G0xx_HAL_Driver/Src/stm32g0xx_hal_rcc.c **** 
 721:Drivers/STM32G0xx_HAL_Driver/Src/stm32g0xx_hal_rcc.c ****         /* Get Start Tick*/
 722:Drivers/STM32G0xx_HAL_Driver/Src/stm32g0xx_hal_rcc.c ****         tickstart = HAL_GetTick();
 723:Drivers/STM32G0xx_HAL_Driver/Src/stm32g0xx_hal_rcc.c **** 
 724:Drivers/STM32G0xx_HAL_Driver/Src/stm32g0xx_hal_rcc.c ****         /* Wait till PLL is disabled */
 725:Drivers/STM32G0xx_HAL_Driver/Src/stm32g0xx_hal_rcc.c ****         while (READ_BIT(RCC->CR, RCC_CR_PLLRDY) != 0U)
 726:Drivers/STM32G0xx_HAL_Driver/Src/stm32g0xx_hal_rcc.c ****         {
 727:Drivers/STM32G0xx_HAL_Driver/Src/stm32g0xx_hal_rcc.c ****           if ((HAL_GetTick() - tickstart) > PLL_TIMEOUT_VALUE)
 728:Drivers/STM32G0xx_HAL_Driver/Src/stm32g0xx_hal_rcc.c ****           {
 729:Drivers/STM32G0xx_HAL_Driver/Src/stm32g0xx_hal_rcc.c ****             return HAL_TIMEOUT;
 730:Drivers/STM32G0xx_HAL_Driver/Src/stm32g0xx_hal_rcc.c ****           }
 731:Drivers/STM32G0xx_HAL_Driver/Src/stm32g0xx_hal_rcc.c ****         }
 732:Drivers/STM32G0xx_HAL_Driver/Src/stm32g0xx_hal_rcc.c ****         /* Unselect main PLL clock source and disable main PLL outputs to save power */
 733:Drivers/STM32G0xx_HAL_Driver/Src/stm32g0xx_hal_rcc.c **** #if defined(RCC_PLLQ_SUPPORT)
 734:Drivers/STM32G0xx_HAL_Driver/Src/stm32g0xx_hal_rcc.c ****         RCC->PLLCFGR &= ~(RCC_PLLCFGR_PLLSRC | RCC_PLLCFGR_PLLPEN | RCC_PLLCFGR_PLLQEN | RCC_PLLCFG
 735:Drivers/STM32G0xx_HAL_Driver/Src/stm32g0xx_hal_rcc.c **** #else
 736:Drivers/STM32G0xx_HAL_Driver/Src/stm32g0xx_hal_rcc.c ****         RCC->PLLCFGR &= ~(RCC_PLLCFGR_PLLSRC | RCC_PLLCFGR_PLLPEN | RCC_PLLCFGR_PLLREN);
 737:Drivers/STM32G0xx_HAL_Driver/Src/stm32g0xx_hal_rcc.c **** #endif /* RCC_PLLQ_SUPPORT */
 738:Drivers/STM32G0xx_HAL_Driver/Src/stm32g0xx_hal_rcc.c ****       }
 739:Drivers/STM32G0xx_HAL_Driver/Src/stm32g0xx_hal_rcc.c ****     }
 740:Drivers/STM32G0xx_HAL_Driver/Src/stm32g0xx_hal_rcc.c ****     else
 741:Drivers/STM32G0xx_HAL_Driver/Src/stm32g0xx_hal_rcc.c ****     {
 742:Drivers/STM32G0xx_HAL_Driver/Src/stm32g0xx_hal_rcc.c ****       /* Check if there is a request to disable the PLL used as System clock source */
 743:Drivers/STM32G0xx_HAL_Driver/Src/stm32g0xx_hal_rcc.c ****       if ((RCC_OscInitStruct->PLL.PLLState) == RCC_PLL_OFF)
 744:Drivers/STM32G0xx_HAL_Driver/Src/stm32g0xx_hal_rcc.c ****       {
 745:Drivers/STM32G0xx_HAL_Driver/Src/stm32g0xx_hal_rcc.c ****         return HAL_ERROR;
 746:Drivers/STM32G0xx_HAL_Driver/Src/stm32g0xx_hal_rcc.c ****       }
 747:Drivers/STM32G0xx_HAL_Driver/Src/stm32g0xx_hal_rcc.c ****       else
 748:Drivers/STM32G0xx_HAL_Driver/Src/stm32g0xx_hal_rcc.c ****       {
 749:Drivers/STM32G0xx_HAL_Driver/Src/stm32g0xx_hal_rcc.c ****         /* Do not return HAL_ERROR if request repeats the current configuration */
 750:Drivers/STM32G0xx_HAL_Driver/Src/stm32g0xx_hal_rcc.c ****         temp_pllckcfg = RCC->PLLCFGR;
 751:Drivers/STM32G0xx_HAL_Driver/Src/stm32g0xx_hal_rcc.c ****         if ((READ_BIT(temp_pllckcfg, RCC_PLLCFGR_PLLSRC) != RCC_OscInitStruct->PLL.PLLSource) ||
 752:Drivers/STM32G0xx_HAL_Driver/Src/stm32g0xx_hal_rcc.c ****             (READ_BIT(temp_pllckcfg, RCC_PLLCFGR_PLLM) != RCC_OscInitStruct->PLL.PLLM) ||
 753:Drivers/STM32G0xx_HAL_Driver/Src/stm32g0xx_hal_rcc.c ****             (READ_BIT(temp_pllckcfg, RCC_PLLCFGR_PLLN) != (RCC_OscInitStruct->PLL.PLLN << RCC_PLLCF
 754:Drivers/STM32G0xx_HAL_Driver/Src/stm32g0xx_hal_rcc.c ****             (READ_BIT(temp_pllckcfg, RCC_PLLCFGR_PLLP) != RCC_OscInitStruct->PLL.PLLP) ||
 755:Drivers/STM32G0xx_HAL_Driver/Src/stm32g0xx_hal_rcc.c **** #if defined (RCC_PLLQ_SUPPORT)
ARM GAS  /tmp/ccheJOBr.s 			page 19


 756:Drivers/STM32G0xx_HAL_Driver/Src/stm32g0xx_hal_rcc.c ****             (READ_BIT(temp_pllckcfg, RCC_PLLCFGR_PLLQ) != RCC_OscInitStruct->PLL.PLLQ) ||
 757:Drivers/STM32G0xx_HAL_Driver/Src/stm32g0xx_hal_rcc.c **** #endif /* RCC_PLLQ_SUPPORT */
 758:Drivers/STM32G0xx_HAL_Driver/Src/stm32g0xx_hal_rcc.c ****             (READ_BIT(temp_pllckcfg, RCC_PLLCFGR_PLLR) != RCC_OscInitStruct->PLL.PLLR))
 759:Drivers/STM32G0xx_HAL_Driver/Src/stm32g0xx_hal_rcc.c ****         {
 760:Drivers/STM32G0xx_HAL_Driver/Src/stm32g0xx_hal_rcc.c ****           return HAL_ERROR;
 761:Drivers/STM32G0xx_HAL_Driver/Src/stm32g0xx_hal_rcc.c ****         }
 762:Drivers/STM32G0xx_HAL_Driver/Src/stm32g0xx_hal_rcc.c ****       }
 763:Drivers/STM32G0xx_HAL_Driver/Src/stm32g0xx_hal_rcc.c ****     }
 764:Drivers/STM32G0xx_HAL_Driver/Src/stm32g0xx_hal_rcc.c ****   }
 765:Drivers/STM32G0xx_HAL_Driver/Src/stm32g0xx_hal_rcc.c ****   return HAL_OK;
 766:Drivers/STM32G0xx_HAL_Driver/Src/stm32g0xx_hal_rcc.c **** }
 252              		.loc 1 766 1 view .LVU77
 253 000c 05B0     		add	sp, sp, #20
 254              		@ sp needed
 255 000e F0BD     		pop	{r4, r5, r6, r7, pc}
 256              	.LVL18:
 257              	.L14:
 323:Drivers/STM32G0xx_HAL_Driver/Src/stm32g0xx_hal_rcc.c **** 
 258              		.loc 1 323 3 is_stmt 1 view .LVU78
 326:Drivers/STM32G0xx_HAL_Driver/Src/stm32g0xx_hal_rcc.c ****   {
 259              		.loc 1 326 3 view .LVU79
 326:Drivers/STM32G0xx_HAL_Driver/Src/stm32g0xx_hal_rcc.c ****   {
 260              		.loc 1 326 44 is_stmt 0 view .LVU80
 261 0010 0368     		ldr	r3, [r0]
 326:Drivers/STM32G0xx_HAL_Driver/Src/stm32g0xx_hal_rcc.c ****   {
 262              		.loc 1 326 6 view .LVU81
 263 0012 DB07     		lsls	r3, r3, #31
 264 0014 10D4     		bmi	.L16
 265              	.LVL19:
 266              	.L22:
 380:Drivers/STM32G0xx_HAL_Driver/Src/stm32g0xx_hal_rcc.c ****   {
 267              		.loc 1 380 3 is_stmt 1 view .LVU82
 380:Drivers/STM32G0xx_HAL_Driver/Src/stm32g0xx_hal_rcc.c ****   {
 268              		.loc 1 380 44 is_stmt 0 view .LVU83
 269 0016 2368     		ldr	r3, [r4]
 380:Drivers/STM32G0xx_HAL_Driver/Src/stm32g0xx_hal_rcc.c ****   {
 270              		.loc 1 380 6 view .LVU84
 271 0018 9B07     		lsls	r3, r3, #30
 272 001a 5CD4     		bmi	.L17
 273              	.L33:
 466:Drivers/STM32G0xx_HAL_Driver/Src/stm32g0xx_hal_rcc.c ****   {
 274              		.loc 1 466 3 is_stmt 1 view .LVU85
 466:Drivers/STM32G0xx_HAL_Driver/Src/stm32g0xx_hal_rcc.c ****   {
 275              		.loc 1 466 44 is_stmt 0 view .LVU86
 276 001c 2368     		ldr	r3, [r4]
 466:Drivers/STM32G0xx_HAL_Driver/Src/stm32g0xx_hal_rcc.c ****   {
 277              		.loc 1 466 6 view .LVU87
 278 001e 1B07     		lsls	r3, r3, #28
 279 0020 00D5     		bpl	.LCB224
 280 0022 C1E0     		b	.L44	@long jump
 281              	.LCB224:
 282              	.L48:
 520:Drivers/STM32G0xx_HAL_Driver/Src/stm32g0xx_hal_rcc.c ****   {
 283              		.loc 1 520 3 is_stmt 1 view .LVU88
 520:Drivers/STM32G0xx_HAL_Driver/Src/stm32g0xx_hal_rcc.c ****   {
 284              		.loc 1 520 44 is_stmt 0 view .LVU89
 285 0024 2368     		ldr	r3, [r4]
ARM GAS  /tmp/ccheJOBr.s 			page 20


 520:Drivers/STM32G0xx_HAL_Driver/Src/stm32g0xx_hal_rcc.c ****   {
 286              		.loc 1 520 6 view .LVU90
 287 0026 5B07     		lsls	r3, r3, #29
 288 0028 00D5     		bpl	.LCB231
 289 002a F2E0     		b	.L45	@long jump
 290              	.LCB231:
 291              	.L54:
 648:Drivers/STM32G0xx_HAL_Driver/Src/stm32g0xx_hal_rcc.c **** 
 292              		.loc 1 648 3 is_stmt 1 view .LVU91
 650:Drivers/STM32G0xx_HAL_Driver/Src/stm32g0xx_hal_rcc.c ****   {
 293              		.loc 1 650 3 view .LVU92
 650:Drivers/STM32G0xx_HAL_Driver/Src/stm32g0xx_hal_rcc.c ****   {
 294              		.loc 1 650 29 is_stmt 0 view .LVU93
 295 002c E369     		ldr	r3, [r4, #28]
 650:Drivers/STM32G0xx_HAL_Driver/Src/stm32g0xx_hal_rcc.c ****   {
 296              		.loc 1 650 6 view .LVU94
 297 002e 002B     		cmp	r3, #0
 298 0030 00D0     		beq	.LCB237
 299 0032 79E1     		b	.L72	@long jump
 300              	.LCB237:
 301              	.LVL20:
 302              	.L82:
 765:Drivers/STM32G0xx_HAL_Driver/Src/stm32g0xx_hal_rcc.c **** }
 303              		.loc 1 765 10 view .LVU95
 304 0034 0020     		movs	r0, #0
 305 0036 E9E7     		b	.L15
 306              	.LVL21:
 307              	.L16:
 329:Drivers/STM32G0xx_HAL_Driver/Src/stm32g0xx_hal_rcc.c **** 
 308              		.loc 1 329 5 is_stmt 1 view .LVU96
 331:Drivers/STM32G0xx_HAL_Driver/Src/stm32g0xx_hal_rcc.c ****     temp_pllckcfg = __HAL_RCC_GET_PLL_OSCSOURCE();
 309              		.loc 1 331 5 view .LVU97
 331:Drivers/STM32G0xx_HAL_Driver/Src/stm32g0xx_hal_rcc.c ****     temp_pllckcfg = __HAL_RCC_GET_PLL_OSCSOURCE();
 310              		.loc 1 331 20 is_stmt 0 view .LVU98
 311 0038 3822     		movs	r2, #56
 331:Drivers/STM32G0xx_HAL_Driver/Src/stm32g0xx_hal_rcc.c ****     temp_pllckcfg = __HAL_RCC_GET_PLL_OSCSOURCE();
 312              		.loc 1 331 22 view .LVU99
 313 003a AF4D     		ldr	r5, .L125
 314 003c AB68     		ldr	r3, [r5, #8]
 331:Drivers/STM32G0xx_HAL_Driver/Src/stm32g0xx_hal_rcc.c ****     temp_pllckcfg = __HAL_RCC_GET_PLL_OSCSOURCE();
 315              		.loc 1 331 20 view .LVU100
 316 003e 1340     		ands	r3, r2
 317              	.LVL22:
 332:Drivers/STM32G0xx_HAL_Driver/Src/stm32g0xx_hal_rcc.c **** 
 318              		.loc 1 332 5 is_stmt 1 view .LVU101
 332:Drivers/STM32G0xx_HAL_Driver/Src/stm32g0xx_hal_rcc.c **** 
 319              		.loc 1 332 21 is_stmt 0 view .LVU102
 320 0040 EA68     		ldr	r2, [r5, #12]
 321              	.LVL23:
 335:Drivers/STM32G0xx_HAL_Driver/Src/stm32g0xx_hal_rcc.c ****         || (temp_sysclksrc == RCC_SYSCLKSOURCE_STATUS_HSE))
 322              		.loc 1 335 5 is_stmt 1 view .LVU103
 335:Drivers/STM32G0xx_HAL_Driver/Src/stm32g0xx_hal_rcc.c ****         || (temp_sysclksrc == RCC_SYSCLKSOURCE_STATUS_HSE))
 323              		.loc 1 335 8 is_stmt 0 view .LVU104
 324 0042 102B     		cmp	r3, #16
 325 0044 09D1     		bne	.L19
 332:Drivers/STM32G0xx_HAL_Driver/Src/stm32g0xx_hal_rcc.c **** 
 326              		.loc 1 332 19 view .LVU105
ARM GAS  /tmp/ccheJOBr.s 			page 21


 327 0046 D343     		mvns	r3, r2
 328              	.LVL24:
 335:Drivers/STM32G0xx_HAL_Driver/Src/stm32g0xx_hal_rcc.c ****         || (temp_sysclksrc == RCC_SYSCLKSOURCE_STATUS_HSE))
 329              		.loc 1 335 61 discriminator 1 view .LVU106
 330 0048 9B07     		lsls	r3, r3, #30
 331 004a 08D1     		bne	.L21
 332              	.L20:
 338:Drivers/STM32G0xx_HAL_Driver/Src/stm32g0xx_hal_rcc.c ****       {
 333              		.loc 1 338 7 is_stmt 1 view .LVU107
 338:Drivers/STM32G0xx_HAL_Driver/Src/stm32g0xx_hal_rcc.c ****       {
 334              		.loc 1 338 12 is_stmt 0 view .LVU108
 335 004c 2B68     		ldr	r3, [r5]
 338:Drivers/STM32G0xx_HAL_Driver/Src/stm32g0xx_hal_rcc.c ****       {
 336              		.loc 1 338 10 view .LVU109
 337 004e 9B03     		lsls	r3, r3, #14
 338 0050 E1D5     		bpl	.L22
 338:Drivers/STM32G0xx_HAL_Driver/Src/stm32g0xx_hal_rcc.c ****       {
 339              		.loc 1 338 52 discriminator 1 view .LVU110
 340 0052 6368     		ldr	r3, [r4, #4]
 341 0054 002B     		cmp	r3, #0
 342 0056 DED1     		bne	.L22
 343 0058 D7E7     		b	.L23
 344              	.LVL25:
 345              	.L19:
 336:Drivers/STM32G0xx_HAL_Driver/Src/stm32g0xx_hal_rcc.c ****     {
 346              		.loc 1 336 9 view .LVU111
 347 005a 082B     		cmp	r3, #8
 348 005c F6D0     		beq	.L20
 349              	.LVL26:
 350              	.L21:
 346:Drivers/STM32G0xx_HAL_Driver/Src/stm32g0xx_hal_rcc.c **** 
 351              		.loc 1 346 7 is_stmt 1 view .LVU112
 346:Drivers/STM32G0xx_HAL_Driver/Src/stm32g0xx_hal_rcc.c **** 
 352              		.loc 1 346 7 view .LVU113
 353 005e 8022     		movs	r2, #128
 354              	.LVL27:
 346:Drivers/STM32G0xx_HAL_Driver/Src/stm32g0xx_hal_rcc.c **** 
 355              		.loc 1 346 7 is_stmt 0 view .LVU114
 356 0060 6368     		ldr	r3, [r4, #4]
 357 0062 5202     		lsls	r2, r2, #9
 358 0064 9342     		cmp	r3, r2
 359 0066 11D1     		bne	.L24
 346:Drivers/STM32G0xx_HAL_Driver/Src/stm32g0xx_hal_rcc.c **** 
 360              		.loc 1 346 7 is_stmt 1 discriminator 1 view .LVU115
 361 0068 2A68     		ldr	r2, [r5]
 362 006a 1343     		orrs	r3, r2
 363 006c 2B60     		str	r3, [r5]
 346:Drivers/STM32G0xx_HAL_Driver/Src/stm32g0xx_hal_rcc.c **** 
 364              		.loc 1 346 7 discriminator 7 view .LVU116
 349:Drivers/STM32G0xx_HAL_Driver/Src/stm32g0xx_hal_rcc.c ****       {
 365              		.loc 1 349 7 view .LVU117
 366              	.L25:
 352:Drivers/STM32G0xx_HAL_Driver/Src/stm32g0xx_hal_rcc.c **** 
 367              		.loc 1 352 9 view .LVU118
 352:Drivers/STM32G0xx_HAL_Driver/Src/stm32g0xx_hal_rcc.c **** 
 368              		.loc 1 352 21 is_stmt 0 view .LVU119
 369 006e FFF7FEFF 		bl	HAL_GetTick
ARM GAS  /tmp/ccheJOBr.s 			page 22


 370              	.LVL28:
 355:Drivers/STM32G0xx_HAL_Driver/Src/stm32g0xx_hal_rcc.c ****         {
 371              		.loc 1 355 16 view .LVU120
 372 0072 8027     		movs	r7, #128
 352:Drivers/STM32G0xx_HAL_Driver/Src/stm32g0xx_hal_rcc.c **** 
 373              		.loc 1 352 21 view .LVU121
 374 0074 0600     		movs	r6, r0
 375              	.LVL29:
 355:Drivers/STM32G0xx_HAL_Driver/Src/stm32g0xx_hal_rcc.c ****         {
 376              		.loc 1 355 9 is_stmt 1 view .LVU122
 355:Drivers/STM32G0xx_HAL_Driver/Src/stm32g0xx_hal_rcc.c ****         {
 377              		.loc 1 355 16 is_stmt 0 view .LVU123
 378 0076 BF02     		lsls	r7, r7, #10
 379              	.LVL30:
 380              	.L28:
 355:Drivers/STM32G0xx_HAL_Driver/Src/stm32g0xx_hal_rcc.c ****         {
 381              		.loc 1 355 49 is_stmt 1 view .LVU124
 355:Drivers/STM32G0xx_HAL_Driver/Src/stm32g0xx_hal_rcc.c ****         {
 382              		.loc 1 355 16 is_stmt 0 view .LVU125
 383 0078 2B68     		ldr	r3, [r5]
 355:Drivers/STM32G0xx_HAL_Driver/Src/stm32g0xx_hal_rcc.c ****         {
 384              		.loc 1 355 49 view .LVU126
 385 007a 3B42     		tst	r3, r7
 386 007c CBD1     		bne	.L22
 357:Drivers/STM32G0xx_HAL_Driver/Src/stm32g0xx_hal_rcc.c ****           {
 387              		.loc 1 357 11 is_stmt 1 view .LVU127
 357:Drivers/STM32G0xx_HAL_Driver/Src/stm32g0xx_hal_rcc.c ****           {
 388              		.loc 1 357 16 is_stmt 0 view .LVU128
 389 007e FFF7FEFF 		bl	HAL_GetTick
 390              	.LVL31:
 357:Drivers/STM32G0xx_HAL_Driver/Src/stm32g0xx_hal_rcc.c ****           {
 391              		.loc 1 357 30 discriminator 1 view .LVU129
 392 0082 801B     		subs	r0, r0, r6
 357:Drivers/STM32G0xx_HAL_Driver/Src/stm32g0xx_hal_rcc.c ****           {
 393              		.loc 1 357 14 discriminator 1 view .LVU130
 394 0084 6428     		cmp	r0, #100
 395 0086 F7D9     		bls	.L28
 396              	.LVL32:
 397              	.L31:
 359:Drivers/STM32G0xx_HAL_Driver/Src/stm32g0xx_hal_rcc.c ****           }
 398              		.loc 1 359 20 view .LVU131
 399 0088 0320     		movs	r0, #3
 400 008a BFE7     		b	.L15
 401              	.LVL33:
 402              	.L24:
 346:Drivers/STM32G0xx_HAL_Driver/Src/stm32g0xx_hal_rcc.c **** 
 403              		.loc 1 346 7 is_stmt 1 discriminator 2 view .LVU132
 404 008c A021     		movs	r1, #160
 405 008e C902     		lsls	r1, r1, #11
 406 0090 8B42     		cmp	r3, r1
 407 0092 08D1     		bne	.L26
 346:Drivers/STM32G0xx_HAL_Driver/Src/stm32g0xx_hal_rcc.c **** 
 408              		.loc 1 346 7 discriminator 4 view .LVU133
 409 0094 8023     		movs	r3, #128
 410 0096 2968     		ldr	r1, [r5]
 411 0098 DB02     		lsls	r3, r3, #11
 412 009a 0B43     		orrs	r3, r1
ARM GAS  /tmp/ccheJOBr.s 			page 23


 413 009c 2B60     		str	r3, [r5]
 346:Drivers/STM32G0xx_HAL_Driver/Src/stm32g0xx_hal_rcc.c **** 
 414              		.loc 1 346 7 discriminator 4 view .LVU134
 415 009e 2B68     		ldr	r3, [r5]
 416 00a0 1A43     		orrs	r2, r3
 417 00a2 2A60     		str	r2, [r5]
 346:Drivers/STM32G0xx_HAL_Driver/Src/stm32g0xx_hal_rcc.c **** 
 418              		.loc 1 346 7 discriminator 7 view .LVU135
 349:Drivers/STM32G0xx_HAL_Driver/Src/stm32g0xx_hal_rcc.c ****       {
 419              		.loc 1 349 7 view .LVU136
 420 00a4 E3E7     		b	.L25
 421              	.L26:
 346:Drivers/STM32G0xx_HAL_Driver/Src/stm32g0xx_hal_rcc.c **** 
 422              		.loc 1 346 7 discriminator 5 view .LVU137
 423 00a6 2A68     		ldr	r2, [r5]
 424 00a8 9449     		ldr	r1, .L125+4
 425 00aa 0A40     		ands	r2, r1
 426 00ac 2A60     		str	r2, [r5]
 346:Drivers/STM32G0xx_HAL_Driver/Src/stm32g0xx_hal_rcc.c **** 
 427              		.loc 1 346 7 discriminator 5 view .LVU138
 428 00ae 2A68     		ldr	r2, [r5]
 429 00b0 9349     		ldr	r1, .L125+8
 430 00b2 0A40     		ands	r2, r1
 431 00b4 2A60     		str	r2, [r5]
 346:Drivers/STM32G0xx_HAL_Driver/Src/stm32g0xx_hal_rcc.c **** 
 432              		.loc 1 346 7 discriminator 7 view .LVU139
 349:Drivers/STM32G0xx_HAL_Driver/Src/stm32g0xx_hal_rcc.c ****       {
 433              		.loc 1 349 7 view .LVU140
 349:Drivers/STM32G0xx_HAL_Driver/Src/stm32g0xx_hal_rcc.c ****       {
 434              		.loc 1 349 10 is_stmt 0 view .LVU141
 435 00b6 002B     		cmp	r3, #0
 436 00b8 D9D1     		bne	.L25
 366:Drivers/STM32G0xx_HAL_Driver/Src/stm32g0xx_hal_rcc.c **** 
 437              		.loc 1 366 9 is_stmt 1 view .LVU142
 366:Drivers/STM32G0xx_HAL_Driver/Src/stm32g0xx_hal_rcc.c **** 
 438              		.loc 1 366 21 is_stmt 0 view .LVU143
 439 00ba FFF7FEFF 		bl	HAL_GetTick
 440              	.LVL34:
 369:Drivers/STM32G0xx_HAL_Driver/Src/stm32g0xx_hal_rcc.c ****         {
 441              		.loc 1 369 16 view .LVU144
 442 00be 8027     		movs	r7, #128
 366:Drivers/STM32G0xx_HAL_Driver/Src/stm32g0xx_hal_rcc.c **** 
 443              		.loc 1 366 21 view .LVU145
 444 00c0 0600     		movs	r6, r0
 445              	.LVL35:
 369:Drivers/STM32G0xx_HAL_Driver/Src/stm32g0xx_hal_rcc.c ****         {
 446              		.loc 1 369 9 is_stmt 1 view .LVU146
 369:Drivers/STM32G0xx_HAL_Driver/Src/stm32g0xx_hal_rcc.c ****         {
 447              		.loc 1 369 16 is_stmt 0 view .LVU147
 448 00c2 BF02     		lsls	r7, r7, #10
 449              	.LVL36:
 450              	.L30:
 369:Drivers/STM32G0xx_HAL_Driver/Src/stm32g0xx_hal_rcc.c ****         {
 451              		.loc 1 369 49 is_stmt 1 view .LVU148
 369:Drivers/STM32G0xx_HAL_Driver/Src/stm32g0xx_hal_rcc.c ****         {
 452              		.loc 1 369 16 is_stmt 0 view .LVU149
 453 00c4 2B68     		ldr	r3, [r5]
ARM GAS  /tmp/ccheJOBr.s 			page 24


 369:Drivers/STM32G0xx_HAL_Driver/Src/stm32g0xx_hal_rcc.c ****         {
 454              		.loc 1 369 49 view .LVU150
 455 00c6 3B42     		tst	r3, r7
 456 00c8 A5D0     		beq	.L22
 371:Drivers/STM32G0xx_HAL_Driver/Src/stm32g0xx_hal_rcc.c ****           {
 457              		.loc 1 371 11 is_stmt 1 view .LVU151
 371:Drivers/STM32G0xx_HAL_Driver/Src/stm32g0xx_hal_rcc.c ****           {
 458              		.loc 1 371 16 is_stmt 0 view .LVU152
 459 00ca FFF7FEFF 		bl	HAL_GetTick
 460              	.LVL37:
 371:Drivers/STM32G0xx_HAL_Driver/Src/stm32g0xx_hal_rcc.c ****           {
 461              		.loc 1 371 30 discriminator 1 view .LVU153
 462 00ce 801B     		subs	r0, r0, r6
 371:Drivers/STM32G0xx_HAL_Driver/Src/stm32g0xx_hal_rcc.c ****           {
 463              		.loc 1 371 14 discriminator 1 view .LVU154
 464 00d0 6428     		cmp	r0, #100
 465 00d2 F7D9     		bls	.L30
 466 00d4 D8E7     		b	.L31
 467              	.LVL38:
 468              	.L17:
 383:Drivers/STM32G0xx_HAL_Driver/Src/stm32g0xx_hal_rcc.c ****     assert_param(IS_RCC_HSI_CALIBRATION_VALUE(RCC_OscInitStruct->HSICalibrationValue));
 469              		.loc 1 383 5 is_stmt 1 view .LVU155
 384:Drivers/STM32G0xx_HAL_Driver/Src/stm32g0xx_hal_rcc.c ****     assert_param(IS_RCC_HSIDIV(RCC_OscInitStruct->HSIDiv));
 470              		.loc 1 384 5 view .LVU156
 385:Drivers/STM32G0xx_HAL_Driver/Src/stm32g0xx_hal_rcc.c **** 
 471              		.loc 1 385 5 view .LVU157
 388:Drivers/STM32G0xx_HAL_Driver/Src/stm32g0xx_hal_rcc.c ****     temp_pllckcfg = __HAL_RCC_GET_PLL_OSCSOURCE();
 472              		.loc 1 388 5 view .LVU158
 388:Drivers/STM32G0xx_HAL_Driver/Src/stm32g0xx_hal_rcc.c ****     temp_pllckcfg = __HAL_RCC_GET_PLL_OSCSOURCE();
 473              		.loc 1 388 20 is_stmt 0 view .LVU159
 474 00d6 3822     		movs	r2, #56
 388:Drivers/STM32G0xx_HAL_Driver/Src/stm32g0xx_hal_rcc.c ****     temp_pllckcfg = __HAL_RCC_GET_PLL_OSCSOURCE();
 475              		.loc 1 388 22 view .LVU160
 476 00d8 874D     		ldr	r5, .L125
 477 00da AB68     		ldr	r3, [r5, #8]
 388:Drivers/STM32G0xx_HAL_Driver/Src/stm32g0xx_hal_rcc.c ****     temp_pllckcfg = __HAL_RCC_GET_PLL_OSCSOURCE();
 478              		.loc 1 388 20 view .LVU161
 479 00dc 1340     		ands	r3, r2
 480              	.LVL39:
 389:Drivers/STM32G0xx_HAL_Driver/Src/stm32g0xx_hal_rcc.c ****     if (((temp_sysclksrc == RCC_SYSCLKSOURCE_STATUS_PLLCLK) && (temp_pllckcfg == RCC_PLLSOURCE_HSI)
 481              		.loc 1 389 5 is_stmt 1 view .LVU162
 389:Drivers/STM32G0xx_HAL_Driver/Src/stm32g0xx_hal_rcc.c ****     if (((temp_sysclksrc == RCC_SYSCLKSOURCE_STATUS_PLLCLK) && (temp_pllckcfg == RCC_PLLSOURCE_HSI)
 482              		.loc 1 389 21 is_stmt 0 view .LVU163
 483 00de EA68     		ldr	r2, [r5, #12]
 484              	.LVL40:
 390:Drivers/STM32G0xx_HAL_Driver/Src/stm32g0xx_hal_rcc.c ****         || (temp_sysclksrc == RCC_SYSCLKSOURCE_STATUS_HSI))
 485              		.loc 1 390 5 is_stmt 1 view .LVU164
 390:Drivers/STM32G0xx_HAL_Driver/Src/stm32g0xx_hal_rcc.c ****         || (temp_sysclksrc == RCC_SYSCLKSOURCE_STATUS_HSI))
 486              		.loc 1 390 8 is_stmt 0 view .LVU165
 487 00e0 102B     		cmp	r3, #16
 488 00e2 28D1     		bne	.L34
 389:Drivers/STM32G0xx_HAL_Driver/Src/stm32g0xx_hal_rcc.c ****     if (((temp_sysclksrc == RCC_SYSCLKSOURCE_STATUS_PLLCLK) && (temp_pllckcfg == RCC_PLLSOURCE_HSI)
 489              		.loc 1 389 19 view .LVU166
 490 00e4 0321     		movs	r1, #3
 491 00e6 0A40     		ands	r2, r1
 492              	.LVL41:
 390:Drivers/STM32G0xx_HAL_Driver/Src/stm32g0xx_hal_rcc.c ****         || (temp_sysclksrc == RCC_SYSCLKSOURCE_STATUS_HSI))
ARM GAS  /tmp/ccheJOBr.s 			page 25


 493              		.loc 1 390 61 discriminator 1 view .LVU167
 494 00e8 022A     		cmp	r2, #2
 495 00ea 26D1     		bne	.L36
 496              	.LVL42:
 497              	.L35:
 394:Drivers/STM32G0xx_HAL_Driver/Src/stm32g0xx_hal_rcc.c ****       {
 498              		.loc 1 394 7 is_stmt 1 view .LVU168
 394:Drivers/STM32G0xx_HAL_Driver/Src/stm32g0xx_hal_rcc.c ****       {
 499              		.loc 1 394 12 is_stmt 0 view .LVU169
 500 00ec 2A68     		ldr	r2, [r5]
 394:Drivers/STM32G0xx_HAL_Driver/Src/stm32g0xx_hal_rcc.c ****       {
 501              		.loc 1 394 10 view .LVU170
 502 00ee 5205     		lsls	r2, r2, #21
 503 00f0 03D5     		bpl	.L37
 394:Drivers/STM32G0xx_HAL_Driver/Src/stm32g0xx_hal_rcc.c ****       {
 504              		.loc 1 394 52 discriminator 1 view .LVU171
 505 00f2 E268     		ldr	r2, [r4, #12]
 506 00f4 002A     		cmp	r2, #0
 507 00f6 00D1     		bne	.LCB430
 508 00f8 87E7     		b	.L23	@long jump
 509              	.LCB430:
 510              	.L37:
 402:Drivers/STM32G0xx_HAL_Driver/Src/stm32g0xx_hal_rcc.c **** 
 511              		.loc 1 402 9 is_stmt 1 view .LVU172
 512 00fa 6968     		ldr	r1, [r5, #4]
 513 00fc 6269     		ldr	r2, [r4, #20]
 514 00fe 8148     		ldr	r0, .L125+12
 515 0100 1202     		lsls	r2, r2, #8
 516 0102 0140     		ands	r1, r0
 517 0104 0A43     		orrs	r2, r1
 518 0106 6A60     		str	r2, [r5, #4]
 404:Drivers/STM32G0xx_HAL_Driver/Src/stm32g0xx_hal_rcc.c ****         {
 519              		.loc 1 404 9 view .LVU173
 404:Drivers/STM32G0xx_HAL_Driver/Src/stm32g0xx_hal_rcc.c ****         {
 520              		.loc 1 404 12 is_stmt 0 view .LVU174
 521 0108 002B     		cmp	r3, #0
 522 010a 0CD1     		bne	.L38
 407:Drivers/STM32G0xx_HAL_Driver/Src/stm32g0xx_hal_rcc.c **** 
 523              		.loc 1 407 11 is_stmt 1 view .LVU175
 524 010c 2B68     		ldr	r3, [r5]
 525              	.LVL43:
 407:Drivers/STM32G0xx_HAL_Driver/Src/stm32g0xx_hal_rcc.c **** 
 526              		.loc 1 407 11 is_stmt 0 view .LVU176
 527 010e 7E4A     		ldr	r2, .L125+16
 410:Drivers/STM32G0xx_HAL_Driver/Src/stm32g0xx_hal_rcc.c ****         }
 528              		.loc 1 410 27 view .LVU177
 529 0110 7E49     		ldr	r1, .L125+20
 407:Drivers/STM32G0xx_HAL_Driver/Src/stm32g0xx_hal_rcc.c **** 
 530              		.loc 1 407 11 view .LVU178
 531 0112 1340     		ands	r3, r2
 532 0114 2269     		ldr	r2, [r4, #16]
 533 0116 1343     		orrs	r3, r2
 534 0118 2B60     		str	r3, [r5]
 410:Drivers/STM32G0xx_HAL_Driver/Src/stm32g0xx_hal_rcc.c ****         }
 535              		.loc 1 410 11 is_stmt 1 view .LVU179
 410:Drivers/STM32G0xx_HAL_Driver/Src/stm32g0xx_hal_rcc.c ****         }
 536              		.loc 1 410 52 is_stmt 0 view .LVU180
ARM GAS  /tmp/ccheJOBr.s 			page 26


 537 011a 2B68     		ldr	r3, [r5]
 410:Drivers/STM32G0xx_HAL_Driver/Src/stm32g0xx_hal_rcc.c ****         }
 538              		.loc 1 410 40 view .LVU181
 539 011c 7C4A     		ldr	r2, .L125+24
 410:Drivers/STM32G0xx_HAL_Driver/Src/stm32g0xx_hal_rcc.c ****         }
 540              		.loc 1 410 86 view .LVU182
 541 011e 9B04     		lsls	r3, r3, #18
 542 0120 5B0F     		lsrs	r3, r3, #29
 410:Drivers/STM32G0xx_HAL_Driver/Src/stm32g0xx_hal_rcc.c ****         }
 543              		.loc 1 410 40 view .LVU183
 544 0122 DA40     		lsrs	r2, r2, r3
 410:Drivers/STM32G0xx_HAL_Driver/Src/stm32g0xx_hal_rcc.c ****         }
 545              		.loc 1 410 27 view .LVU184
 546 0124 0A60     		str	r2, [r1]
 547              	.L38:
 414:Drivers/STM32G0xx_HAL_Driver/Src/stm32g0xx_hal_rcc.c ****         {
 548              		.loc 1 414 9 is_stmt 1 view .LVU185
 414:Drivers/STM32G0xx_HAL_Driver/Src/stm32g0xx_hal_rcc.c ****         {
 549              		.loc 1 414 13 is_stmt 0 view .LVU186
 550 0126 7B4B     		ldr	r3, .L125+28
 551 0128 1868     		ldr	r0, [r3]
 552 012a FFF7FEFF 		bl	HAL_InitTick
 553              	.LVL44:
 414:Drivers/STM32G0xx_HAL_Driver/Src/stm32g0xx_hal_rcc.c ****         {
 554              		.loc 1 414 12 discriminator 1 view .LVU187
 555 012e 0028     		cmp	r0, #0
 556 0130 00D1     		bne	.LCB469
 557 0132 73E7     		b	.L33	@long jump
 558              	.LCB469:
 559 0134 69E7     		b	.L23
 560              	.LVL45:
 561              	.L34:
 391:Drivers/STM32G0xx_HAL_Driver/Src/stm32g0xx_hal_rcc.c ****     {
 562              		.loc 1 391 9 view .LVU188
 563 0136 002B     		cmp	r3, #0
 564 0138 D8D0     		beq	.L35
 565              	.LVL46:
 566              	.L36:
 423:Drivers/STM32G0xx_HAL_Driver/Src/stm32g0xx_hal_rcc.c ****       {
 567              		.loc 1 423 7 is_stmt 1 view .LVU189
 423:Drivers/STM32G0xx_HAL_Driver/Src/stm32g0xx_hal_rcc.c ****       {
 568              		.loc 1 423 10 is_stmt 0 view .LVU190
 569 013a E368     		ldr	r3, [r4, #12]
 570              	.LVL47:
 423:Drivers/STM32G0xx_HAL_Driver/Src/stm32g0xx_hal_rcc.c ****       {
 571              		.loc 1 423 10 view .LVU191
 572 013c 002B     		cmp	r3, #0
 573 013e 20D0     		beq	.L39
 426:Drivers/STM32G0xx_HAL_Driver/Src/stm32g0xx_hal_rcc.c **** 
 574              		.loc 1 426 9 is_stmt 1 view .LVU192
 575 0140 2B68     		ldr	r3, [r5]
 576 0142 714A     		ldr	r2, .L125+16
 435:Drivers/STM32G0xx_HAL_Driver/Src/stm32g0xx_hal_rcc.c ****         {
 577              		.loc 1 435 16 is_stmt 0 view .LVU193
 578 0144 8027     		movs	r7, #128
 426:Drivers/STM32G0xx_HAL_Driver/Src/stm32g0xx_hal_rcc.c **** 
 579              		.loc 1 426 9 view .LVU194
ARM GAS  /tmp/ccheJOBr.s 			page 27


 580 0146 1340     		ands	r3, r2
 581 0148 2269     		ldr	r2, [r4, #16]
 435:Drivers/STM32G0xx_HAL_Driver/Src/stm32g0xx_hal_rcc.c ****         {
 582              		.loc 1 435 16 view .LVU195
 583 014a FF00     		lsls	r7, r7, #3
 426:Drivers/STM32G0xx_HAL_Driver/Src/stm32g0xx_hal_rcc.c **** 
 584              		.loc 1 426 9 view .LVU196
 585 014c 1343     		orrs	r3, r2
 586 014e 2B60     		str	r3, [r5]
 429:Drivers/STM32G0xx_HAL_Driver/Src/stm32g0xx_hal_rcc.c **** 
 587              		.loc 1 429 9 is_stmt 1 view .LVU197
 588 0150 8023     		movs	r3, #128
 589 0152 2A68     		ldr	r2, [r5]
 590 0154 5B00     		lsls	r3, r3, #1
 591 0156 1343     		orrs	r3, r2
 592 0158 2B60     		str	r3, [r5]
 432:Drivers/STM32G0xx_HAL_Driver/Src/stm32g0xx_hal_rcc.c **** 
 593              		.loc 1 432 9 view .LVU198
 432:Drivers/STM32G0xx_HAL_Driver/Src/stm32g0xx_hal_rcc.c **** 
 594              		.loc 1 432 21 is_stmt 0 view .LVU199
 595 015a FFF7FEFF 		bl	HAL_GetTick
 596              	.LVL48:
 597 015e 0600     		movs	r6, r0
 598              	.LVL49:
 435:Drivers/STM32G0xx_HAL_Driver/Src/stm32g0xx_hal_rcc.c ****         {
 599              		.loc 1 435 9 is_stmt 1 view .LVU200
 600              	.L40:
 435:Drivers/STM32G0xx_HAL_Driver/Src/stm32g0xx_hal_rcc.c ****         {
 601              		.loc 1 435 49 view .LVU201
 435:Drivers/STM32G0xx_HAL_Driver/Src/stm32g0xx_hal_rcc.c ****         {
 602              		.loc 1 435 16 is_stmt 0 view .LVU202
 603 0160 2B68     		ldr	r3, [r5]
 435:Drivers/STM32G0xx_HAL_Driver/Src/stm32g0xx_hal_rcc.c ****         {
 604              		.loc 1 435 49 view .LVU203
 605 0162 3B42     		tst	r3, r7
 606 0164 07D0     		beq	.L41
 444:Drivers/STM32G0xx_HAL_Driver/Src/stm32g0xx_hal_rcc.c ****       }
 607              		.loc 1 444 9 is_stmt 1 view .LVU204
 608 0166 6A68     		ldr	r2, [r5, #4]
 609 0168 6369     		ldr	r3, [r4, #20]
 610 016a 6649     		ldr	r1, .L125+12
 611 016c 1B02     		lsls	r3, r3, #8
 612 016e 0A40     		ands	r2, r1
 613 0170 1343     		orrs	r3, r2
 614 0172 6B60     		str	r3, [r5, #4]
 615 0174 52E7     		b	.L33
 616              	.L41:
 437:Drivers/STM32G0xx_HAL_Driver/Src/stm32g0xx_hal_rcc.c ****           {
 617              		.loc 1 437 11 view .LVU205
 437:Drivers/STM32G0xx_HAL_Driver/Src/stm32g0xx_hal_rcc.c ****           {
 618              		.loc 1 437 16 is_stmt 0 view .LVU206
 619 0176 FFF7FEFF 		bl	HAL_GetTick
 620              	.LVL50:
 437:Drivers/STM32G0xx_HAL_Driver/Src/stm32g0xx_hal_rcc.c ****           {
 621              		.loc 1 437 30 discriminator 1 view .LVU207
 622 017a 801B     		subs	r0, r0, r6
 437:Drivers/STM32G0xx_HAL_Driver/Src/stm32g0xx_hal_rcc.c ****           {
ARM GAS  /tmp/ccheJOBr.s 			page 28


 623              		.loc 1 437 14 discriminator 1 view .LVU208
 624 017c 0228     		cmp	r0, #2
 625 017e EFD9     		bls	.L40
 626 0180 82E7     		b	.L31
 627              	.LVL51:
 628              	.L39:
 449:Drivers/STM32G0xx_HAL_Driver/Src/stm32g0xx_hal_rcc.c **** 
 629              		.loc 1 449 9 is_stmt 1 view .LVU209
 630 0182 2B68     		ldr	r3, [r5]
 631 0184 644A     		ldr	r2, .L125+32
 455:Drivers/STM32G0xx_HAL_Driver/Src/stm32g0xx_hal_rcc.c ****         {
 632              		.loc 1 455 16 is_stmt 0 view .LVU210
 633 0186 8027     		movs	r7, #128
 449:Drivers/STM32G0xx_HAL_Driver/Src/stm32g0xx_hal_rcc.c **** 
 634              		.loc 1 449 9 view .LVU211
 635 0188 1340     		ands	r3, r2
 636 018a 2B60     		str	r3, [r5]
 452:Drivers/STM32G0xx_HAL_Driver/Src/stm32g0xx_hal_rcc.c **** 
 637              		.loc 1 452 9 is_stmt 1 view .LVU212
 452:Drivers/STM32G0xx_HAL_Driver/Src/stm32g0xx_hal_rcc.c **** 
 638              		.loc 1 452 21 is_stmt 0 view .LVU213
 639 018c FFF7FEFF 		bl	HAL_GetTick
 640              	.LVL52:
 641 0190 0600     		movs	r6, r0
 642              	.LVL53:
 455:Drivers/STM32G0xx_HAL_Driver/Src/stm32g0xx_hal_rcc.c ****         {
 643              		.loc 1 455 9 is_stmt 1 view .LVU214
 455:Drivers/STM32G0xx_HAL_Driver/Src/stm32g0xx_hal_rcc.c ****         {
 644              		.loc 1 455 16 is_stmt 0 view .LVU215
 645 0192 FF00     		lsls	r7, r7, #3
 646              	.LVL54:
 647              	.L42:
 455:Drivers/STM32G0xx_HAL_Driver/Src/stm32g0xx_hal_rcc.c ****         {
 648              		.loc 1 455 49 is_stmt 1 view .LVU216
 455:Drivers/STM32G0xx_HAL_Driver/Src/stm32g0xx_hal_rcc.c ****         {
 649              		.loc 1 455 16 is_stmt 0 view .LVU217
 650 0194 2B68     		ldr	r3, [r5]
 455:Drivers/STM32G0xx_HAL_Driver/Src/stm32g0xx_hal_rcc.c ****         {
 651              		.loc 1 455 49 view .LVU218
 652 0196 3B42     		tst	r3, r7
 653 0198 00D1     		bne	.LCB557
 654 019a 3FE7     		b	.L33	@long jump
 655              	.LCB557:
 457:Drivers/STM32G0xx_HAL_Driver/Src/stm32g0xx_hal_rcc.c ****           {
 656              		.loc 1 457 11 is_stmt 1 view .LVU219
 457:Drivers/STM32G0xx_HAL_Driver/Src/stm32g0xx_hal_rcc.c ****           {
 657              		.loc 1 457 16 is_stmt 0 view .LVU220
 658 019c FFF7FEFF 		bl	HAL_GetTick
 659              	.LVL55:
 457:Drivers/STM32G0xx_HAL_Driver/Src/stm32g0xx_hal_rcc.c ****           {
 660              		.loc 1 457 30 discriminator 1 view .LVU221
 661 01a0 801B     		subs	r0, r0, r6
 457:Drivers/STM32G0xx_HAL_Driver/Src/stm32g0xx_hal_rcc.c ****           {
 662              		.loc 1 457 14 discriminator 1 view .LVU222
 663 01a2 0228     		cmp	r0, #2
 664 01a4 F6D9     		bls	.L42
 665 01a6 6FE7     		b	.L31
ARM GAS  /tmp/ccheJOBr.s 			page 29


 666              	.LVL56:
 667              	.L44:
 469:Drivers/STM32G0xx_HAL_Driver/Src/stm32g0xx_hal_rcc.c **** 
 668              		.loc 1 469 5 is_stmt 1 view .LVU223
 472:Drivers/STM32G0xx_HAL_Driver/Src/stm32g0xx_hal_rcc.c ****     {
 669              		.loc 1 472 5 view .LVU224
 472:Drivers/STM32G0xx_HAL_Driver/Src/stm32g0xx_hal_rcc.c ****     {
 670              		.loc 1 472 9 is_stmt 0 view .LVU225
 671 01a8 3822     		movs	r2, #56
 672 01aa 534D     		ldr	r5, .L125
 673 01ac AB68     		ldr	r3, [r5, #8]
 674 01ae 1340     		ands	r3, r2
 472:Drivers/STM32G0xx_HAL_Driver/Src/stm32g0xx_hal_rcc.c ****     {
 675              		.loc 1 472 8 view .LVU226
 676 01b0 182B     		cmp	r3, #24
 677 01b2 08D1     		bne	.L47
 475:Drivers/STM32G0xx_HAL_Driver/Src/stm32g0xx_hal_rcc.c ****       {
 678              		.loc 1 475 7 is_stmt 1 view .LVU227
 475:Drivers/STM32G0xx_HAL_Driver/Src/stm32g0xx_hal_rcc.c ****       {
 679              		.loc 1 475 17 is_stmt 0 view .LVU228
 680 01b4 2B6E     		ldr	r3, [r5, #96]
 475:Drivers/STM32G0xx_HAL_Driver/Src/stm32g0xx_hal_rcc.c ****       {
 681              		.loc 1 475 10 view .LVU229
 682 01b6 9B07     		lsls	r3, r3, #30
 683 01b8 00D4     		bmi	.LCB585
 684 01ba 33E7     		b	.L48	@long jump
 685              	.LCB585:
 475:Drivers/STM32G0xx_HAL_Driver/Src/stm32g0xx_hal_rcc.c ****       {
 686              		.loc 1 475 49 discriminator 1 view .LVU230
 687 01bc A369     		ldr	r3, [r4, #24]
 688 01be 002B     		cmp	r3, #0
 689 01c0 00D0     		beq	.LCB588
 690 01c2 2FE7     		b	.L48	@long jump
 691              	.LCB588:
 692 01c4 21E7     		b	.L23
 693              	.L47:
 483:Drivers/STM32G0xx_HAL_Driver/Src/stm32g0xx_hal_rcc.c ****       {
 694              		.loc 1 483 7 is_stmt 1 view .LVU231
 483:Drivers/STM32G0xx_HAL_Driver/Src/stm32g0xx_hal_rcc.c ****       {
 695              		.loc 1 483 10 is_stmt 0 view .LVU232
 696 01c6 A269     		ldr	r2, [r4, #24]
 697 01c8 0123     		movs	r3, #1
 698 01ca 002A     		cmp	r2, #0
 699 01cc 10D0     		beq	.L49
 486:Drivers/STM32G0xx_HAL_Driver/Src/stm32g0xx_hal_rcc.c **** 
 700              		.loc 1 486 9 is_stmt 1 view .LVU233
 701 01ce 2A6E     		ldr	r2, [r5, #96]
 492:Drivers/STM32G0xx_HAL_Driver/Src/stm32g0xx_hal_rcc.c ****         {
 702              		.loc 1 492 16 is_stmt 0 view .LVU234
 703 01d0 0227     		movs	r7, #2
 486:Drivers/STM32G0xx_HAL_Driver/Src/stm32g0xx_hal_rcc.c **** 
 704              		.loc 1 486 9 view .LVU235
 705 01d2 1343     		orrs	r3, r2
 706 01d4 2B66     		str	r3, [r5, #96]
 489:Drivers/STM32G0xx_HAL_Driver/Src/stm32g0xx_hal_rcc.c **** 
 707              		.loc 1 489 9 is_stmt 1 view .LVU236
 489:Drivers/STM32G0xx_HAL_Driver/Src/stm32g0xx_hal_rcc.c **** 
ARM GAS  /tmp/ccheJOBr.s 			page 30


 708              		.loc 1 489 21 is_stmt 0 view .LVU237
 709 01d6 FFF7FEFF 		bl	HAL_GetTick
 710              	.LVL57:
 711 01da 0600     		movs	r6, r0
 712              	.LVL58:
 492:Drivers/STM32G0xx_HAL_Driver/Src/stm32g0xx_hal_rcc.c ****         {
 713              		.loc 1 492 9 is_stmt 1 view .LVU238
 714              	.L50:
 492:Drivers/STM32G0xx_HAL_Driver/Src/stm32g0xx_hal_rcc.c ****         {
 715              		.loc 1 492 51 view .LVU239
 492:Drivers/STM32G0xx_HAL_Driver/Src/stm32g0xx_hal_rcc.c ****         {
 716              		.loc 1 492 16 is_stmt 0 view .LVU240
 717 01dc 2B6E     		ldr	r3, [r5, #96]
 492:Drivers/STM32G0xx_HAL_Driver/Src/stm32g0xx_hal_rcc.c ****         {
 718              		.loc 1 492 51 view .LVU241
 719 01de 3B42     		tst	r3, r7
 720 01e0 00D0     		beq	.LCB616
 721 01e2 1FE7     		b	.L48	@long jump
 722              	.LCB616:
 494:Drivers/STM32G0xx_HAL_Driver/Src/stm32g0xx_hal_rcc.c ****           {
 723              		.loc 1 494 11 is_stmt 1 view .LVU242
 494:Drivers/STM32G0xx_HAL_Driver/Src/stm32g0xx_hal_rcc.c ****           {
 724              		.loc 1 494 16 is_stmt 0 view .LVU243
 725 01e4 FFF7FEFF 		bl	HAL_GetTick
 726              	.LVL59:
 494:Drivers/STM32G0xx_HAL_Driver/Src/stm32g0xx_hal_rcc.c ****           {
 727              		.loc 1 494 30 discriminator 1 view .LVU244
 728 01e8 801B     		subs	r0, r0, r6
 494:Drivers/STM32G0xx_HAL_Driver/Src/stm32g0xx_hal_rcc.c ****           {
 729              		.loc 1 494 14 discriminator 1 view .LVU245
 730 01ea 0228     		cmp	r0, #2
 731 01ec F6D9     		bls	.L50
 732 01ee 4BE7     		b	.L31
 733              	.LVL60:
 734              	.L49:
 503:Drivers/STM32G0xx_HAL_Driver/Src/stm32g0xx_hal_rcc.c **** 
 735              		.loc 1 503 9 is_stmt 1 view .LVU246
 736 01f0 2A6E     		ldr	r2, [r5, #96]
 509:Drivers/STM32G0xx_HAL_Driver/Src/stm32g0xx_hal_rcc.c ****         {
 737              		.loc 1 509 16 is_stmt 0 view .LVU247
 738 01f2 0227     		movs	r7, #2
 503:Drivers/STM32G0xx_HAL_Driver/Src/stm32g0xx_hal_rcc.c **** 
 739              		.loc 1 503 9 view .LVU248
 740 01f4 9A43     		bics	r2, r3
 741 01f6 2A66     		str	r2, [r5, #96]
 506:Drivers/STM32G0xx_HAL_Driver/Src/stm32g0xx_hal_rcc.c **** 
 742              		.loc 1 506 9 is_stmt 1 view .LVU249
 506:Drivers/STM32G0xx_HAL_Driver/Src/stm32g0xx_hal_rcc.c **** 
 743              		.loc 1 506 21 is_stmt 0 view .LVU250
 744 01f8 FFF7FEFF 		bl	HAL_GetTick
 745              	.LVL61:
 746 01fc 0600     		movs	r6, r0
 747              	.LVL62:
 509:Drivers/STM32G0xx_HAL_Driver/Src/stm32g0xx_hal_rcc.c ****         {
 748              		.loc 1 509 9 is_stmt 1 view .LVU251
 749              	.L52:
 509:Drivers/STM32G0xx_HAL_Driver/Src/stm32g0xx_hal_rcc.c ****         {
ARM GAS  /tmp/ccheJOBr.s 			page 31


 750              		.loc 1 509 51 view .LVU252
 509:Drivers/STM32G0xx_HAL_Driver/Src/stm32g0xx_hal_rcc.c ****         {
 751              		.loc 1 509 16 is_stmt 0 view .LVU253
 752 01fe 2B6E     		ldr	r3, [r5, #96]
 509:Drivers/STM32G0xx_HAL_Driver/Src/stm32g0xx_hal_rcc.c ****         {
 753              		.loc 1 509 51 view .LVU254
 754 0200 3B42     		tst	r3, r7
 755 0202 00D1     		bne	.LCB645
 756 0204 0EE7     		b	.L48	@long jump
 757              	.LCB645:
 511:Drivers/STM32G0xx_HAL_Driver/Src/stm32g0xx_hal_rcc.c ****           {
 758              		.loc 1 511 11 is_stmt 1 view .LVU255
 511:Drivers/STM32G0xx_HAL_Driver/Src/stm32g0xx_hal_rcc.c ****           {
 759              		.loc 1 511 16 is_stmt 0 view .LVU256
 760 0206 FFF7FEFF 		bl	HAL_GetTick
 761              	.LVL63:
 511:Drivers/STM32G0xx_HAL_Driver/Src/stm32g0xx_hal_rcc.c ****           {
 762              		.loc 1 511 30 discriminator 1 view .LVU257
 763 020a 801B     		subs	r0, r0, r6
 511:Drivers/STM32G0xx_HAL_Driver/Src/stm32g0xx_hal_rcc.c ****           {
 764              		.loc 1 511 14 discriminator 1 view .LVU258
 765 020c 0228     		cmp	r0, #2
 766 020e F6D9     		bls	.L52
 767 0210 3AE7     		b	.L31
 768              	.LVL64:
 769              	.L45:
 770              	.LBB6:
 522:Drivers/STM32G0xx_HAL_Driver/Src/stm32g0xx_hal_rcc.c **** 
 771              		.loc 1 522 5 is_stmt 1 view .LVU259
 525:Drivers/STM32G0xx_HAL_Driver/Src/stm32g0xx_hal_rcc.c **** 
 772              		.loc 1 525 5 view .LVU260
 528:Drivers/STM32G0xx_HAL_Driver/Src/stm32g0xx_hal_rcc.c ****     {
 773              		.loc 1 528 5 view .LVU261
 528:Drivers/STM32G0xx_HAL_Driver/Src/stm32g0xx_hal_rcc.c ****     {
 774              		.loc 1 528 9 is_stmt 0 view .LVU262
 775 0212 3822     		movs	r2, #56
 776 0214 384D     		ldr	r5, .L125
 777 0216 AB68     		ldr	r3, [r5, #8]
 778 0218 1340     		ands	r3, r2
 528:Drivers/STM32G0xx_HAL_Driver/Src/stm32g0xx_hal_rcc.c ****     {
 779              		.loc 1 528 8 view .LVU263
 780 021a 202B     		cmp	r3, #32
 781 021c 08D1     		bne	.L55
 530:Drivers/STM32G0xx_HAL_Driver/Src/stm32g0xx_hal_rcc.c ****       {
 782              		.loc 1 530 7 is_stmt 1 view .LVU264
 530:Drivers/STM32G0xx_HAL_Driver/Src/stm32g0xx_hal_rcc.c ****       {
 783              		.loc 1 530 17 is_stmt 0 view .LVU265
 784 021e EB6D     		ldr	r3, [r5, #92]
 530:Drivers/STM32G0xx_HAL_Driver/Src/stm32g0xx_hal_rcc.c ****       {
 785              		.loc 1 530 10 view .LVU266
 786 0220 9B07     		lsls	r3, r3, #30
 787 0222 00D4     		bmi	.LCB674
 788 0224 02E7     		b	.L54	@long jump
 789              	.LCB674:
 530:Drivers/STM32G0xx_HAL_Driver/Src/stm32g0xx_hal_rcc.c ****       {
 790              		.loc 1 530 51 discriminator 1 view .LVU267
 791 0226 A368     		ldr	r3, [r4, #8]
ARM GAS  /tmp/ccheJOBr.s 			page 32


 792 0228 002B     		cmp	r3, #0
 793 022a 00D0     		beq	.LCB677
 794 022c FEE6     		b	.L54	@long jump
 795              	.LCB677:
 796 022e ECE6     		b	.L23
 797              	.L55:
 539:Drivers/STM32G0xx_HAL_Driver/Src/stm32g0xx_hal_rcc.c ****       {
 798              		.loc 1 539 7 is_stmt 1 view .LVU268
 539:Drivers/STM32G0xx_HAL_Driver/Src/stm32g0xx_hal_rcc.c ****       {
 799              		.loc 1 539 11 is_stmt 0 view .LVU269
 800 0230 8022     		movs	r2, #128
 522:Drivers/STM32G0xx_HAL_Driver/Src/stm32g0xx_hal_rcc.c **** 
 801              		.loc 1 522 22 view .LVU270
 802 0232 0021     		movs	r1, #0
 539:Drivers/STM32G0xx_HAL_Driver/Src/stm32g0xx_hal_rcc.c ****       {
 803              		.loc 1 539 11 view .LVU271
 804 0234 EB6B     		ldr	r3, [r5, #60]
 805 0236 5205     		lsls	r2, r2, #21
 522:Drivers/STM32G0xx_HAL_Driver/Src/stm32g0xx_hal_rcc.c **** 
 806              		.loc 1 522 22 view .LVU272
 807 0238 0091     		str	r1, [sp]
 539:Drivers/STM32G0xx_HAL_Driver/Src/stm32g0xx_hal_rcc.c ****       {
 808              		.loc 1 539 43 view .LVU273
 809 023a 1342     		tst	r3, r2
 810 023c 08D1     		bne	.L56
 541:Drivers/STM32G0xx_HAL_Driver/Src/stm32g0xx_hal_rcc.c ****         pwrclkchanged = SET;
 811              		.loc 1 541 9 is_stmt 1 view .LVU274
 812              	.LBB7:
 541:Drivers/STM32G0xx_HAL_Driver/Src/stm32g0xx_hal_rcc.c ****         pwrclkchanged = SET;
 813              		.loc 1 541 9 view .LVU275
 541:Drivers/STM32G0xx_HAL_Driver/Src/stm32g0xx_hal_rcc.c ****         pwrclkchanged = SET;
 814              		.loc 1 541 9 view .LVU276
 815 023e EB6B     		ldr	r3, [r5, #60]
 816 0240 1343     		orrs	r3, r2
 817 0242 EB63     		str	r3, [r5, #60]
 541:Drivers/STM32G0xx_HAL_Driver/Src/stm32g0xx_hal_rcc.c ****         pwrclkchanged = SET;
 818              		.loc 1 541 9 view .LVU277
 819 0244 EB6B     		ldr	r3, [r5, #60]
 820 0246 1340     		ands	r3, r2
 821 0248 0393     		str	r3, [sp, #12]
 541:Drivers/STM32G0xx_HAL_Driver/Src/stm32g0xx_hal_rcc.c ****         pwrclkchanged = SET;
 822              		.loc 1 541 9 view .LVU278
 823 024a 039B     		ldr	r3, [sp, #12]
 824              	.LBE7:
 541:Drivers/STM32G0xx_HAL_Driver/Src/stm32g0xx_hal_rcc.c ****         pwrclkchanged = SET;
 825              		.loc 1 541 9 view .LVU279
 542:Drivers/STM32G0xx_HAL_Driver/Src/stm32g0xx_hal_rcc.c ****       }
 826              		.loc 1 542 9 view .LVU280
 827              	.LVL65:
 542:Drivers/STM32G0xx_HAL_Driver/Src/stm32g0xx_hal_rcc.c ****       }
 828              		.loc 1 542 23 is_stmt 0 view .LVU281
 829 024c 0123     		movs	r3, #1
 830 024e 0093     		str	r3, [sp]
 831              	.LVL66:
 832              	.L56:
 545:Drivers/STM32G0xx_HAL_Driver/Src/stm32g0xx_hal_rcc.c ****       {
 833              		.loc 1 545 7 is_stmt 1 view .LVU282
ARM GAS  /tmp/ccheJOBr.s 			page 33


 545:Drivers/STM32G0xx_HAL_Driver/Src/stm32g0xx_hal_rcc.c ****       {
 834              		.loc 1 545 11 is_stmt 0 view .LVU283
 835 0250 8027     		movs	r7, #128
 836 0252 324E     		ldr	r6, .L125+36
 837 0254 7F00     		lsls	r7, r7, #1
 838 0256 3368     		ldr	r3, [r6]
 545:Drivers/STM32G0xx_HAL_Driver/Src/stm32g0xx_hal_rcc.c ****       {
 839              		.loc 1 545 10 view .LVU284
 840 0258 3B42     		tst	r3, r7
 841 025a 15D0     		beq	.L57
 842              	.L62:
 563:Drivers/STM32G0xx_HAL_Driver/Src/stm32g0xx_hal_rcc.c **** 
 843              		.loc 1 563 7 is_stmt 1 view .LVU285
 563:Drivers/STM32G0xx_HAL_Driver/Src/stm32g0xx_hal_rcc.c **** 
 844              		.loc 1 563 7 view .LVU286
 845 025c A368     		ldr	r3, [r4, #8]
 846 025e 012B     		cmp	r3, #1
 847 0260 22D1     		bne	.L118
 563:Drivers/STM32G0xx_HAL_Driver/Src/stm32g0xx_hal_rcc.c **** 
 848              		.loc 1 563 7 discriminator 1 view .LVU287
 849 0262 EA6D     		ldr	r2, [r5, #92]
 850              	.L124:
 563:Drivers/STM32G0xx_HAL_Driver/Src/stm32g0xx_hal_rcc.c **** 
 851              		.loc 1 563 7 is_stmt 0 discriminator 4 view .LVU288
 852 0264 1343     		orrs	r3, r2
 853 0266 EB65     		str	r3, [r5, #92]
 563:Drivers/STM32G0xx_HAL_Driver/Src/stm32g0xx_hal_rcc.c **** 
 854              		.loc 1 563 7 is_stmt 1 discriminator 7 view .LVU289
 566:Drivers/STM32G0xx_HAL_Driver/Src/stm32g0xx_hal_rcc.c ****       {
 855              		.loc 1 566 7 view .LVU290
 856              	.L63:
 569:Drivers/STM32G0xx_HAL_Driver/Src/stm32g0xx_hal_rcc.c **** 
 857              		.loc 1 569 9 view .LVU291
 569:Drivers/STM32G0xx_HAL_Driver/Src/stm32g0xx_hal_rcc.c **** 
 858              		.loc 1 569 21 is_stmt 0 view .LVU292
 859 0268 FFF7FEFF 		bl	HAL_GetTick
 860              	.LVL67:
 572:Drivers/STM32G0xx_HAL_Driver/Src/stm32g0xx_hal_rcc.c ****         {
 861              		.loc 1 572 16 view .LVU293
 862 026c 0227     		movs	r7, #2
 569:Drivers/STM32G0xx_HAL_Driver/Src/stm32g0xx_hal_rcc.c **** 
 863              		.loc 1 569 21 view .LVU294
 864 026e 0600     		movs	r6, r0
 865              	.LVL68:
 572:Drivers/STM32G0xx_HAL_Driver/Src/stm32g0xx_hal_rcc.c ****         {
 866              		.loc 1 572 9 is_stmt 1 view .LVU295
 867              	.L66:
 572:Drivers/STM32G0xx_HAL_Driver/Src/stm32g0xx_hal_rcc.c ****         {
 868              		.loc 1 572 53 view .LVU296
 572:Drivers/STM32G0xx_HAL_Driver/Src/stm32g0xx_hal_rcc.c ****         {
 869              		.loc 1 572 16 is_stmt 0 view .LVU297
 870 0270 EB6D     		ldr	r3, [r5, #92]
 572:Drivers/STM32G0xx_HAL_Driver/Src/stm32g0xx_hal_rcc.c ****         {
 871              		.loc 1 572 53 view .LVU298
 872 0272 3B42     		tst	r3, r7
 873 0274 38D0     		beq	.L67
 874              	.L71:
ARM GAS  /tmp/ccheJOBr.s 			page 34


 596:Drivers/STM32G0xx_HAL_Driver/Src/stm32g0xx_hal_rcc.c ****       {
 875              		.loc 1 596 7 is_stmt 1 view .LVU299
 596:Drivers/STM32G0xx_HAL_Driver/Src/stm32g0xx_hal_rcc.c ****       {
 876              		.loc 1 596 10 is_stmt 0 view .LVU300
 877 0276 009B     		ldr	r3, [sp]
 878 0278 012B     		cmp	r3, #1
 879 027a 00D0     		beq	.LCB758
 880 027c D6E6     		b	.L54	@long jump
 881              	.LCB758:
 598:Drivers/STM32G0xx_HAL_Driver/Src/stm32g0xx_hal_rcc.c ****       }
 882              		.loc 1 598 9 is_stmt 1 view .LVU301
 883 027e EB6B     		ldr	r3, [r5, #60]
 884 0280 274A     		ldr	r2, .L125+40
 885 0282 1340     		ands	r3, r2
 886 0284 EB63     		str	r3, [r5, #60]
 887 0286 D1E6     		b	.L54
 888              	.LVL69:
 889              	.L57:
 548:Drivers/STM32G0xx_HAL_Driver/Src/stm32g0xx_hal_rcc.c **** 
 890              		.loc 1 548 9 view .LVU302
 891 0288 3368     		ldr	r3, [r6]
 892 028a 3B43     		orrs	r3, r7
 893 028c 3360     		str	r3, [r6]
 551:Drivers/STM32G0xx_HAL_Driver/Src/stm32g0xx_hal_rcc.c **** 
 894              		.loc 1 551 9 view .LVU303
 551:Drivers/STM32G0xx_HAL_Driver/Src/stm32g0xx_hal_rcc.c **** 
 895              		.loc 1 551 21 is_stmt 0 view .LVU304
 896 028e FFF7FEFF 		bl	HAL_GetTick
 897              	.LVL70:
 898 0292 0190     		str	r0, [sp, #4]
 899              	.LVL71:
 553:Drivers/STM32G0xx_HAL_Driver/Src/stm32g0xx_hal_rcc.c ****         {
 900              		.loc 1 553 9 is_stmt 1 view .LVU305
 901              	.L60:
 553:Drivers/STM32G0xx_HAL_Driver/Src/stm32g0xx_hal_rcc.c ****         {
 902              		.loc 1 553 16 view .LVU306
 903 0294 3368     		ldr	r3, [r6]
 904 0296 3B42     		tst	r3, r7
 905 0298 E0D1     		bne	.L62
 555:Drivers/STM32G0xx_HAL_Driver/Src/stm32g0xx_hal_rcc.c ****           {
 906              		.loc 1 555 11 view .LVU307
 555:Drivers/STM32G0xx_HAL_Driver/Src/stm32g0xx_hal_rcc.c ****           {
 907              		.loc 1 555 16 is_stmt 0 view .LVU308
 908 029a FFF7FEFF 		bl	HAL_GetTick
 909              	.LVL72:
 555:Drivers/STM32G0xx_HAL_Driver/Src/stm32g0xx_hal_rcc.c ****           {
 910              		.loc 1 555 30 discriminator 1 view .LVU309
 911 029e 019B     		ldr	r3, [sp, #4]
 912 02a0 C01A     		subs	r0, r0, r3
 555:Drivers/STM32G0xx_HAL_Driver/Src/stm32g0xx_hal_rcc.c ****           {
 913              		.loc 1 555 14 discriminator 1 view .LVU310
 914 02a2 0228     		cmp	r0, #2
 915 02a4 F6D9     		bls	.L60
 916 02a6 EFE6     		b	.L31
 917              	.LVL73:
 918              	.L118:
 563:Drivers/STM32G0xx_HAL_Driver/Src/stm32g0xx_hal_rcc.c **** 
ARM GAS  /tmp/ccheJOBr.s 			page 35


 919              		.loc 1 563 7 is_stmt 1 discriminator 2 view .LVU311
 563:Drivers/STM32G0xx_HAL_Driver/Src/stm32g0xx_hal_rcc.c **** 
 920              		.loc 1 563 7 is_stmt 0 discriminator 4 view .LVU312
 921 02a8 EA6D     		ldr	r2, [r5, #92]
 563:Drivers/STM32G0xx_HAL_Driver/Src/stm32g0xx_hal_rcc.c **** 
 922              		.loc 1 563 7 discriminator 2 view .LVU313
 923 02aa 052B     		cmp	r3, #5
 924 02ac 05D1     		bne	.L64
 563:Drivers/STM32G0xx_HAL_Driver/Src/stm32g0xx_hal_rcc.c **** 
 925              		.loc 1 563 7 is_stmt 1 discriminator 4 view .LVU314
 926 02ae 013B     		subs	r3, r3, #1
 927 02b0 1343     		orrs	r3, r2
 928 02b2 EB65     		str	r3, [r5, #92]
 563:Drivers/STM32G0xx_HAL_Driver/Src/stm32g0xx_hal_rcc.c **** 
 929              		.loc 1 563 7 discriminator 4 view .LVU315
 930 02b4 EA6D     		ldr	r2, [r5, #92]
 931 02b6 0123     		movs	r3, #1
 932 02b8 D4E7     		b	.L124
 933              	.L64:
 563:Drivers/STM32G0xx_HAL_Driver/Src/stm32g0xx_hal_rcc.c **** 
 934              		.loc 1 563 7 discriminator 5 view .LVU316
 935 02ba 0121     		movs	r1, #1
 936 02bc 8A43     		bics	r2, r1
 937 02be EA65     		str	r2, [r5, #92]
 563:Drivers/STM32G0xx_HAL_Driver/Src/stm32g0xx_hal_rcc.c **** 
 938              		.loc 1 563 7 discriminator 5 view .LVU317
 939 02c0 EA6D     		ldr	r2, [r5, #92]
 940 02c2 0331     		adds	r1, r1, #3
 941 02c4 8A43     		bics	r2, r1
 942 02c6 EA65     		str	r2, [r5, #92]
 563:Drivers/STM32G0xx_HAL_Driver/Src/stm32g0xx_hal_rcc.c **** 
 943              		.loc 1 563 7 discriminator 7 view .LVU318
 566:Drivers/STM32G0xx_HAL_Driver/Src/stm32g0xx_hal_rcc.c ****       {
 944              		.loc 1 566 7 view .LVU319
 566:Drivers/STM32G0xx_HAL_Driver/Src/stm32g0xx_hal_rcc.c ****       {
 945              		.loc 1 566 10 is_stmt 0 view .LVU320
 946 02c8 002B     		cmp	r3, #0
 947 02ca CDD1     		bne	.L63
 583:Drivers/STM32G0xx_HAL_Driver/Src/stm32g0xx_hal_rcc.c **** 
 948              		.loc 1 583 9 is_stmt 1 view .LVU321
 583:Drivers/STM32G0xx_HAL_Driver/Src/stm32g0xx_hal_rcc.c **** 
 949              		.loc 1 583 21 is_stmt 0 view .LVU322
 950 02cc FFF7FEFF 		bl	HAL_GetTick
 951              	.LVL74:
 586:Drivers/STM32G0xx_HAL_Driver/Src/stm32g0xx_hal_rcc.c ****         {
 952              		.loc 1 586 16 view .LVU323
 953 02d0 0227     		movs	r7, #2
 583:Drivers/STM32G0xx_HAL_Driver/Src/stm32g0xx_hal_rcc.c **** 
 954              		.loc 1 583 21 view .LVU324
 955 02d2 0600     		movs	r6, r0
 956              	.LVL75:
 586:Drivers/STM32G0xx_HAL_Driver/Src/stm32g0xx_hal_rcc.c ****         {
 957              		.loc 1 586 9 is_stmt 1 view .LVU325
 958              	.L69:
 586:Drivers/STM32G0xx_HAL_Driver/Src/stm32g0xx_hal_rcc.c ****         {
 959              		.loc 1 586 53 view .LVU326
 586:Drivers/STM32G0xx_HAL_Driver/Src/stm32g0xx_hal_rcc.c ****         {
ARM GAS  /tmp/ccheJOBr.s 			page 36


 960              		.loc 1 586 16 is_stmt 0 view .LVU327
 961 02d4 EB6D     		ldr	r3, [r5, #92]
 586:Drivers/STM32G0xx_HAL_Driver/Src/stm32g0xx_hal_rcc.c ****         {
 962              		.loc 1 586 53 view .LVU328
 963 02d6 3B42     		tst	r3, r7
 964 02d8 CDD0     		beq	.L71
 588:Drivers/STM32G0xx_HAL_Driver/Src/stm32g0xx_hal_rcc.c ****           {
 965              		.loc 1 588 11 is_stmt 1 view .LVU329
 588:Drivers/STM32G0xx_HAL_Driver/Src/stm32g0xx_hal_rcc.c ****           {
 966              		.loc 1 588 16 is_stmt 0 view .LVU330
 967 02da FFF7FEFF 		bl	HAL_GetTick
 968              	.LVL76:
 588:Drivers/STM32G0xx_HAL_Driver/Src/stm32g0xx_hal_rcc.c ****           {
 969              		.loc 1 588 14 discriminator 1 view .LVU331
 970 02de 114B     		ldr	r3, .L125+44
 588:Drivers/STM32G0xx_HAL_Driver/Src/stm32g0xx_hal_rcc.c ****           {
 971              		.loc 1 588 30 discriminator 1 view .LVU332
 972 02e0 801B     		subs	r0, r0, r6
 588:Drivers/STM32G0xx_HAL_Driver/Src/stm32g0xx_hal_rcc.c ****           {
 973              		.loc 1 588 14 discriminator 1 view .LVU333
 974 02e2 9842     		cmp	r0, r3
 975 02e4 F6D9     		bls	.L69
 976 02e6 CFE6     		b	.L31
 977              	.L67:
 574:Drivers/STM32G0xx_HAL_Driver/Src/stm32g0xx_hal_rcc.c ****           {
 978              		.loc 1 574 11 is_stmt 1 view .LVU334
 574:Drivers/STM32G0xx_HAL_Driver/Src/stm32g0xx_hal_rcc.c ****           {
 979              		.loc 1 574 16 is_stmt 0 view .LVU335
 980 02e8 FFF7FEFF 		bl	HAL_GetTick
 981              	.LVL77:
 574:Drivers/STM32G0xx_HAL_Driver/Src/stm32g0xx_hal_rcc.c ****           {
 982              		.loc 1 574 14 discriminator 1 view .LVU336
 983 02ec 0D4B     		ldr	r3, .L125+44
 574:Drivers/STM32G0xx_HAL_Driver/Src/stm32g0xx_hal_rcc.c ****           {
 984              		.loc 1 574 30 discriminator 1 view .LVU337
 985 02ee 801B     		subs	r0, r0, r6
 574:Drivers/STM32G0xx_HAL_Driver/Src/stm32g0xx_hal_rcc.c ****           {
 986              		.loc 1 574 14 discriminator 1 view .LVU338
 987 02f0 9842     		cmp	r0, r3
 988 02f2 BDD9     		bls	.L66
 989 02f4 C8E6     		b	.L31
 990              	.L126:
 991 02f6 C046     		.align	2
 992              	.L125:
 993 02f8 00100240 		.word	1073876992
 994 02fc FFFFFEFF 		.word	-65537
 995 0300 FFFFFBFF 		.word	-262145
 996 0304 FF80FFFF 		.word	-32513
 997 0308 FFC7FFFF 		.word	-14337
 998 030c 00000000 		.word	SystemCoreClock
 999 0310 0024F400 		.word	16000000
 1000 0314 00000000 		.word	uwTickPrio
 1001 0318 FFFEFFFF 		.word	-257
 1002 031c 00700040 		.word	1073770496
 1003 0320 FFFFFFEF 		.word	-268435457
 1004 0324 88130000 		.word	5000
 1005              	.LVL78:
ARM GAS  /tmp/ccheJOBr.s 			page 37


 1006              	.L72:
 574:Drivers/STM32G0xx_HAL_Driver/Src/stm32g0xx_hal_rcc.c ****           {
 1007              		.loc 1 574 14 discriminator 1 view .LVU339
 1008              	.LBE6:
 653:Drivers/STM32G0xx_HAL_Driver/Src/stm32g0xx_hal_rcc.c ****     {
 1009              		.loc 1 653 5 is_stmt 1 view .LVU340
 653:Drivers/STM32G0xx_HAL_Driver/Src/stm32g0xx_hal_rcc.c ****     {
 1010              		.loc 1 653 9 is_stmt 0 view .LVU341
 1011 0328 3821     		movs	r1, #56
 1012 032a 3F4D     		ldr	r5, .L127
 1013 032c AA68     		ldr	r2, [r5, #8]
 1014 032e 0A40     		ands	r2, r1
 653:Drivers/STM32G0xx_HAL_Driver/Src/stm32g0xx_hal_rcc.c ****     {
 1015              		.loc 1 653 8 view .LVU342
 1016 0330 102A     		cmp	r2, #16
 1017 0332 51D0     		beq	.L73
 655:Drivers/STM32G0xx_HAL_Driver/Src/stm32g0xx_hal_rcc.c ****       {
 1018              		.loc 1 655 7 is_stmt 1 view .LVU343
 1019 0334 3D4A     		ldr	r2, .L127+4
 655:Drivers/STM32G0xx_HAL_Driver/Src/stm32g0xx_hal_rcc.c ****       {
 1020              		.loc 1 655 10 is_stmt 0 view .LVU344
 1021 0336 022B     		cmp	r3, #2
 1022 0338 38D1     		bne	.L74
 658:Drivers/STM32G0xx_HAL_Driver/Src/stm32g0xx_hal_rcc.c ****         assert_param(IS_RCC_PLLM_VALUE(RCC_OscInitStruct->PLL.PLLM));
 1023              		.loc 1 658 9 is_stmt 1 view .LVU345
 659:Drivers/STM32G0xx_HAL_Driver/Src/stm32g0xx_hal_rcc.c ****         assert_param(IS_RCC_PLLN_VALUE(RCC_OscInitStruct->PLL.PLLN));
 1024              		.loc 1 659 9 view .LVU346
 660:Drivers/STM32G0xx_HAL_Driver/Src/stm32g0xx_hal_rcc.c ****         assert_param(IS_RCC_PLLP_VALUE(RCC_OscInitStruct->PLL.PLLP));
 1025              		.loc 1 660 9 view .LVU347
 661:Drivers/STM32G0xx_HAL_Driver/Src/stm32g0xx_hal_rcc.c **** #if defined(RCC_PLLQ_SUPPORT)
 1026              		.loc 1 661 9 view .LVU348
 665:Drivers/STM32G0xx_HAL_Driver/Src/stm32g0xx_hal_rcc.c **** 
 1027              		.loc 1 665 9 view .LVU349
 668:Drivers/STM32G0xx_HAL_Driver/Src/stm32g0xx_hal_rcc.c **** 
 1028              		.loc 1 668 9 view .LVU350
 1029 033a 2B68     		ldr	r3, [r5]
 674:Drivers/STM32G0xx_HAL_Driver/Src/stm32g0xx_hal_rcc.c ****         {
 1030              		.loc 1 674 16 is_stmt 0 view .LVU351
 1031 033c 8027     		movs	r7, #128
 668:Drivers/STM32G0xx_HAL_Driver/Src/stm32g0xx_hal_rcc.c **** 
 1032              		.loc 1 668 9 view .LVU352
 1033 033e 1340     		ands	r3, r2
 1034 0340 2B60     		str	r3, [r5]
 671:Drivers/STM32G0xx_HAL_Driver/Src/stm32g0xx_hal_rcc.c **** 
 1035              		.loc 1 671 9 is_stmt 1 view .LVU353
 671:Drivers/STM32G0xx_HAL_Driver/Src/stm32g0xx_hal_rcc.c **** 
 1036              		.loc 1 671 21 is_stmt 0 view .LVU354
 1037 0342 FFF7FEFF 		bl	HAL_GetTick
 1038              	.LVL79:
 1039 0346 0600     		movs	r6, r0
 1040              	.LVL80:
 674:Drivers/STM32G0xx_HAL_Driver/Src/stm32g0xx_hal_rcc.c ****         {
 1041              		.loc 1 674 9 is_stmt 1 view .LVU355
 674:Drivers/STM32G0xx_HAL_Driver/Src/stm32g0xx_hal_rcc.c ****         {
 1042              		.loc 1 674 16 is_stmt 0 view .LVU356
 1043 0348 BF04     		lsls	r7, r7, #18
 1044              	.LVL81:
ARM GAS  /tmp/ccheJOBr.s 			page 38


 1045              	.L75:
 674:Drivers/STM32G0xx_HAL_Driver/Src/stm32g0xx_hal_rcc.c ****         {
 1046              		.loc 1 674 49 is_stmt 1 view .LVU357
 674:Drivers/STM32G0xx_HAL_Driver/Src/stm32g0xx_hal_rcc.c ****         {
 1047              		.loc 1 674 16 is_stmt 0 view .LVU358
 1048 034a 2B68     		ldr	r3, [r5]
 674:Drivers/STM32G0xx_HAL_Driver/Src/stm32g0xx_hal_rcc.c ****         {
 1049              		.loc 1 674 49 view .LVU359
 1050 034c 3B42     		tst	r3, r7
 1051 034e 27D1     		bne	.L76
 691:Drivers/STM32G0xx_HAL_Driver/Src/stm32g0xx_hal_rcc.c ****                              RCC_OscInitStruct->PLL.PLLM,
 1052              		.loc 1 691 9 is_stmt 1 view .LVU360
 1053 0350 616A     		ldr	r1, [r4, #36]
 1054 0352 236A     		ldr	r3, [r4, #32]
 1055 0354 EA68     		ldr	r2, [r5, #12]
 1056 0356 0B43     		orrs	r3, r1
 1057 0358 3549     		ldr	r1, .L127+8
 708:Drivers/STM32G0xx_HAL_Driver/Src/stm32g0xx_hal_rcc.c ****         {
 1058              		.loc 1 708 16 is_stmt 0 view .LVU361
 1059 035a 8026     		movs	r6, #128
 1060              	.LVL82:
 691:Drivers/STM32G0xx_HAL_Driver/Src/stm32g0xx_hal_rcc.c ****                              RCC_OscInitStruct->PLL.PLLM,
 1061              		.loc 1 691 9 view .LVU362
 1062 035c 0A40     		ands	r2, r1
 1063 035e 1343     		orrs	r3, r2
 1064 0360 E26A     		ldr	r2, [r4, #44]
 708:Drivers/STM32G0xx_HAL_Driver/Src/stm32g0xx_hal_rcc.c ****         {
 1065              		.loc 1 708 16 view .LVU363
 1066 0362 B604     		lsls	r6, r6, #18
 691:Drivers/STM32G0xx_HAL_Driver/Src/stm32g0xx_hal_rcc.c ****                              RCC_OscInitStruct->PLL.PLLM,
 1067              		.loc 1 691 9 view .LVU364
 1068 0364 1343     		orrs	r3, r2
 1069 0366 226B     		ldr	r2, [r4, #48]
 1070 0368 1343     		orrs	r3, r2
 1071 036a A26A     		ldr	r2, [r4, #40]
 1072 036c 1202     		lsls	r2, r2, #8
 1073 036e 1343     		orrs	r3, r2
 1074 0370 EB60     		str	r3, [r5, #12]
 699:Drivers/STM32G0xx_HAL_Driver/Src/stm32g0xx_hal_rcc.c **** 
 1075              		.loc 1 699 9 is_stmt 1 view .LVU365
 1076 0372 8023     		movs	r3, #128
 1077 0374 2A68     		ldr	r2, [r5]
 1078 0376 5B04     		lsls	r3, r3, #17
 1079 0378 1343     		orrs	r3, r2
 1080 037a 2B60     		str	r3, [r5]
 702:Drivers/STM32G0xx_HAL_Driver/Src/stm32g0xx_hal_rcc.c **** 
 1081              		.loc 1 702 9 view .LVU366
 1082 037c 8023     		movs	r3, #128
 1083 037e EA68     		ldr	r2, [r5, #12]
 1084 0380 5B05     		lsls	r3, r3, #21
 1085 0382 1343     		orrs	r3, r2
 1086 0384 EB60     		str	r3, [r5, #12]
 705:Drivers/STM32G0xx_HAL_Driver/Src/stm32g0xx_hal_rcc.c **** 
 1087              		.loc 1 705 9 view .LVU367
 705:Drivers/STM32G0xx_HAL_Driver/Src/stm32g0xx_hal_rcc.c **** 
 1088              		.loc 1 705 21 is_stmt 0 view .LVU368
 1089 0386 FFF7FEFF 		bl	HAL_GetTick
ARM GAS  /tmp/ccheJOBr.s 			page 39


 1090              	.LVL83:
 1091 038a 0400     		movs	r4, r0
 1092              	.LVL84:
 708:Drivers/STM32G0xx_HAL_Driver/Src/stm32g0xx_hal_rcc.c ****         {
 1093              		.loc 1 708 9 is_stmt 1 view .LVU369
 1094              	.L77:
 708:Drivers/STM32G0xx_HAL_Driver/Src/stm32g0xx_hal_rcc.c ****         {
 1095              		.loc 1 708 49 view .LVU370
 708:Drivers/STM32G0xx_HAL_Driver/Src/stm32g0xx_hal_rcc.c ****         {
 1096              		.loc 1 708 16 is_stmt 0 view .LVU371
 1097 038c 2B68     		ldr	r3, [r5]
 708:Drivers/STM32G0xx_HAL_Driver/Src/stm32g0xx_hal_rcc.c ****         {
 1098              		.loc 1 708 49 view .LVU372
 1099 038e 3342     		tst	r3, r6
 1100 0390 00D0     		beq	.LCB965
 1101 0392 4FE6     		b	.L82	@long jump
 1102              	.LCB965:
 710:Drivers/STM32G0xx_HAL_Driver/Src/stm32g0xx_hal_rcc.c ****           {
 1103              		.loc 1 710 11 is_stmt 1 view .LVU373
 710:Drivers/STM32G0xx_HAL_Driver/Src/stm32g0xx_hal_rcc.c ****           {
 1104              		.loc 1 710 16 is_stmt 0 view .LVU374
 1105 0394 FFF7FEFF 		bl	HAL_GetTick
 1106              	.LVL85:
 710:Drivers/STM32G0xx_HAL_Driver/Src/stm32g0xx_hal_rcc.c ****           {
 1107              		.loc 1 710 30 discriminator 1 view .LVU375
 1108 0398 001B     		subs	r0, r0, r4
 710:Drivers/STM32G0xx_HAL_Driver/Src/stm32g0xx_hal_rcc.c ****           {
 1109              		.loc 1 710 14 discriminator 1 view .LVU376
 1110 039a 0228     		cmp	r0, #2
 1111 039c F6D9     		bls	.L77
 1112 039e 73E6     		b	.L31
 1113              	.LVL86:
 1114              	.L76:
 676:Drivers/STM32G0xx_HAL_Driver/Src/stm32g0xx_hal_rcc.c ****           {
 1115              		.loc 1 676 11 is_stmt 1 view .LVU377
 676:Drivers/STM32G0xx_HAL_Driver/Src/stm32g0xx_hal_rcc.c ****           {
 1116              		.loc 1 676 16 is_stmt 0 view .LVU378
 1117 03a0 FFF7FEFF 		bl	HAL_GetTick
 1118              	.LVL87:
 676:Drivers/STM32G0xx_HAL_Driver/Src/stm32g0xx_hal_rcc.c ****           {
 1119              		.loc 1 676 30 discriminator 1 view .LVU379
 1120 03a4 801B     		subs	r0, r0, r6
 676:Drivers/STM32G0xx_HAL_Driver/Src/stm32g0xx_hal_rcc.c ****           {
 1121              		.loc 1 676 14 discriminator 1 view .LVU380
 1122 03a6 0228     		cmp	r0, #2
 1123 03a8 CFD9     		bls	.L75
 1124 03aa 6DE6     		b	.L31
 1125              	.LVL88:
 1126              	.L74:
 719:Drivers/STM32G0xx_HAL_Driver/Src/stm32g0xx_hal_rcc.c **** 
 1127              		.loc 1 719 9 is_stmt 1 view .LVU381
 1128 03ac 2B68     		ldr	r3, [r5]
 725:Drivers/STM32G0xx_HAL_Driver/Src/stm32g0xx_hal_rcc.c ****         {
 1129              		.loc 1 725 16 is_stmt 0 view .LVU382
 1130 03ae 8026     		movs	r6, #128
 719:Drivers/STM32G0xx_HAL_Driver/Src/stm32g0xx_hal_rcc.c **** 
 1131              		.loc 1 719 9 view .LVU383
ARM GAS  /tmp/ccheJOBr.s 			page 40


 1132 03b0 1340     		ands	r3, r2
 1133 03b2 2B60     		str	r3, [r5]
 722:Drivers/STM32G0xx_HAL_Driver/Src/stm32g0xx_hal_rcc.c **** 
 1134              		.loc 1 722 9 is_stmt 1 view .LVU384
 722:Drivers/STM32G0xx_HAL_Driver/Src/stm32g0xx_hal_rcc.c **** 
 1135              		.loc 1 722 21 is_stmt 0 view .LVU385
 1136 03b4 FFF7FEFF 		bl	HAL_GetTick
 1137              	.LVL89:
 1138 03b8 0400     		movs	r4, r0
 1139              	.LVL90:
 725:Drivers/STM32G0xx_HAL_Driver/Src/stm32g0xx_hal_rcc.c ****         {
 1140              		.loc 1 725 9 is_stmt 1 view .LVU386
 725:Drivers/STM32G0xx_HAL_Driver/Src/stm32g0xx_hal_rcc.c ****         {
 1141              		.loc 1 725 16 is_stmt 0 view .LVU387
 1142 03ba B604     		lsls	r6, r6, #18
 1143              	.LVL91:
 1144              	.L80:
 725:Drivers/STM32G0xx_HAL_Driver/Src/stm32g0xx_hal_rcc.c ****         {
 1145              		.loc 1 725 49 is_stmt 1 view .LVU388
 725:Drivers/STM32G0xx_HAL_Driver/Src/stm32g0xx_hal_rcc.c ****         {
 1146              		.loc 1 725 16 is_stmt 0 view .LVU389
 1147 03bc 2B68     		ldr	r3, [r5]
 725:Drivers/STM32G0xx_HAL_Driver/Src/stm32g0xx_hal_rcc.c ****         {
 1148              		.loc 1 725 49 view .LVU390
 1149 03be 3342     		tst	r3, r6
 1150 03c0 04D1     		bne	.L81
 736:Drivers/STM32G0xx_HAL_Driver/Src/stm32g0xx_hal_rcc.c **** #endif /* RCC_PLLQ_SUPPORT */
 1151              		.loc 1 736 9 is_stmt 1 view .LVU391
 736:Drivers/STM32G0xx_HAL_Driver/Src/stm32g0xx_hal_rcc.c **** #endif /* RCC_PLLQ_SUPPORT */
 1152              		.loc 1 736 12 is_stmt 0 view .LVU392
 1153 03c2 EB68     		ldr	r3, [r5, #12]
 736:Drivers/STM32G0xx_HAL_Driver/Src/stm32g0xx_hal_rcc.c **** #endif /* RCC_PLLQ_SUPPORT */
 1154              		.loc 1 736 22 view .LVU393
 1155 03c4 1B4A     		ldr	r2, .L127+12
 1156 03c6 1340     		ands	r3, r2
 1157 03c8 EB60     		str	r3, [r5, #12]
 1158 03ca 33E6     		b	.L82
 1159              	.L81:
 727:Drivers/STM32G0xx_HAL_Driver/Src/stm32g0xx_hal_rcc.c ****           {
 1160              		.loc 1 727 11 is_stmt 1 view .LVU394
 727:Drivers/STM32G0xx_HAL_Driver/Src/stm32g0xx_hal_rcc.c ****           {
 1161              		.loc 1 727 16 is_stmt 0 view .LVU395
 1162 03cc FFF7FEFF 		bl	HAL_GetTick
 1163              	.LVL92:
 727:Drivers/STM32G0xx_HAL_Driver/Src/stm32g0xx_hal_rcc.c ****           {
 1164              		.loc 1 727 30 discriminator 1 view .LVU396
 1165 03d0 001B     		subs	r0, r0, r4
 727:Drivers/STM32G0xx_HAL_Driver/Src/stm32g0xx_hal_rcc.c ****           {
 1166              		.loc 1 727 14 discriminator 1 view .LVU397
 1167 03d2 0228     		cmp	r0, #2
 1168 03d4 F2D9     		bls	.L80
 1169 03d6 57E6     		b	.L31
 1170              	.LVL93:
 1171              	.L73:
 743:Drivers/STM32G0xx_HAL_Driver/Src/stm32g0xx_hal_rcc.c ****       {
 1172              		.loc 1 743 7 is_stmt 1 view .LVU398
 743:Drivers/STM32G0xx_HAL_Driver/Src/stm32g0xx_hal_rcc.c ****       {
ARM GAS  /tmp/ccheJOBr.s 			page 41


 1173              		.loc 1 743 10 is_stmt 0 view .LVU399
 1174 03d8 012B     		cmp	r3, #1
 1175 03da 00D1     		bne	.LCB1032
 1176 03dc 15E6     		b	.L23	@long jump
 1177              	.LCB1032:
 750:Drivers/STM32G0xx_HAL_Driver/Src/stm32g0xx_hal_rcc.c ****         if ((READ_BIT(temp_pllckcfg, RCC_PLLCFGR_PLLSRC) != RCC_OscInitStruct->PLL.PLLSource) ||
 1178              		.loc 1 750 9 is_stmt 1 view .LVU400
 751:Drivers/STM32G0xx_HAL_Driver/Src/stm32g0xx_hal_rcc.c ****             (READ_BIT(temp_pllckcfg, RCC_PLLCFGR_PLLM) != RCC_OscInitStruct->PLL.PLLM) ||
 1179              		.loc 1 751 14 is_stmt 0 view .LVU401
 1180 03de 0322     		movs	r2, #3
 750:Drivers/STM32G0xx_HAL_Driver/Src/stm32g0xx_hal_rcc.c ****         if ((READ_BIT(temp_pllckcfg, RCC_PLLCFGR_PLLSRC) != RCC_OscInitStruct->PLL.PLLSource) ||
 1181              		.loc 1 750 23 view .LVU402
 1182 03e0 E868     		ldr	r0, [r5, #12]
 1183              	.LVL94:
 751:Drivers/STM32G0xx_HAL_Driver/Src/stm32g0xx_hal_rcc.c ****             (READ_BIT(temp_pllckcfg, RCC_PLLCFGR_PLLM) != RCC_OscInitStruct->PLL.PLLM) ||
 1184              		.loc 1 751 9 is_stmt 1 view .LVU403
 751:Drivers/STM32G0xx_HAL_Driver/Src/stm32g0xx_hal_rcc.c ****             (READ_BIT(temp_pllckcfg, RCC_PLLCFGR_PLLM) != RCC_OscInitStruct->PLL.PLLM) ||
 1185              		.loc 1 751 12 is_stmt 0 view .LVU404
 1186 03e2 216A     		ldr	r1, [r4, #32]
 751:Drivers/STM32G0xx_HAL_Driver/Src/stm32g0xx_hal_rcc.c ****             (READ_BIT(temp_pllckcfg, RCC_PLLCFGR_PLLM) != RCC_OscInitStruct->PLL.PLLM) ||
 1187              		.loc 1 751 14 view .LVU405
 1188 03e4 0240     		ands	r2, r0
 751:Drivers/STM32G0xx_HAL_Driver/Src/stm32g0xx_hal_rcc.c ****             (READ_BIT(temp_pllckcfg, RCC_PLLCFGR_PLLM) != RCC_OscInitStruct->PLL.PLLM) ||
 1189              		.loc 1 751 12 view .LVU406
 1190 03e6 8A42     		cmp	r2, r1
 1191 03e8 00D0     		beq	.LCB1041
 1192 03ea 0EE6     		b	.L23	@long jump
 1193              	.LCB1041:
 752:Drivers/STM32G0xx_HAL_Driver/Src/stm32g0xx_hal_rcc.c ****             (READ_BIT(temp_pllckcfg, RCC_PLLCFGR_PLLN) != (RCC_OscInitStruct->PLL.PLLN << RCC_PLLCF
 1194              		.loc 1 752 14 view .LVU407
 1195 03ec 7022     		movs	r2, #112
 751:Drivers/STM32G0xx_HAL_Driver/Src/stm32g0xx_hal_rcc.c ****             (READ_BIT(temp_pllckcfg, RCC_PLLCFGR_PLLM) != RCC_OscInitStruct->PLL.PLLM) ||
 1196              		.loc 1 751 95 discriminator 1 view .LVU408
 1197 03ee 616A     		ldr	r1, [r4, #36]
 752:Drivers/STM32G0xx_HAL_Driver/Src/stm32g0xx_hal_rcc.c ****             (READ_BIT(temp_pllckcfg, RCC_PLLCFGR_PLLN) != (RCC_OscInitStruct->PLL.PLLN << RCC_PLLCF
 1198              		.loc 1 752 14 view .LVU409
 1199 03f0 0240     		ands	r2, r0
 751:Drivers/STM32G0xx_HAL_Driver/Src/stm32g0xx_hal_rcc.c ****             (READ_BIT(temp_pllckcfg, RCC_PLLCFGR_PLLM) != RCC_OscInitStruct->PLL.PLLM) ||
 1200              		.loc 1 751 95 discriminator 1 view .LVU410
 1201 03f2 8A42     		cmp	r2, r1
 1202 03f4 00D0     		beq	.LCB1046
 1203 03f6 08E6     		b	.L23	@long jump
 1204              	.LCB1046:
 753:Drivers/STM32G0xx_HAL_Driver/Src/stm32g0xx_hal_rcc.c ****             (READ_BIT(temp_pllckcfg, RCC_PLLCFGR_PLLP) != RCC_OscInitStruct->PLL.PLLP) ||
 1205              		.loc 1 753 14 view .LVU411
 1206 03f8 FE21     		movs	r1, #254
 753:Drivers/STM32G0xx_HAL_Driver/Src/stm32g0xx_hal_rcc.c ****             (READ_BIT(temp_pllckcfg, RCC_PLLCFGR_PLLP) != RCC_OscInitStruct->PLL.PLLP) ||
 1207              		.loc 1 753 88 view .LVU412
 1208 03fa A26A     		ldr	r2, [r4, #40]
 753:Drivers/STM32G0xx_HAL_Driver/Src/stm32g0xx_hal_rcc.c ****             (READ_BIT(temp_pllckcfg, RCC_PLLCFGR_PLLP) != RCC_OscInitStruct->PLL.PLLP) ||
 1209              		.loc 1 753 14 view .LVU413
 1210 03fc C901     		lsls	r1, r1, #7
 1211 03fe 0140     		ands	r1, r0
 753:Drivers/STM32G0xx_HAL_Driver/Src/stm32g0xx_hal_rcc.c ****             (READ_BIT(temp_pllckcfg, RCC_PLLCFGR_PLLP) != RCC_OscInitStruct->PLL.PLLP) ||
 1212              		.loc 1 753 88 view .LVU414
 1213 0400 1202     		lsls	r2, r2, #8
 752:Drivers/STM32G0xx_HAL_Driver/Src/stm32g0xx_hal_rcc.c ****             (READ_BIT(temp_pllckcfg, RCC_PLLCFGR_PLLN) != (RCC_OscInitStruct->PLL.PLLN << RCC_PLLCF
ARM GAS  /tmp/ccheJOBr.s 			page 42


 1214              		.loc 1 752 88 view .LVU415
 1215 0402 9142     		cmp	r1, r2
 1216 0404 00D0     		beq	.LCB1053
 1217 0406 00E6     		b	.L23	@long jump
 1218              	.LCB1053:
 754:Drivers/STM32G0xx_HAL_Driver/Src/stm32g0xx_hal_rcc.c **** #if defined (RCC_PLLQ_SUPPORT)
 1219              		.loc 1 754 14 view .LVU416
 1220 0408 F822     		movs	r2, #248
 753:Drivers/STM32G0xx_HAL_Driver/Src/stm32g0xx_hal_rcc.c ****             (READ_BIT(temp_pllckcfg, RCC_PLLCFGR_PLLP) != RCC_OscInitStruct->PLL.PLLP) ||
 1221              		.loc 1 753 114 view .LVU417
 1222 040a E16A     		ldr	r1, [r4, #44]
 754:Drivers/STM32G0xx_HAL_Driver/Src/stm32g0xx_hal_rcc.c **** #if defined (RCC_PLLQ_SUPPORT)
 1223              		.loc 1 754 14 view .LVU418
 1224 040c 9203     		lsls	r2, r2, #14
 1225 040e 0240     		ands	r2, r0
 753:Drivers/STM32G0xx_HAL_Driver/Src/stm32g0xx_hal_rcc.c ****             (READ_BIT(temp_pllckcfg, RCC_PLLCFGR_PLLP) != RCC_OscInitStruct->PLL.PLLP) ||
 1226              		.loc 1 753 114 view .LVU419
 1227 0410 8A42     		cmp	r2, r1
 1228 0412 00D0     		beq	.LCB1059
 1229 0414 F9E5     		b	.L23	@long jump
 1230              	.LCB1059:
 754:Drivers/STM32G0xx_HAL_Driver/Src/stm32g0xx_hal_rcc.c **** #if defined (RCC_PLLQ_SUPPORT)
 1231              		.loc 1 754 88 view .LVU420
 1232 0416 236B     		ldr	r3, [r4, #48]
 758:Drivers/STM32G0xx_HAL_Driver/Src/stm32g0xx_hal_rcc.c ****         {
 1233              		.loc 1 758 14 view .LVU421
 1234 0418 400F     		lsrs	r0, r0, #29
 1235              	.LVL95:
 758:Drivers/STM32G0xx_HAL_Driver/Src/stm32g0xx_hal_rcc.c ****         {
 1236              		.loc 1 758 14 view .LVU422
 1237 041a 4007     		lsls	r0, r0, #29
 754:Drivers/STM32G0xx_HAL_Driver/Src/stm32g0xx_hal_rcc.c **** #if defined (RCC_PLLQ_SUPPORT)
 1238              		.loc 1 754 88 view .LVU423
 1239 041c C01A     		subs	r0, r0, r3
 1240 041e 431E     		subs	r3, r0, #1
 1241 0420 9841     		sbcs	r0, r0, r3
 1242 0422 C0B2     		uxtb	r0, r0
 1243 0424 F2E5     		b	.L15
 1244              	.L128:
 1245 0426 C046     		.align	2
 1246              	.L127:
 1247 0428 00100240 		.word	1073876992
 1248 042c FFFFFFFE 		.word	-16777217
 1249 0430 8C80C11F 		.word	532775052
 1250 0434 FCFFFEEF 		.word	-268500996
 1251              		.cfi_endproc
 1252              	.LFE421:
 1254              		.section	.text.HAL_RCC_MCOConfig,"ax",%progbits
 1255              		.align	1
 1256              		.global	HAL_RCC_MCOConfig
 1257              		.syntax unified
 1258              		.code	16
 1259              		.thumb_func
 1261              	HAL_RCC_MCOConfig:
 1262              	.LVL96:
 1263              	.LFB423:
 767:Drivers/STM32G0xx_HAL_Driver/Src/stm32g0xx_hal_rcc.c **** 
ARM GAS  /tmp/ccheJOBr.s 			page 43


 768:Drivers/STM32G0xx_HAL_Driver/Src/stm32g0xx_hal_rcc.c **** /**
 769:Drivers/STM32G0xx_HAL_Driver/Src/stm32g0xx_hal_rcc.c ****   * @brief  Initialize the CPU, AHB and APB buses clocks according to the specified
 770:Drivers/STM32G0xx_HAL_Driver/Src/stm32g0xx_hal_rcc.c ****   *         parameters in the RCC_ClkInitStruct.
 771:Drivers/STM32G0xx_HAL_Driver/Src/stm32g0xx_hal_rcc.c ****   * @param  RCC_ClkInitStruct  pointer to a @ref RCC_ClkInitTypeDef structure that
 772:Drivers/STM32G0xx_HAL_Driver/Src/stm32g0xx_hal_rcc.c ****   *         contains the configuration information for the RCC peripheral.
 773:Drivers/STM32G0xx_HAL_Driver/Src/stm32g0xx_hal_rcc.c ****   * @param  FLatency  FLASH Latency
 774:Drivers/STM32G0xx_HAL_Driver/Src/stm32g0xx_hal_rcc.c ****   *          This parameter can be one of the following values:
 775:Drivers/STM32G0xx_HAL_Driver/Src/stm32g0xx_hal_rcc.c ****   *            @arg FLASH_LATENCY_0   FLASH 0 Latency cycle
 776:Drivers/STM32G0xx_HAL_Driver/Src/stm32g0xx_hal_rcc.c ****   *            @arg FLASH_LATENCY_1   FLASH 1 Latency cycle
 777:Drivers/STM32G0xx_HAL_Driver/Src/stm32g0xx_hal_rcc.c ****   *
 778:Drivers/STM32G0xx_HAL_Driver/Src/stm32g0xx_hal_rcc.c ****   * @note   The SystemCoreClock CMSIS variable is used to store System Clock Frequency
 779:Drivers/STM32G0xx_HAL_Driver/Src/stm32g0xx_hal_rcc.c ****   *         and updated by @ref HAL_RCC_GetHCLKFreq() function called within this function
 780:Drivers/STM32G0xx_HAL_Driver/Src/stm32g0xx_hal_rcc.c ****   *
 781:Drivers/STM32G0xx_HAL_Driver/Src/stm32g0xx_hal_rcc.c ****   * @note   The HSI is used by default as system clock source after
 782:Drivers/STM32G0xx_HAL_Driver/Src/stm32g0xx_hal_rcc.c ****   *         startup from Reset, wake-up from STANDBY mode. After restart from Reset,
 783:Drivers/STM32G0xx_HAL_Driver/Src/stm32g0xx_hal_rcc.c ****   *         the HSI frequency is set to 8 Mhz, then it reaches its default value 16 MHz.
 784:Drivers/STM32G0xx_HAL_Driver/Src/stm32g0xx_hal_rcc.c ****   *
 785:Drivers/STM32G0xx_HAL_Driver/Src/stm32g0xx_hal_rcc.c ****   * @note   The HSI can be selected as system clock source after
 786:Drivers/STM32G0xx_HAL_Driver/Src/stm32g0xx_hal_rcc.c ****   *         from STOP modes or in case of failure of the HSE used directly or indirectly
 787:Drivers/STM32G0xx_HAL_Driver/Src/stm32g0xx_hal_rcc.c ****   *         as system clock (if the Clock Security System CSS is enabled).
 788:Drivers/STM32G0xx_HAL_Driver/Src/stm32g0xx_hal_rcc.c ****   *
 789:Drivers/STM32G0xx_HAL_Driver/Src/stm32g0xx_hal_rcc.c ****   * @note   The LSI can be selected as system clock source after
 790:Drivers/STM32G0xx_HAL_Driver/Src/stm32g0xx_hal_rcc.c ****   *         in case of failure of the LSE used directly or indirectly
 791:Drivers/STM32G0xx_HAL_Driver/Src/stm32g0xx_hal_rcc.c ****   *         as system clock (if the Clock Security System LSECSS is enabled).
 792:Drivers/STM32G0xx_HAL_Driver/Src/stm32g0xx_hal_rcc.c ****   *
 793:Drivers/STM32G0xx_HAL_Driver/Src/stm32g0xx_hal_rcc.c ****   * @note   A switch from one clock source to another occurs only if the target
 794:Drivers/STM32G0xx_HAL_Driver/Src/stm32g0xx_hal_rcc.c ****   *         clock source is ready (clock stable after startup delay or PLL locked).
 795:Drivers/STM32G0xx_HAL_Driver/Src/stm32g0xx_hal_rcc.c ****   *         If a clock source which is not yet ready is selected, the switch will
 796:Drivers/STM32G0xx_HAL_Driver/Src/stm32g0xx_hal_rcc.c ****   *         occur when the clock source is ready.
 797:Drivers/STM32G0xx_HAL_Driver/Src/stm32g0xx_hal_rcc.c ****   *
 798:Drivers/STM32G0xx_HAL_Driver/Src/stm32g0xx_hal_rcc.c ****   * @note   You can use @ref HAL_RCC_GetClockConfig() function to know which clock is
 799:Drivers/STM32G0xx_HAL_Driver/Src/stm32g0xx_hal_rcc.c ****   *         currently used as system clock source.
 800:Drivers/STM32G0xx_HAL_Driver/Src/stm32g0xx_hal_rcc.c ****   *
 801:Drivers/STM32G0xx_HAL_Driver/Src/stm32g0xx_hal_rcc.c ****   * @note   Depending on the device voltage range, the software has to set correctly
 802:Drivers/STM32G0xx_HAL_Driver/Src/stm32g0xx_hal_rcc.c ****   *         HPRE[3:0] bits to ensure that HCLK not exceed the maximum allowed frequency
 803:Drivers/STM32G0xx_HAL_Driver/Src/stm32g0xx_hal_rcc.c ****   *         (for more details refer to section above "Initialization/de-initialization functions")
 804:Drivers/STM32G0xx_HAL_Driver/Src/stm32g0xx_hal_rcc.c ****   * @retval None
 805:Drivers/STM32G0xx_HAL_Driver/Src/stm32g0xx_hal_rcc.c ****   */
 806:Drivers/STM32G0xx_HAL_Driver/Src/stm32g0xx_hal_rcc.c **** HAL_StatusTypeDef HAL_RCC_ClockConfig(RCC_ClkInitTypeDef  *RCC_ClkInitStruct, uint32_t FLatency)
 807:Drivers/STM32G0xx_HAL_Driver/Src/stm32g0xx_hal_rcc.c **** {
 808:Drivers/STM32G0xx_HAL_Driver/Src/stm32g0xx_hal_rcc.c ****   uint32_t tickstart;
 809:Drivers/STM32G0xx_HAL_Driver/Src/stm32g0xx_hal_rcc.c **** 
 810:Drivers/STM32G0xx_HAL_Driver/Src/stm32g0xx_hal_rcc.c ****   /* Check Null pointer */
 811:Drivers/STM32G0xx_HAL_Driver/Src/stm32g0xx_hal_rcc.c ****   if (RCC_ClkInitStruct == NULL)
 812:Drivers/STM32G0xx_HAL_Driver/Src/stm32g0xx_hal_rcc.c ****   {
 813:Drivers/STM32G0xx_HAL_Driver/Src/stm32g0xx_hal_rcc.c ****     return HAL_ERROR;
 814:Drivers/STM32G0xx_HAL_Driver/Src/stm32g0xx_hal_rcc.c ****   }
 815:Drivers/STM32G0xx_HAL_Driver/Src/stm32g0xx_hal_rcc.c **** 
 816:Drivers/STM32G0xx_HAL_Driver/Src/stm32g0xx_hal_rcc.c ****   /* Check the parameters */
 817:Drivers/STM32G0xx_HAL_Driver/Src/stm32g0xx_hal_rcc.c ****   assert_param(IS_RCC_CLOCKTYPE(RCC_ClkInitStruct->ClockType));
 818:Drivers/STM32G0xx_HAL_Driver/Src/stm32g0xx_hal_rcc.c ****   assert_param(IS_FLASH_LATENCY(FLatency));
 819:Drivers/STM32G0xx_HAL_Driver/Src/stm32g0xx_hal_rcc.c **** 
 820:Drivers/STM32G0xx_HAL_Driver/Src/stm32g0xx_hal_rcc.c ****   /* To correctly read data from FLASH memory, the number of wait states (LATENCY)
 821:Drivers/STM32G0xx_HAL_Driver/Src/stm32g0xx_hal_rcc.c ****     must be correctly programmed according to the frequency of the FLASH clock
 822:Drivers/STM32G0xx_HAL_Driver/Src/stm32g0xx_hal_rcc.c ****     (HCLK) and the supply voltage of the device. */
 823:Drivers/STM32G0xx_HAL_Driver/Src/stm32g0xx_hal_rcc.c **** 
 824:Drivers/STM32G0xx_HAL_Driver/Src/stm32g0xx_hal_rcc.c ****   /* Increasing the number of wait states because of higher CPU frequency */
ARM GAS  /tmp/ccheJOBr.s 			page 44


 825:Drivers/STM32G0xx_HAL_Driver/Src/stm32g0xx_hal_rcc.c ****   if (FLatency > __HAL_FLASH_GET_LATENCY())
 826:Drivers/STM32G0xx_HAL_Driver/Src/stm32g0xx_hal_rcc.c ****   {
 827:Drivers/STM32G0xx_HAL_Driver/Src/stm32g0xx_hal_rcc.c ****     /* Program the new number of wait states to the LATENCY bits in the FLASH_ACR register */
 828:Drivers/STM32G0xx_HAL_Driver/Src/stm32g0xx_hal_rcc.c ****     __HAL_FLASH_SET_LATENCY(FLatency);
 829:Drivers/STM32G0xx_HAL_Driver/Src/stm32g0xx_hal_rcc.c **** 
 830:Drivers/STM32G0xx_HAL_Driver/Src/stm32g0xx_hal_rcc.c ****     /* Check that the new number of wait states is taken into account to access the Flash
 831:Drivers/STM32G0xx_HAL_Driver/Src/stm32g0xx_hal_rcc.c ****     memory by polling the FLASH_ACR register */
 832:Drivers/STM32G0xx_HAL_Driver/Src/stm32g0xx_hal_rcc.c ****     tickstart = HAL_GetTick();
 833:Drivers/STM32G0xx_HAL_Driver/Src/stm32g0xx_hal_rcc.c **** 
 834:Drivers/STM32G0xx_HAL_Driver/Src/stm32g0xx_hal_rcc.c ****     while ((FLASH->ACR & FLASH_ACR_LATENCY) != FLatency)
 835:Drivers/STM32G0xx_HAL_Driver/Src/stm32g0xx_hal_rcc.c ****     {
 836:Drivers/STM32G0xx_HAL_Driver/Src/stm32g0xx_hal_rcc.c ****       if ((HAL_GetTick() - tickstart) > CLOCKSWITCH_TIMEOUT_VALUE)
 837:Drivers/STM32G0xx_HAL_Driver/Src/stm32g0xx_hal_rcc.c ****       {
 838:Drivers/STM32G0xx_HAL_Driver/Src/stm32g0xx_hal_rcc.c ****         return HAL_TIMEOUT;
 839:Drivers/STM32G0xx_HAL_Driver/Src/stm32g0xx_hal_rcc.c ****       }
 840:Drivers/STM32G0xx_HAL_Driver/Src/stm32g0xx_hal_rcc.c ****     }
 841:Drivers/STM32G0xx_HAL_Driver/Src/stm32g0xx_hal_rcc.c ****   }
 842:Drivers/STM32G0xx_HAL_Driver/Src/stm32g0xx_hal_rcc.c **** 
 843:Drivers/STM32G0xx_HAL_Driver/Src/stm32g0xx_hal_rcc.c ****   /*-------------------------- HCLK Configuration --------------------------*/
 844:Drivers/STM32G0xx_HAL_Driver/Src/stm32g0xx_hal_rcc.c ****   if (((RCC_ClkInitStruct->ClockType) & RCC_CLOCKTYPE_HCLK) == RCC_CLOCKTYPE_HCLK)
 845:Drivers/STM32G0xx_HAL_Driver/Src/stm32g0xx_hal_rcc.c ****   {
 846:Drivers/STM32G0xx_HAL_Driver/Src/stm32g0xx_hal_rcc.c ****     /* Set the highest APB divider in order to ensure that we do not go through
 847:Drivers/STM32G0xx_HAL_Driver/Src/stm32g0xx_hal_rcc.c ****        a non-spec phase whatever we decrease or increase HCLK. */
 848:Drivers/STM32G0xx_HAL_Driver/Src/stm32g0xx_hal_rcc.c ****     if (((RCC_ClkInitStruct->ClockType) & RCC_CLOCKTYPE_PCLK1) == RCC_CLOCKTYPE_PCLK1)
 849:Drivers/STM32G0xx_HAL_Driver/Src/stm32g0xx_hal_rcc.c ****     {
 850:Drivers/STM32G0xx_HAL_Driver/Src/stm32g0xx_hal_rcc.c ****       MODIFY_REG(RCC->CFGR, RCC_CFGR_PPRE, RCC_HCLK_DIV16);
 851:Drivers/STM32G0xx_HAL_Driver/Src/stm32g0xx_hal_rcc.c ****     }
 852:Drivers/STM32G0xx_HAL_Driver/Src/stm32g0xx_hal_rcc.c **** 
 853:Drivers/STM32G0xx_HAL_Driver/Src/stm32g0xx_hal_rcc.c ****     /* Set the new HCLK clock divider */
 854:Drivers/STM32G0xx_HAL_Driver/Src/stm32g0xx_hal_rcc.c ****     assert_param(IS_RCC_HCLK(RCC_ClkInitStruct->AHBCLKDivider));
 855:Drivers/STM32G0xx_HAL_Driver/Src/stm32g0xx_hal_rcc.c ****     MODIFY_REG(RCC->CFGR, RCC_CFGR_HPRE, RCC_ClkInitStruct->AHBCLKDivider);
 856:Drivers/STM32G0xx_HAL_Driver/Src/stm32g0xx_hal_rcc.c ****   }
 857:Drivers/STM32G0xx_HAL_Driver/Src/stm32g0xx_hal_rcc.c **** 
 858:Drivers/STM32G0xx_HAL_Driver/Src/stm32g0xx_hal_rcc.c ****   /*------------------------- SYSCLK Configuration ---------------------------*/
 859:Drivers/STM32G0xx_HAL_Driver/Src/stm32g0xx_hal_rcc.c ****   if (((RCC_ClkInitStruct->ClockType) & RCC_CLOCKTYPE_SYSCLK) == RCC_CLOCKTYPE_SYSCLK)
 860:Drivers/STM32G0xx_HAL_Driver/Src/stm32g0xx_hal_rcc.c ****   {
 861:Drivers/STM32G0xx_HAL_Driver/Src/stm32g0xx_hal_rcc.c ****     assert_param(IS_RCC_SYSCLKSOURCE(RCC_ClkInitStruct->SYSCLKSource));
 862:Drivers/STM32G0xx_HAL_Driver/Src/stm32g0xx_hal_rcc.c **** 
 863:Drivers/STM32G0xx_HAL_Driver/Src/stm32g0xx_hal_rcc.c ****     /* HSE is selected as System Clock Source */
 864:Drivers/STM32G0xx_HAL_Driver/Src/stm32g0xx_hal_rcc.c ****     if (RCC_ClkInitStruct->SYSCLKSource == RCC_SYSCLKSOURCE_HSE)
 865:Drivers/STM32G0xx_HAL_Driver/Src/stm32g0xx_hal_rcc.c ****     {
 866:Drivers/STM32G0xx_HAL_Driver/Src/stm32g0xx_hal_rcc.c ****       /* Check the HSE ready flag */
 867:Drivers/STM32G0xx_HAL_Driver/Src/stm32g0xx_hal_rcc.c ****       if (READ_BIT(RCC->CR, RCC_CR_HSERDY) == 0U)
 868:Drivers/STM32G0xx_HAL_Driver/Src/stm32g0xx_hal_rcc.c ****       {
 869:Drivers/STM32G0xx_HAL_Driver/Src/stm32g0xx_hal_rcc.c ****         return HAL_ERROR;
 870:Drivers/STM32G0xx_HAL_Driver/Src/stm32g0xx_hal_rcc.c ****       }
 871:Drivers/STM32G0xx_HAL_Driver/Src/stm32g0xx_hal_rcc.c ****     }
 872:Drivers/STM32G0xx_HAL_Driver/Src/stm32g0xx_hal_rcc.c ****     /* PLL is selected as System Clock Source */
 873:Drivers/STM32G0xx_HAL_Driver/Src/stm32g0xx_hal_rcc.c ****     else if (RCC_ClkInitStruct->SYSCLKSource == RCC_SYSCLKSOURCE_PLLCLK)
 874:Drivers/STM32G0xx_HAL_Driver/Src/stm32g0xx_hal_rcc.c ****     {
 875:Drivers/STM32G0xx_HAL_Driver/Src/stm32g0xx_hal_rcc.c ****       /* Check the PLL ready flag */
 876:Drivers/STM32G0xx_HAL_Driver/Src/stm32g0xx_hal_rcc.c ****       if (READ_BIT(RCC->CR, RCC_CR_PLLRDY) == 0U)
 877:Drivers/STM32G0xx_HAL_Driver/Src/stm32g0xx_hal_rcc.c ****       {
 878:Drivers/STM32G0xx_HAL_Driver/Src/stm32g0xx_hal_rcc.c ****         return HAL_ERROR;
 879:Drivers/STM32G0xx_HAL_Driver/Src/stm32g0xx_hal_rcc.c ****       }
 880:Drivers/STM32G0xx_HAL_Driver/Src/stm32g0xx_hal_rcc.c ****     }
 881:Drivers/STM32G0xx_HAL_Driver/Src/stm32g0xx_hal_rcc.c ****     /* HSI is selected as System Clock Source */
ARM GAS  /tmp/ccheJOBr.s 			page 45


 882:Drivers/STM32G0xx_HAL_Driver/Src/stm32g0xx_hal_rcc.c ****     else if (RCC_ClkInitStruct->SYSCLKSource == RCC_SYSCLKSOURCE_HSI)
 883:Drivers/STM32G0xx_HAL_Driver/Src/stm32g0xx_hal_rcc.c ****     {
 884:Drivers/STM32G0xx_HAL_Driver/Src/stm32g0xx_hal_rcc.c ****       /* Check the HSI ready flag */
 885:Drivers/STM32G0xx_HAL_Driver/Src/stm32g0xx_hal_rcc.c ****       if (READ_BIT(RCC->CR, RCC_CR_HSIRDY) == 0U)
 886:Drivers/STM32G0xx_HAL_Driver/Src/stm32g0xx_hal_rcc.c ****       {
 887:Drivers/STM32G0xx_HAL_Driver/Src/stm32g0xx_hal_rcc.c ****         return HAL_ERROR;
 888:Drivers/STM32G0xx_HAL_Driver/Src/stm32g0xx_hal_rcc.c ****       }
 889:Drivers/STM32G0xx_HAL_Driver/Src/stm32g0xx_hal_rcc.c ****     }
 890:Drivers/STM32G0xx_HAL_Driver/Src/stm32g0xx_hal_rcc.c ****     /* LSI is selected as System Clock Source */
 891:Drivers/STM32G0xx_HAL_Driver/Src/stm32g0xx_hal_rcc.c ****     else if (RCC_ClkInitStruct->SYSCLKSource == RCC_SYSCLKSOURCE_LSI)
 892:Drivers/STM32G0xx_HAL_Driver/Src/stm32g0xx_hal_rcc.c ****     {
 893:Drivers/STM32G0xx_HAL_Driver/Src/stm32g0xx_hal_rcc.c ****       /* Check the LSI ready flag */
 894:Drivers/STM32G0xx_HAL_Driver/Src/stm32g0xx_hal_rcc.c ****       if (READ_BIT(RCC->CSR, RCC_CSR_LSIRDY) == 0U)
 895:Drivers/STM32G0xx_HAL_Driver/Src/stm32g0xx_hal_rcc.c ****       {
 896:Drivers/STM32G0xx_HAL_Driver/Src/stm32g0xx_hal_rcc.c ****         return HAL_ERROR;
 897:Drivers/STM32G0xx_HAL_Driver/Src/stm32g0xx_hal_rcc.c ****       }
 898:Drivers/STM32G0xx_HAL_Driver/Src/stm32g0xx_hal_rcc.c ****     }
 899:Drivers/STM32G0xx_HAL_Driver/Src/stm32g0xx_hal_rcc.c ****     /* LSE is selected as System Clock Source */
 900:Drivers/STM32G0xx_HAL_Driver/Src/stm32g0xx_hal_rcc.c ****     else
 901:Drivers/STM32G0xx_HAL_Driver/Src/stm32g0xx_hal_rcc.c ****     {
 902:Drivers/STM32G0xx_HAL_Driver/Src/stm32g0xx_hal_rcc.c ****       /* Check the LSE ready flag */
 903:Drivers/STM32G0xx_HAL_Driver/Src/stm32g0xx_hal_rcc.c ****       if (READ_BIT(RCC->BDCR, RCC_BDCR_LSERDY) == 0U)
 904:Drivers/STM32G0xx_HAL_Driver/Src/stm32g0xx_hal_rcc.c ****       {
 905:Drivers/STM32G0xx_HAL_Driver/Src/stm32g0xx_hal_rcc.c ****         return HAL_ERROR;
 906:Drivers/STM32G0xx_HAL_Driver/Src/stm32g0xx_hal_rcc.c ****       }
 907:Drivers/STM32G0xx_HAL_Driver/Src/stm32g0xx_hal_rcc.c ****     }
 908:Drivers/STM32G0xx_HAL_Driver/Src/stm32g0xx_hal_rcc.c ****     MODIFY_REG(RCC->CFGR, RCC_CFGR_SW, RCC_ClkInitStruct->SYSCLKSource);
 909:Drivers/STM32G0xx_HAL_Driver/Src/stm32g0xx_hal_rcc.c **** 
 910:Drivers/STM32G0xx_HAL_Driver/Src/stm32g0xx_hal_rcc.c ****     /* Get Start Tick*/
 911:Drivers/STM32G0xx_HAL_Driver/Src/stm32g0xx_hal_rcc.c ****     tickstart = HAL_GetTick();
 912:Drivers/STM32G0xx_HAL_Driver/Src/stm32g0xx_hal_rcc.c **** 
 913:Drivers/STM32G0xx_HAL_Driver/Src/stm32g0xx_hal_rcc.c ****     while (__HAL_RCC_GET_SYSCLK_SOURCE() != (RCC_ClkInitStruct->SYSCLKSource << RCC_CFGR_SWS_Pos))
 914:Drivers/STM32G0xx_HAL_Driver/Src/stm32g0xx_hal_rcc.c ****     {
 915:Drivers/STM32G0xx_HAL_Driver/Src/stm32g0xx_hal_rcc.c ****       if ((HAL_GetTick() - tickstart) > CLOCKSWITCH_TIMEOUT_VALUE)
 916:Drivers/STM32G0xx_HAL_Driver/Src/stm32g0xx_hal_rcc.c ****       {
 917:Drivers/STM32G0xx_HAL_Driver/Src/stm32g0xx_hal_rcc.c ****         return HAL_TIMEOUT;
 918:Drivers/STM32G0xx_HAL_Driver/Src/stm32g0xx_hal_rcc.c ****       }
 919:Drivers/STM32G0xx_HAL_Driver/Src/stm32g0xx_hal_rcc.c ****     }
 920:Drivers/STM32G0xx_HAL_Driver/Src/stm32g0xx_hal_rcc.c ****   }
 921:Drivers/STM32G0xx_HAL_Driver/Src/stm32g0xx_hal_rcc.c **** 
 922:Drivers/STM32G0xx_HAL_Driver/Src/stm32g0xx_hal_rcc.c ****   /* Decreasing the number of wait states because of lower CPU frequency */
 923:Drivers/STM32G0xx_HAL_Driver/Src/stm32g0xx_hal_rcc.c ****   if (FLatency < __HAL_FLASH_GET_LATENCY())
 924:Drivers/STM32G0xx_HAL_Driver/Src/stm32g0xx_hal_rcc.c ****   {
 925:Drivers/STM32G0xx_HAL_Driver/Src/stm32g0xx_hal_rcc.c ****     /* Program the new number of wait states to the LATENCY bits in the FLASH_ACR register */
 926:Drivers/STM32G0xx_HAL_Driver/Src/stm32g0xx_hal_rcc.c ****     __HAL_FLASH_SET_LATENCY(FLatency);
 927:Drivers/STM32G0xx_HAL_Driver/Src/stm32g0xx_hal_rcc.c **** 
 928:Drivers/STM32G0xx_HAL_Driver/Src/stm32g0xx_hal_rcc.c ****     /* Check that the new number of wait states is taken into account to access the Flash
 929:Drivers/STM32G0xx_HAL_Driver/Src/stm32g0xx_hal_rcc.c ****     memory by polling the FLASH_ACR register */
 930:Drivers/STM32G0xx_HAL_Driver/Src/stm32g0xx_hal_rcc.c ****     tickstart = HAL_GetTick();
 931:Drivers/STM32G0xx_HAL_Driver/Src/stm32g0xx_hal_rcc.c **** 
 932:Drivers/STM32G0xx_HAL_Driver/Src/stm32g0xx_hal_rcc.c ****     while ((FLASH->ACR & FLASH_ACR_LATENCY) != FLatency)
 933:Drivers/STM32G0xx_HAL_Driver/Src/stm32g0xx_hal_rcc.c ****     {
 934:Drivers/STM32G0xx_HAL_Driver/Src/stm32g0xx_hal_rcc.c ****       if ((HAL_GetTick() - tickstart) > CLOCKSWITCH_TIMEOUT_VALUE)
 935:Drivers/STM32G0xx_HAL_Driver/Src/stm32g0xx_hal_rcc.c ****       {
 936:Drivers/STM32G0xx_HAL_Driver/Src/stm32g0xx_hal_rcc.c ****         return HAL_TIMEOUT;
 937:Drivers/STM32G0xx_HAL_Driver/Src/stm32g0xx_hal_rcc.c ****       }
 938:Drivers/STM32G0xx_HAL_Driver/Src/stm32g0xx_hal_rcc.c ****     }
ARM GAS  /tmp/ccheJOBr.s 			page 46


 939:Drivers/STM32G0xx_HAL_Driver/Src/stm32g0xx_hal_rcc.c ****   }
 940:Drivers/STM32G0xx_HAL_Driver/Src/stm32g0xx_hal_rcc.c **** 
 941:Drivers/STM32G0xx_HAL_Driver/Src/stm32g0xx_hal_rcc.c ****   /*-------------------------- PCLK1 Configuration ---------------------------*/
 942:Drivers/STM32G0xx_HAL_Driver/Src/stm32g0xx_hal_rcc.c ****   if (((RCC_ClkInitStruct->ClockType) & RCC_CLOCKTYPE_PCLK1) == RCC_CLOCKTYPE_PCLK1)
 943:Drivers/STM32G0xx_HAL_Driver/Src/stm32g0xx_hal_rcc.c ****   {
 944:Drivers/STM32G0xx_HAL_Driver/Src/stm32g0xx_hal_rcc.c ****     assert_param(IS_RCC_PCLK(RCC_ClkInitStruct->APB1CLKDivider));
 945:Drivers/STM32G0xx_HAL_Driver/Src/stm32g0xx_hal_rcc.c ****     MODIFY_REG(RCC->CFGR, RCC_CFGR_PPRE, RCC_ClkInitStruct->APB1CLKDivider);
 946:Drivers/STM32G0xx_HAL_Driver/Src/stm32g0xx_hal_rcc.c ****   }
 947:Drivers/STM32G0xx_HAL_Driver/Src/stm32g0xx_hal_rcc.c **** 
 948:Drivers/STM32G0xx_HAL_Driver/Src/stm32g0xx_hal_rcc.c ****   /* Update the SystemCoreClock global variable */
 949:Drivers/STM32G0xx_HAL_Driver/Src/stm32g0xx_hal_rcc.c ****   SystemCoreClock = (HAL_RCC_GetSysClockFreq() >> ((AHBPrescTable[(RCC->CFGR & RCC_CFGR_HPRE) >> RC
 950:Drivers/STM32G0xx_HAL_Driver/Src/stm32g0xx_hal_rcc.c **** 
 951:Drivers/STM32G0xx_HAL_Driver/Src/stm32g0xx_hal_rcc.c ****   /* Configure the source of time base considering new system clocks settings*/
 952:Drivers/STM32G0xx_HAL_Driver/Src/stm32g0xx_hal_rcc.c ****   return HAL_InitTick(uwTickPrio);
 953:Drivers/STM32G0xx_HAL_Driver/Src/stm32g0xx_hal_rcc.c **** }
 954:Drivers/STM32G0xx_HAL_Driver/Src/stm32g0xx_hal_rcc.c **** 
 955:Drivers/STM32G0xx_HAL_Driver/Src/stm32g0xx_hal_rcc.c **** /**
 956:Drivers/STM32G0xx_HAL_Driver/Src/stm32g0xx_hal_rcc.c ****   * @}
 957:Drivers/STM32G0xx_HAL_Driver/Src/stm32g0xx_hal_rcc.c ****   */
 958:Drivers/STM32G0xx_HAL_Driver/Src/stm32g0xx_hal_rcc.c **** 
 959:Drivers/STM32G0xx_HAL_Driver/Src/stm32g0xx_hal_rcc.c **** /** @defgroup RCC_Exported_Functions_Group2 Peripheral Control functions
 960:Drivers/STM32G0xx_HAL_Driver/Src/stm32g0xx_hal_rcc.c ****   *  @brief   RCC clocks control functions
 961:Drivers/STM32G0xx_HAL_Driver/Src/stm32g0xx_hal_rcc.c ****   *
 962:Drivers/STM32G0xx_HAL_Driver/Src/stm32g0xx_hal_rcc.c **** @verbatim
 963:Drivers/STM32G0xx_HAL_Driver/Src/stm32g0xx_hal_rcc.c ****  ===============================================================================
 964:Drivers/STM32G0xx_HAL_Driver/Src/stm32g0xx_hal_rcc.c ****                       ##### Peripheral Control functions #####
 965:Drivers/STM32G0xx_HAL_Driver/Src/stm32g0xx_hal_rcc.c ****  ===============================================================================
 966:Drivers/STM32G0xx_HAL_Driver/Src/stm32g0xx_hal_rcc.c ****     [..]
 967:Drivers/STM32G0xx_HAL_Driver/Src/stm32g0xx_hal_rcc.c ****     This subsection provides a set of functions allowing to:
 968:Drivers/STM32G0xx_HAL_Driver/Src/stm32g0xx_hal_rcc.c **** 
 969:Drivers/STM32G0xx_HAL_Driver/Src/stm32g0xx_hal_rcc.c ****     (+) Output clock to MCO pin.
 970:Drivers/STM32G0xx_HAL_Driver/Src/stm32g0xx_hal_rcc.c ****     (+) Retrieve current clock frequencies.
 971:Drivers/STM32G0xx_HAL_Driver/Src/stm32g0xx_hal_rcc.c ****     (+) Enable the Clock Security System.
 972:Drivers/STM32G0xx_HAL_Driver/Src/stm32g0xx_hal_rcc.c **** 
 973:Drivers/STM32G0xx_HAL_Driver/Src/stm32g0xx_hal_rcc.c **** @endverbatim
 974:Drivers/STM32G0xx_HAL_Driver/Src/stm32g0xx_hal_rcc.c ****   * @{
 975:Drivers/STM32G0xx_HAL_Driver/Src/stm32g0xx_hal_rcc.c ****   */
 976:Drivers/STM32G0xx_HAL_Driver/Src/stm32g0xx_hal_rcc.c **** 
 977:Drivers/STM32G0xx_HAL_Driver/Src/stm32g0xx_hal_rcc.c **** /**
 978:Drivers/STM32G0xx_HAL_Driver/Src/stm32g0xx_hal_rcc.c ****   * @brief  Select the clock source to output on MCO1 pin(PA8) or MC02 pin (PA10)(*).
 979:Drivers/STM32G0xx_HAL_Driver/Src/stm32g0xx_hal_rcc.c ****   * @note   PA8, PA10(*) should be configured in alternate function mode.
 980:Drivers/STM32G0xx_HAL_Driver/Src/stm32g0xx_hal_rcc.c ****   * @param  RCC_MCOx  specifies the output direction for the clock source.
 981:Drivers/STM32G0xx_HAL_Driver/Src/stm32g0xx_hal_rcc.c ****   *          For STM32G0xx family this parameter can have only one value:
 982:Drivers/STM32G0xx_HAL_Driver/Src/stm32g0xx_hal_rcc.c ****   *            @arg @ref RCC_MCO1  Clock source to output on MCO1 pin(PA8).
 983:Drivers/STM32G0xx_HAL_Driver/Src/stm32g0xx_hal_rcc.c ****   *            @arg @ref RCC_MCO2  Clock source to output on MCO2 pin(PA10)(*).
 984:Drivers/STM32G0xx_HAL_Driver/Src/stm32g0xx_hal_rcc.c ****   * @param  RCC_MCOSource  specifies the clock source to output.
 985:Drivers/STM32G0xx_HAL_Driver/Src/stm32g0xx_hal_rcc.c ****   *          This parameter can be one of the following values:
 986:Drivers/STM32G0xx_HAL_Driver/Src/stm32g0xx_hal_rcc.c ****   *            @arg @ref RCC_MCO1SOURCE_NOCLOCK  MCO output disabled, no clock on MCO
 987:Drivers/STM32G0xx_HAL_Driver/Src/stm32g0xx_hal_rcc.c ****   *            @arg @ref RCC_MCO1SOURCE_SYSCLK   system  clock selected as MCO source
 988:Drivers/STM32G0xx_HAL_Driver/Src/stm32g0xx_hal_rcc.c ****   *            @arg @ref RCC_MCO1SOURCE_HSI48    HSI48 clock selected as MCO source for devices wit
 989:Drivers/STM32G0xx_HAL_Driver/Src/stm32g0xx_hal_rcc.c ****   *            @arg @ref RCC_MCO1SOURCE_HSI      HSI clock selected as MCO source
 990:Drivers/STM32G0xx_HAL_Driver/Src/stm32g0xx_hal_rcc.c ****   *            @arg @ref RCC_MCO1SOURCE_HSE      HSE clock selected as MCO sourcee
 991:Drivers/STM32G0xx_HAL_Driver/Src/stm32g0xx_hal_rcc.c ****   *            @arg @ref RCC_MCO1SOURCE_PLLCLK   main PLLR clock selected as MCO source
 992:Drivers/STM32G0xx_HAL_Driver/Src/stm32g0xx_hal_rcc.c ****   *            @arg @ref RCC_MCO1SOURCE_LSI      LSI clock selected as MCO source
 993:Drivers/STM32G0xx_HAL_Driver/Src/stm32g0xx_hal_rcc.c ****   *            @arg @ref RCC_MCO1SOURCE_LSE      LSE clock selected as MCO source
 994:Drivers/STM32G0xx_HAL_Driver/Src/stm32g0xx_hal_rcc.c ****   *            @arg @ref RCC_MCO1SOURCE_PLLPCLK  PLLP clock selected as MCO1 source(*)
 995:Drivers/STM32G0xx_HAL_Driver/Src/stm32g0xx_hal_rcc.c ****   *            @arg @ref RCC_MCO1SOURCE_PLLQCLK  PLLQ clock selected as MCO1 source(*)
ARM GAS  /tmp/ccheJOBr.s 			page 47


 996:Drivers/STM32G0xx_HAL_Driver/Src/stm32g0xx_hal_rcc.c ****   *            @arg @ref RCC_MCO1SOURCE_RTCCLK   RTC clock selected as MCO1 source(*)
 997:Drivers/STM32G0xx_HAL_Driver/Src/stm32g0xx_hal_rcc.c ****   *            @arg @ref RCC_MCO1SOURCE_RTC_WKUP RTC_Wakeup selected as MCO1 source(*)
 998:Drivers/STM32G0xx_HAL_Driver/Src/stm32g0xx_hal_rcc.c ****   *            @arg @ref RCC_MCO2SOURCE_NOCLOCK  MCO2 output disabled, no clock on MCO2(*)
 999:Drivers/STM32G0xx_HAL_Driver/Src/stm32g0xx_hal_rcc.c ****   *            @arg @ref RCC_MCO2SOURCE_SYSCLK   system  clock selected as MCO2 source(*)
1000:Drivers/STM32G0xx_HAL_Driver/Src/stm32g0xx_hal_rcc.c ****   *            @arg @ref RCC_MCO2SOURCE_HSI48    HSI48 clock selected as MCO2 source for devices wi
1001:Drivers/STM32G0xx_HAL_Driver/Src/stm32g0xx_hal_rcc.c ****   *            @arg @ref RCC_MCO2SOURCE_HSI      HSI clock selected as MCO2 source(*)
1002:Drivers/STM32G0xx_HAL_Driver/Src/stm32g0xx_hal_rcc.c ****   *            @arg @ref RCC_MCO2SOURCE_HSE      HSE clock selected as MCO2 source(*)
1003:Drivers/STM32G0xx_HAL_Driver/Src/stm32g0xx_hal_rcc.c ****   *            @arg @ref RCC_MCO2SOURCE_PLLCLK   main PLLR clock selected as MCO2 source(*)
1004:Drivers/STM32G0xx_HAL_Driver/Src/stm32g0xx_hal_rcc.c ****   *            @arg @ref RCC_MCO2SOURCE_LSI      LSI clock selected as MCO2 source(*)
1005:Drivers/STM32G0xx_HAL_Driver/Src/stm32g0xx_hal_rcc.c ****   *            @arg @ref RCC_MCO2SOURCE_LSE      LSE clock selected as MCO2 source(*)
1006:Drivers/STM32G0xx_HAL_Driver/Src/stm32g0xx_hal_rcc.c ****   *            @arg @ref RCC_MCO2SOURCE_PLLPCLK  PLLP clock selected as MCO2 source(*)
1007:Drivers/STM32G0xx_HAL_Driver/Src/stm32g0xx_hal_rcc.c ****   *            @arg @ref RCC_MCO2SOURCE_PLLQCLK  PLLQ clock selected as MCO2 source(*)
1008:Drivers/STM32G0xx_HAL_Driver/Src/stm32g0xx_hal_rcc.c ****   *            @arg @ref RCC_MCO2SOURCE_RTCCLK   RTC clock selected as MCO2 source(*)
1009:Drivers/STM32G0xx_HAL_Driver/Src/stm32g0xx_hal_rcc.c ****   *            @arg @ref RCC_MCO2SOURCE_RTC_WKUP RTC_Wakeup selected as MCO2 source(*)
1010:Drivers/STM32G0xx_HAL_Driver/Src/stm32g0xx_hal_rcc.c ****   * @param  RCC_MCODiv  specifies the MCO prescaler.
1011:Drivers/STM32G0xx_HAL_Driver/Src/stm32g0xx_hal_rcc.c ****   *          This parameter can be one of the following values:
1012:Drivers/STM32G0xx_HAL_Driver/Src/stm32g0xx_hal_rcc.c ****   *            @arg @ref RCC_MCODIV_1     no division applied to MCO clock
1013:Drivers/STM32G0xx_HAL_Driver/Src/stm32g0xx_hal_rcc.c ****   *            @arg @ref RCC_MCODIV_2     division by 2 applied to MCO clock
1014:Drivers/STM32G0xx_HAL_Driver/Src/stm32g0xx_hal_rcc.c ****   *            @arg @ref RCC_MCODIV_4     division by 4 applied to MCO clock
1015:Drivers/STM32G0xx_HAL_Driver/Src/stm32g0xx_hal_rcc.c ****   *            @arg @ref RCC_MCODIV_8     division by 8 applied to MCO clock
1016:Drivers/STM32G0xx_HAL_Driver/Src/stm32g0xx_hal_rcc.c ****   *            @arg @ref RCC_MCODIV_16    division by 16 applied to MCO clock
1017:Drivers/STM32G0xx_HAL_Driver/Src/stm32g0xx_hal_rcc.c ****   *            @arg @ref RCC_MCODIV_32    division by 32 applied to MCO clock
1018:Drivers/STM32G0xx_HAL_Driver/Src/stm32g0xx_hal_rcc.c ****   *            @arg @ref RCC_MCODIV_64    division by 64 applied to MCO clock
1019:Drivers/STM32G0xx_HAL_Driver/Src/stm32g0xx_hal_rcc.c ****   *            @arg @ref RCC_MCODIV_128   division by 128 applied to MCO clock
1020:Drivers/STM32G0xx_HAL_Driver/Src/stm32g0xx_hal_rcc.c ****   *            @arg @ref RCC_MCO2DIV_1    no division applied to MCO2 clock(*)
1021:Drivers/STM32G0xx_HAL_Driver/Src/stm32g0xx_hal_rcc.c ****   *            @arg @ref RCC_MCO2DIV_2    division by 2 applied to MCO2 clock(*)
1022:Drivers/STM32G0xx_HAL_Driver/Src/stm32g0xx_hal_rcc.c ****   *            @arg @ref RCC_MCO2DIV_4    division by 4 applied to MCO2 clock(*)
1023:Drivers/STM32G0xx_HAL_Driver/Src/stm32g0xx_hal_rcc.c ****   *            @arg @ref RCC_MCO2DIV_8    division by 8 applied to MCO2 clock(*)
1024:Drivers/STM32G0xx_HAL_Driver/Src/stm32g0xx_hal_rcc.c ****   *            @arg @ref RCC_MCO2DIV_16   division by 16 applied to MCO2 clock(*)
1025:Drivers/STM32G0xx_HAL_Driver/Src/stm32g0xx_hal_rcc.c ****   *            @arg @ref RCC_MCO2DIV_32   division by 32 applied to MCO2 clock(*)
1026:Drivers/STM32G0xx_HAL_Driver/Src/stm32g0xx_hal_rcc.c ****   *            @arg @ref RCC_MCO2DIV_64   division by 64 applied to MCO2 clock(*)
1027:Drivers/STM32G0xx_HAL_Driver/Src/stm32g0xx_hal_rcc.c ****   *            @arg @ref RCC_MCO2DIV_128  division by 128 applied to MCO2 clock(*)
1028:Drivers/STM32G0xx_HAL_Driver/Src/stm32g0xx_hal_rcc.c ****   *            @arg @ref RCC_MCO2DIV_256  division by 256 applied to MCO2 clock(*)
1029:Drivers/STM32G0xx_HAL_Driver/Src/stm32g0xx_hal_rcc.c ****   *            @arg @ref RCC_MCO2DIV_512  division by 512 applied to MCO2 clock(*)
1030:Drivers/STM32G0xx_HAL_Driver/Src/stm32g0xx_hal_rcc.c ****   *            @arg @ref RCC_MCO2DIV_1024 division by 1024 applied to MCO2 clock(*)
1031:Drivers/STM32G0xx_HAL_Driver/Src/stm32g0xx_hal_rcc.c ****   *
1032:Drivers/STM32G0xx_HAL_Driver/Src/stm32g0xx_hal_rcc.c ****   * (*) Feature not available on all devices of the family
1033:Drivers/STM32G0xx_HAL_Driver/Src/stm32g0xx_hal_rcc.c ****   * @retval None
1034:Drivers/STM32G0xx_HAL_Driver/Src/stm32g0xx_hal_rcc.c ****   */
1035:Drivers/STM32G0xx_HAL_Driver/Src/stm32g0xx_hal_rcc.c **** void HAL_RCC_MCOConfig(uint32_t RCC_MCOx, uint32_t RCC_MCOSource, uint32_t RCC_MCODiv)
1036:Drivers/STM32G0xx_HAL_Driver/Src/stm32g0xx_hal_rcc.c **** {
 1264              		.loc 1 1036 1 is_stmt 1 view -0
 1265              		.cfi_startproc
 1266              		@ args = 0, pretend = 0, frame = 24
 1267              		@ frame_needed = 0, uses_anonymous_args = 0
1037:Drivers/STM32G0xx_HAL_Driver/Src/stm32g0xx_hal_rcc.c ****   GPIO_InitTypeDef GPIO_InitStruct;
 1268              		.loc 1 1037 3 view .LVU425
1038:Drivers/STM32G0xx_HAL_Driver/Src/stm32g0xx_hal_rcc.c **** 
1039:Drivers/STM32G0xx_HAL_Driver/Src/stm32g0xx_hal_rcc.c ****   /* Check the parameters */
1040:Drivers/STM32G0xx_HAL_Driver/Src/stm32g0xx_hal_rcc.c ****   assert_param(IS_RCC_MCO(RCC_MCOx));
 1269              		.loc 1 1040 3 view .LVU426
1041:Drivers/STM32G0xx_HAL_Driver/Src/stm32g0xx_hal_rcc.c **** 
1042:Drivers/STM32G0xx_HAL_Driver/Src/stm32g0xx_hal_rcc.c ****   /* Common GPIO init parameters */
1043:Drivers/STM32G0xx_HAL_Driver/Src/stm32g0xx_hal_rcc.c ****   GPIO_InitStruct.Mode      = GPIO_MODE_AF_PP;
 1270              		.loc 1 1043 3 view .LVU427
 1271              		.loc 1 1043 29 is_stmt 0 view .LVU428
 1272 0000 0223     		movs	r3, #2
ARM GAS  /tmp/ccheJOBr.s 			page 48


1036:Drivers/STM32G0xx_HAL_Driver/Src/stm32g0xx_hal_rcc.c ****   GPIO_InitTypeDef GPIO_InitStruct;
 1273              		.loc 1 1036 1 view .LVU429
 1274 0002 70B5     		push	{r4, r5, r6, lr}
 1275              	.LCFI3:
 1276              		.cfi_def_cfa_offset 16
 1277              		.cfi_offset 4, -16
 1278              		.cfi_offset 5, -12
 1279              		.cfi_offset 6, -8
 1280              		.cfi_offset 14, -4
 1281 0004 86B0     		sub	sp, sp, #24
 1282              	.LCFI4:
 1283              		.cfi_def_cfa_offset 40
 1284              		.loc 1 1043 29 view .LVU430
 1285 0006 0293     		str	r3, [sp, #8]
1044:Drivers/STM32G0xx_HAL_Driver/Src/stm32g0xx_hal_rcc.c ****   GPIO_InitStruct.Speed     = GPIO_SPEED_FREQ_VERY_HIGH;
 1286              		.loc 1 1044 3 is_stmt 1 view .LVU431
 1287              		.loc 1 1044 29 is_stmt 0 view .LVU432
 1288 0008 0133     		adds	r3, r3, #1
 1289 000a 0493     		str	r3, [sp, #16]
1045:Drivers/STM32G0xx_HAL_Driver/Src/stm32g0xx_hal_rcc.c ****   GPIO_InitStruct.Pull      = GPIO_NOPULL;
 1290              		.loc 1 1045 3 is_stmt 1 view .LVU433
 1291              		.loc 1 1045 29 is_stmt 0 view .LVU434
 1292 000c 0023     		movs	r3, #0
1036:Drivers/STM32G0xx_HAL_Driver/Src/stm32g0xx_hal_rcc.c ****   GPIO_InitTypeDef GPIO_InitStruct;
 1293              		.loc 1 1036 1 view .LVU435
 1294 000e 0D00     		movs	r5, r1
 1295 0010 1600     		movs	r6, r2
 1296              		.loc 1 1045 29 view .LVU436
 1297 0012 0393     		str	r3, [sp, #12]
1046:Drivers/STM32G0xx_HAL_Driver/Src/stm32g0xx_hal_rcc.c **** 
1047:Drivers/STM32G0xx_HAL_Driver/Src/stm32g0xx_hal_rcc.c ****   if (RCC_MCOx == RCC_MCO1)
 1298              		.loc 1 1047 3 is_stmt 1 view .LVU437
 1299              		.loc 1 1047 6 is_stmt 0 view .LVU438
 1300 0014 9842     		cmp	r0, r3
 1301 0016 17D1     		bne	.L129
1048:Drivers/STM32G0xx_HAL_Driver/Src/stm32g0xx_hal_rcc.c ****   {
1049:Drivers/STM32G0xx_HAL_Driver/Src/stm32g0xx_hal_rcc.c ****     assert_param(IS_RCC_MCODIV(RCC_MCODiv));
 1302              		.loc 1 1049 5 is_stmt 1 view .LVU439
1050:Drivers/STM32G0xx_HAL_Driver/Src/stm32g0xx_hal_rcc.c ****     assert_param(IS_RCC_MCO1SOURCE(RCC_MCOSource));
 1303              		.loc 1 1050 5 view .LVU440
1051:Drivers/STM32G0xx_HAL_Driver/Src/stm32g0xx_hal_rcc.c ****     /* MCO1 Clock Enable */
1052:Drivers/STM32G0xx_HAL_Driver/Src/stm32g0xx_hal_rcc.c ****     MCO1_CLK_ENABLE();
 1304              		.loc 1 1052 5 view .LVU441
 1305              	.LBB8:
 1306              		.loc 1 1052 5 view .LVU442
 1307              		.loc 1 1052 5 view .LVU443
 1308 0018 0122     		movs	r2, #1
 1309              	.LVL97:
 1310              		.loc 1 1052 5 is_stmt 0 view .LVU444
 1311 001a 0C4C     		ldr	r4, .L131
 1312              	.LBE8:
1053:Drivers/STM32G0xx_HAL_Driver/Src/stm32g0xx_hal_rcc.c ****     /* Configure the MCO1 pin in alternate function mode */
1054:Drivers/STM32G0xx_HAL_Driver/Src/stm32g0xx_hal_rcc.c ****     GPIO_InitStruct.Pin = MCO1_PIN;
1055:Drivers/STM32G0xx_HAL_Driver/Src/stm32g0xx_hal_rcc.c ****     GPIO_InitStruct.Alternate = GPIO_AF0_MCO;
1056:Drivers/STM32G0xx_HAL_Driver/Src/stm32g0xx_hal_rcc.c ****     HAL_GPIO_Init(MCO1_GPIO_PORT, &GPIO_InitStruct);
 1313              		.loc 1 1056 5 view .LVU445
 1314 001c 01A9     		add	r1, sp, #4
ARM GAS  /tmp/ccheJOBr.s 			page 49


 1315              	.LVL98:
 1316              	.LBB9:
1052:Drivers/STM32G0xx_HAL_Driver/Src/stm32g0xx_hal_rcc.c ****     /* Configure the MCO1 pin in alternate function mode */
 1317              		.loc 1 1052 5 view .LVU446
 1318 001e 636B     		ldr	r3, [r4, #52]
 1319 0020 1343     		orrs	r3, r2
 1320 0022 6363     		str	r3, [r4, #52]
1052:Drivers/STM32G0xx_HAL_Driver/Src/stm32g0xx_hal_rcc.c ****     /* Configure the MCO1 pin in alternate function mode */
 1321              		.loc 1 1052 5 is_stmt 1 view .LVU447
 1322 0024 636B     		ldr	r3, [r4, #52]
 1323              	.LBE9:
1055:Drivers/STM32G0xx_HAL_Driver/Src/stm32g0xx_hal_rcc.c ****     HAL_GPIO_Init(MCO1_GPIO_PORT, &GPIO_InitStruct);
 1324              		.loc 1 1055 31 is_stmt 0 view .LVU448
 1325 0026 0590     		str	r0, [sp, #20]
 1326              	.LBB10:
1052:Drivers/STM32G0xx_HAL_Driver/Src/stm32g0xx_hal_rcc.c ****     /* Configure the MCO1 pin in alternate function mode */
 1327              		.loc 1 1052 5 view .LVU449
 1328 0028 1340     		ands	r3, r2
 1329 002a 0093     		str	r3, [sp]
1052:Drivers/STM32G0xx_HAL_Driver/Src/stm32g0xx_hal_rcc.c ****     /* Configure the MCO1 pin in alternate function mode */
 1330              		.loc 1 1052 5 is_stmt 1 view .LVU450
 1331 002c 009B     		ldr	r3, [sp]
 1332              	.LBE10:
1052:Drivers/STM32G0xx_HAL_Driver/Src/stm32g0xx_hal_rcc.c ****     /* Configure the MCO1 pin in alternate function mode */
 1333              		.loc 1 1052 5 view .LVU451
1054:Drivers/STM32G0xx_HAL_Driver/Src/stm32g0xx_hal_rcc.c ****     GPIO_InitStruct.Alternate = GPIO_AF0_MCO;
 1334              		.loc 1 1054 5 view .LVU452
 1335              		.loc 1 1056 5 is_stmt 0 view .LVU453
 1336 002e A020     		movs	r0, #160
 1337              	.LVL99:
1054:Drivers/STM32G0xx_HAL_Driver/Src/stm32g0xx_hal_rcc.c ****     GPIO_InitStruct.Alternate = GPIO_AF0_MCO;
 1338              		.loc 1 1054 25 view .LVU454
 1339 0030 8023     		movs	r3, #128
 1340              		.loc 1 1056 5 view .LVU455
 1341 0032 C005     		lsls	r0, r0, #23
1054:Drivers/STM32G0xx_HAL_Driver/Src/stm32g0xx_hal_rcc.c ****     GPIO_InitStruct.Alternate = GPIO_AF0_MCO;
 1342              		.loc 1 1054 25 view .LVU456
 1343 0034 5B00     		lsls	r3, r3, #1
 1344 0036 0193     		str	r3, [sp, #4]
1055:Drivers/STM32G0xx_HAL_Driver/Src/stm32g0xx_hal_rcc.c ****     HAL_GPIO_Init(MCO1_GPIO_PORT, &GPIO_InitStruct);
 1345              		.loc 1 1055 5 is_stmt 1 view .LVU457
 1346              		.loc 1 1056 5 view .LVU458
 1347 0038 FFF7FEFF 		bl	HAL_GPIO_Init
 1348              	.LVL100:
1057:Drivers/STM32G0xx_HAL_Driver/Src/stm32g0xx_hal_rcc.c ****     /* Mask MCOSEL[] and MCOPRE[] bits then set MCO clock source and prescaler */
1058:Drivers/STM32G0xx_HAL_Driver/Src/stm32g0xx_hal_rcc.c ****     MODIFY_REG(RCC->CFGR, (RCC_CFGR_MCOSEL | RCC_CFGR_MCOPRE), (RCC_MCOSource | RCC_MCODiv));
 1349              		.loc 1 1058 5 view .LVU459
 1350 003c A168     		ldr	r1, [r4, #8]
 1351 003e 044B     		ldr	r3, .L131+4
 1352 0040 1940     		ands	r1, r3
 1353 0042 3143     		orrs	r1, r6
 1354 0044 2943     		orrs	r1, r5
 1355 0046 A160     		str	r1, [r4, #8]
 1356              	.L129:
1059:Drivers/STM32G0xx_HAL_Driver/Src/stm32g0xx_hal_rcc.c ****   }
1060:Drivers/STM32G0xx_HAL_Driver/Src/stm32g0xx_hal_rcc.c **** #if defined(RCC_MCO2_SUPPORT)
1061:Drivers/STM32G0xx_HAL_Driver/Src/stm32g0xx_hal_rcc.c ****   else if (RCC_MCOx == RCC_MCO2)
ARM GAS  /tmp/ccheJOBr.s 			page 50


1062:Drivers/STM32G0xx_HAL_Driver/Src/stm32g0xx_hal_rcc.c ****   {
1063:Drivers/STM32G0xx_HAL_Driver/Src/stm32g0xx_hal_rcc.c ****     assert_param(IS_RCC_MCO2DIV(RCC_MCODiv));
1064:Drivers/STM32G0xx_HAL_Driver/Src/stm32g0xx_hal_rcc.c ****     assert_param(IS_RCC_MCO2SOURCE(RCC_MCOSource));
1065:Drivers/STM32G0xx_HAL_Driver/Src/stm32g0xx_hal_rcc.c ****     /* MCO2 Clock Enable */
1066:Drivers/STM32G0xx_HAL_Driver/Src/stm32g0xx_hal_rcc.c ****     MCO2_CLK_ENABLE();
1067:Drivers/STM32G0xx_HAL_Driver/Src/stm32g0xx_hal_rcc.c ****     /* Configure the MCO2 pin in alternate function mode */
1068:Drivers/STM32G0xx_HAL_Driver/Src/stm32g0xx_hal_rcc.c ****     GPIO_InitStruct.Pin       = MCO2_PIN;
1069:Drivers/STM32G0xx_HAL_Driver/Src/stm32g0xx_hal_rcc.c ****     GPIO_InitStruct.Alternate = GPIO_AF3_MCO2;
1070:Drivers/STM32G0xx_HAL_Driver/Src/stm32g0xx_hal_rcc.c ****     HAL_GPIO_Init(MCO2_GPIO_PORT, &GPIO_InitStruct);
1071:Drivers/STM32G0xx_HAL_Driver/Src/stm32g0xx_hal_rcc.c ****     /* Mask MCOSEL[] and MCOPRE[] bits then set MCO clock source and prescaler */
1072:Drivers/STM32G0xx_HAL_Driver/Src/stm32g0xx_hal_rcc.c ****     MODIFY_REG(RCC->CFGR, (RCC_CFGR_MCO2SEL | RCC_CFGR_MCO2PRE), (RCC_MCOSource | RCC_MCODiv));
1073:Drivers/STM32G0xx_HAL_Driver/Src/stm32g0xx_hal_rcc.c ****   }
1074:Drivers/STM32G0xx_HAL_Driver/Src/stm32g0xx_hal_rcc.c **** #endif /* RCC_MCO2_SUPPORT */
1075:Drivers/STM32G0xx_HAL_Driver/Src/stm32g0xx_hal_rcc.c **** }
 1357              		.loc 1 1075 1 is_stmt 0 view .LVU460
 1358 0048 06B0     		add	sp, sp, #24
 1359              		@ sp needed
 1360              	.LVL101:
 1361              	.LVL102:
 1362              		.loc 1 1075 1 view .LVU461
 1363 004a 70BD     		pop	{r4, r5, r6, pc}
 1364              	.L132:
 1365              		.align	2
 1366              	.L131:
 1367 004c 00100240 		.word	1073876992
 1368 0050 FFFFFF88 		.word	-1996488705
 1369              		.cfi_endproc
 1370              	.LFE423:
 1372              		.global	__aeabi_uidiv
 1373              		.global	__aeabi_idiv
 1374              		.section	.text.HAL_RCC_GetSysClockFreq,"ax",%progbits
 1375              		.align	1
 1376              		.global	HAL_RCC_GetSysClockFreq
 1377              		.syntax unified
 1378              		.code	16
 1379              		.thumb_func
 1381              	HAL_RCC_GetSysClockFreq:
 1382              	.LFB424:
1076:Drivers/STM32G0xx_HAL_Driver/Src/stm32g0xx_hal_rcc.c **** 
1077:Drivers/STM32G0xx_HAL_Driver/Src/stm32g0xx_hal_rcc.c **** /**
1078:Drivers/STM32G0xx_HAL_Driver/Src/stm32g0xx_hal_rcc.c ****   * @brief  Return the SYSCLK frequency.
1079:Drivers/STM32G0xx_HAL_Driver/Src/stm32g0xx_hal_rcc.c ****   *
1080:Drivers/STM32G0xx_HAL_Driver/Src/stm32g0xx_hal_rcc.c ****   * @note   The system frequency computed by this function is not the real
1081:Drivers/STM32G0xx_HAL_Driver/Src/stm32g0xx_hal_rcc.c ****   *         frequency in the chip. It is calculated based on the predefined
1082:Drivers/STM32G0xx_HAL_Driver/Src/stm32g0xx_hal_rcc.c ****   *         constant and the selected clock source:
1083:Drivers/STM32G0xx_HAL_Driver/Src/stm32g0xx_hal_rcc.c ****   * @note     If SYSCLK source is HSI, function returns values based on HSI_VALUE/HSIDIV(*)
1084:Drivers/STM32G0xx_HAL_Driver/Src/stm32g0xx_hal_rcc.c ****   * @note     If SYSCLK source is HSE, function returns values based on HSE_VALUE(**)
1085:Drivers/STM32G0xx_HAL_Driver/Src/stm32g0xx_hal_rcc.c ****   * @note     If SYSCLK source is PLL, function returns values based on HSE_VALUE(**),
1086:Drivers/STM32G0xx_HAL_Driver/Src/stm32g0xx_hal_rcc.c ****   *           or HSI_VALUE(*) multiplied/divided by the PLL factors.
1087:Drivers/STM32G0xx_HAL_Driver/Src/stm32g0xx_hal_rcc.c ****   * @note     If SYSCLK source is LSI, function returns values based on LSI_VALUE(***)
1088:Drivers/STM32G0xx_HAL_Driver/Src/stm32g0xx_hal_rcc.c ****   * @note     If SYSCLK source is LSE, function returns values based on LSE_VALUE(****)
1089:Drivers/STM32G0xx_HAL_Driver/Src/stm32g0xx_hal_rcc.c ****   * @note     (*) HSI_VALUE is a constant defined in stm32g0xx_hal_conf.h file (default value
1090:Drivers/STM32G0xx_HAL_Driver/Src/stm32g0xx_hal_rcc.c ****   *               16 MHz) but the real value may vary depending on the variations
1091:Drivers/STM32G0xx_HAL_Driver/Src/stm32g0xx_hal_rcc.c ****   *               in voltage and temperature.
1092:Drivers/STM32G0xx_HAL_Driver/Src/stm32g0xx_hal_rcc.c ****   * @note     (**) HSE_VALUE is a constant defined in stm32g0xx_hal_conf.h file (default value
1093:Drivers/STM32G0xx_HAL_Driver/Src/stm32g0xx_hal_rcc.c ****   *                8 MHz), user has to ensure that HSE_VALUE is same as the real
1094:Drivers/STM32G0xx_HAL_Driver/Src/stm32g0xx_hal_rcc.c ****   *                frequency of the crystal used. Otherwise, this function may
ARM GAS  /tmp/ccheJOBr.s 			page 51


1095:Drivers/STM32G0xx_HAL_Driver/Src/stm32g0xx_hal_rcc.c ****   *                have wrong result.
1096:Drivers/STM32G0xx_HAL_Driver/Src/stm32g0xx_hal_rcc.c ****   * @note     (***) LSE_VALUE is a constant defined in stm32g0xx_hal_conf.h file (default value
1097:Drivers/STM32G0xx_HAL_Driver/Src/stm32g0xx_hal_rcc.c ****   *               32768 Hz).
1098:Drivers/STM32G0xx_HAL_Driver/Src/stm32g0xx_hal_rcc.c ****   * @note     (****) LSI_VALUE is a constant defined in stm32g0xx_hal_conf.h file (default value
1099:Drivers/STM32G0xx_HAL_Driver/Src/stm32g0xx_hal_rcc.c ****   *               32000 Hz).
1100:Drivers/STM32G0xx_HAL_Driver/Src/stm32g0xx_hal_rcc.c ****   *
1101:Drivers/STM32G0xx_HAL_Driver/Src/stm32g0xx_hal_rcc.c ****   * @note   The result of this function could be not correct when using fractional
1102:Drivers/STM32G0xx_HAL_Driver/Src/stm32g0xx_hal_rcc.c ****   *         value for HSE crystal.
1103:Drivers/STM32G0xx_HAL_Driver/Src/stm32g0xx_hal_rcc.c ****   *
1104:Drivers/STM32G0xx_HAL_Driver/Src/stm32g0xx_hal_rcc.c ****   * @note   This function can be used by the user application to compute the
1105:Drivers/STM32G0xx_HAL_Driver/Src/stm32g0xx_hal_rcc.c ****   *         baudrate for the communication peripherals or configure other parameters.
1106:Drivers/STM32G0xx_HAL_Driver/Src/stm32g0xx_hal_rcc.c ****   *
1107:Drivers/STM32G0xx_HAL_Driver/Src/stm32g0xx_hal_rcc.c ****   * @note   Each time SYSCLK changes, this function must be called to update the
1108:Drivers/STM32G0xx_HAL_Driver/Src/stm32g0xx_hal_rcc.c ****   *         right SYSCLK value. Otherwise, any configuration based on this function will be incorre
1109:Drivers/STM32G0xx_HAL_Driver/Src/stm32g0xx_hal_rcc.c ****   *
1110:Drivers/STM32G0xx_HAL_Driver/Src/stm32g0xx_hal_rcc.c ****   *
1111:Drivers/STM32G0xx_HAL_Driver/Src/stm32g0xx_hal_rcc.c ****   * @retval SYSCLK frequency
1112:Drivers/STM32G0xx_HAL_Driver/Src/stm32g0xx_hal_rcc.c ****   */
1113:Drivers/STM32G0xx_HAL_Driver/Src/stm32g0xx_hal_rcc.c **** uint32_t HAL_RCC_GetSysClockFreq(void)
1114:Drivers/STM32G0xx_HAL_Driver/Src/stm32g0xx_hal_rcc.c **** {
 1383              		.loc 1 1114 1 is_stmt 1 view -0
 1384              		.cfi_startproc
 1385              		@ args = 0, pretend = 0, frame = 0
 1386              		@ frame_needed = 0, uses_anonymous_args = 0
1115:Drivers/STM32G0xx_HAL_Driver/Src/stm32g0xx_hal_rcc.c ****   uint32_t pllvco, pllsource, pllr, pllm, hsidiv;
 1387              		.loc 1 1115 3 view .LVU463
1116:Drivers/STM32G0xx_HAL_Driver/Src/stm32g0xx_hal_rcc.c ****   uint32_t sysclockfreq;
 1388              		.loc 1 1116 3 view .LVU464
1117:Drivers/STM32G0xx_HAL_Driver/Src/stm32g0xx_hal_rcc.c **** 
1118:Drivers/STM32G0xx_HAL_Driver/Src/stm32g0xx_hal_rcc.c ****   if (__HAL_RCC_GET_SYSCLK_SOURCE() == RCC_SYSCLKSOURCE_STATUS_HSI)
 1389              		.loc 1 1118 3 view .LVU465
 1390              		.loc 1 1118 7 is_stmt 0 view .LVU466
 1391 0000 3823     		movs	r3, #56
1114:Drivers/STM32G0xx_HAL_Driver/Src/stm32g0xx_hal_rcc.c ****   uint32_t pllvco, pllsource, pllr, pllm, hsidiv;
 1392              		.loc 1 1114 1 view .LVU467
 1393 0002 70B5     		push	{r4, r5, r6, lr}
 1394              	.LCFI5:
 1395              		.cfi_def_cfa_offset 16
 1396              		.cfi_offset 4, -16
 1397              		.cfi_offset 5, -12
 1398              		.cfi_offset 6, -8
 1399              		.cfi_offset 14, -4
 1400              		.loc 1 1118 7 view .LVU468
 1401 0004 1D4C     		ldr	r4, .L143
 1402 0006 A268     		ldr	r2, [r4, #8]
 1403              		.loc 1 1118 6 view .LVU469
 1404 0008 1A42     		tst	r2, r3
 1405 000a 05D1     		bne	.L134
1119:Drivers/STM32G0xx_HAL_Driver/Src/stm32g0xx_hal_rcc.c ****   {
1120:Drivers/STM32G0xx_HAL_Driver/Src/stm32g0xx_hal_rcc.c ****     /* HSISYS can be derived for HSI16 */
1121:Drivers/STM32G0xx_HAL_Driver/Src/stm32g0xx_hal_rcc.c ****     hsidiv = (1UL << ((READ_BIT(RCC->CR, RCC_CR_HSIDIV)) >> RCC_CR_HSIDIV_Pos));
 1406              		.loc 1 1121 5 is_stmt 1 view .LVU470
 1407              		.loc 1 1121 24 is_stmt 0 view .LVU471
 1408 000c 2368     		ldr	r3, [r4]
 1409              	.LVL103:
1122:Drivers/STM32G0xx_HAL_Driver/Src/stm32g0xx_hal_rcc.c **** 
1123:Drivers/STM32G0xx_HAL_Driver/Src/stm32g0xx_hal_rcc.c ****     /* HSI used as system clock source */
ARM GAS  /tmp/ccheJOBr.s 			page 52


1124:Drivers/STM32G0xx_HAL_Driver/Src/stm32g0xx_hal_rcc.c ****     sysclockfreq = (HSI_VALUE / hsidiv);
 1410              		.loc 1 1124 5 is_stmt 1 view .LVU472
 1411              		.loc 1 1124 18 is_stmt 0 view .LVU473
 1412 000e 1C48     		ldr	r0, .L143+4
1121:Drivers/STM32G0xx_HAL_Driver/Src/stm32g0xx_hal_rcc.c **** 
 1413              		.loc 1 1121 58 view .LVU474
 1414 0010 9B04     		lsls	r3, r3, #18
 1415              	.LVL104:
1121:Drivers/STM32G0xx_HAL_Driver/Src/stm32g0xx_hal_rcc.c **** 
 1416              		.loc 1 1121 58 view .LVU475
 1417 0012 5B0F     		lsrs	r3, r3, #29
 1418              		.loc 1 1124 18 view .LVU476
 1419 0014 D840     		lsrs	r0, r0, r3
 1420              	.LVL105:
 1421              	.L133:
1125:Drivers/STM32G0xx_HAL_Driver/Src/stm32g0xx_hal_rcc.c ****   }
1126:Drivers/STM32G0xx_HAL_Driver/Src/stm32g0xx_hal_rcc.c ****   else if (__HAL_RCC_GET_SYSCLK_SOURCE() == RCC_SYSCLKSOURCE_STATUS_HSE)
1127:Drivers/STM32G0xx_HAL_Driver/Src/stm32g0xx_hal_rcc.c ****   {
1128:Drivers/STM32G0xx_HAL_Driver/Src/stm32g0xx_hal_rcc.c ****     /* HSE used as system clock source */
1129:Drivers/STM32G0xx_HAL_Driver/Src/stm32g0xx_hal_rcc.c ****     sysclockfreq = HSE_VALUE;
1130:Drivers/STM32G0xx_HAL_Driver/Src/stm32g0xx_hal_rcc.c ****   }
1131:Drivers/STM32G0xx_HAL_Driver/Src/stm32g0xx_hal_rcc.c ****   else if (__HAL_RCC_GET_SYSCLK_SOURCE() == RCC_SYSCLKSOURCE_STATUS_PLLCLK)
1132:Drivers/STM32G0xx_HAL_Driver/Src/stm32g0xx_hal_rcc.c ****   {
1133:Drivers/STM32G0xx_HAL_Driver/Src/stm32g0xx_hal_rcc.c ****     /* PLL used as system clock  source */
1134:Drivers/STM32G0xx_HAL_Driver/Src/stm32g0xx_hal_rcc.c **** 
1135:Drivers/STM32G0xx_HAL_Driver/Src/stm32g0xx_hal_rcc.c ****     /* PLL_VCO = ((HSE_VALUE or HSI_VALUE)/ PLLM) * PLLN
1136:Drivers/STM32G0xx_HAL_Driver/Src/stm32g0xx_hal_rcc.c ****     SYSCLK = PLL_VCO / PLLR
1137:Drivers/STM32G0xx_HAL_Driver/Src/stm32g0xx_hal_rcc.c ****     */
1138:Drivers/STM32G0xx_HAL_Driver/Src/stm32g0xx_hal_rcc.c ****     pllsource = (RCC->PLLCFGR & RCC_PLLCFGR_PLLSRC);
1139:Drivers/STM32G0xx_HAL_Driver/Src/stm32g0xx_hal_rcc.c ****     pllm = ((RCC->PLLCFGR & RCC_PLLCFGR_PLLM) >> RCC_PLLCFGR_PLLM_Pos) + 1U ;
1140:Drivers/STM32G0xx_HAL_Driver/Src/stm32g0xx_hal_rcc.c **** 
1141:Drivers/STM32G0xx_HAL_Driver/Src/stm32g0xx_hal_rcc.c ****     switch (pllsource)
1142:Drivers/STM32G0xx_HAL_Driver/Src/stm32g0xx_hal_rcc.c ****     {
1143:Drivers/STM32G0xx_HAL_Driver/Src/stm32g0xx_hal_rcc.c ****       case RCC_PLLSOURCE_HSE:  /* HSE used as PLL clock source */
1144:Drivers/STM32G0xx_HAL_Driver/Src/stm32g0xx_hal_rcc.c ****         pllvco = (HSE_VALUE / pllm) * ((RCC->PLLCFGR & RCC_PLLCFGR_PLLN) >> RCC_PLLCFGR_PLLN_Pos);
1145:Drivers/STM32G0xx_HAL_Driver/Src/stm32g0xx_hal_rcc.c ****         break;
1146:Drivers/STM32G0xx_HAL_Driver/Src/stm32g0xx_hal_rcc.c **** 
1147:Drivers/STM32G0xx_HAL_Driver/Src/stm32g0xx_hal_rcc.c ****       case RCC_PLLSOURCE_HSI:  /* HSI16 used as PLL clock source */
1148:Drivers/STM32G0xx_HAL_Driver/Src/stm32g0xx_hal_rcc.c ****       default:                 /* HSI16 used as PLL clock source */
1149:Drivers/STM32G0xx_HAL_Driver/Src/stm32g0xx_hal_rcc.c ****         pllvco = (HSI_VALUE / pllm) * ((RCC->PLLCFGR & RCC_PLLCFGR_PLLN) >> RCC_PLLCFGR_PLLN_Pos) ;
1150:Drivers/STM32G0xx_HAL_Driver/Src/stm32g0xx_hal_rcc.c ****         break;
1151:Drivers/STM32G0xx_HAL_Driver/Src/stm32g0xx_hal_rcc.c ****     }
1152:Drivers/STM32G0xx_HAL_Driver/Src/stm32g0xx_hal_rcc.c ****     pllr = (((RCC->PLLCFGR & RCC_PLLCFGR_PLLR) >> RCC_PLLCFGR_PLLR_Pos) + 1U);
1153:Drivers/STM32G0xx_HAL_Driver/Src/stm32g0xx_hal_rcc.c ****     sysclockfreq = pllvco / pllr;
1154:Drivers/STM32G0xx_HAL_Driver/Src/stm32g0xx_hal_rcc.c ****   }
1155:Drivers/STM32G0xx_HAL_Driver/Src/stm32g0xx_hal_rcc.c ****   else if (__HAL_RCC_GET_SYSCLK_SOURCE() == RCC_SYSCLKSOURCE_STATUS_LSE)
1156:Drivers/STM32G0xx_HAL_Driver/Src/stm32g0xx_hal_rcc.c ****   {
1157:Drivers/STM32G0xx_HAL_Driver/Src/stm32g0xx_hal_rcc.c ****     /* LSE used as system clock source */
1158:Drivers/STM32G0xx_HAL_Driver/Src/stm32g0xx_hal_rcc.c ****     sysclockfreq = LSE_VALUE;
1159:Drivers/STM32G0xx_HAL_Driver/Src/stm32g0xx_hal_rcc.c ****   }
1160:Drivers/STM32G0xx_HAL_Driver/Src/stm32g0xx_hal_rcc.c ****   else if (__HAL_RCC_GET_SYSCLK_SOURCE() == RCC_SYSCLKSOURCE_STATUS_LSI)
1161:Drivers/STM32G0xx_HAL_Driver/Src/stm32g0xx_hal_rcc.c ****   {
1162:Drivers/STM32G0xx_HAL_Driver/Src/stm32g0xx_hal_rcc.c ****     /* LSI used as system clock source */
1163:Drivers/STM32G0xx_HAL_Driver/Src/stm32g0xx_hal_rcc.c ****     sysclockfreq = LSI_VALUE;
1164:Drivers/STM32G0xx_HAL_Driver/Src/stm32g0xx_hal_rcc.c ****   }
1165:Drivers/STM32G0xx_HAL_Driver/Src/stm32g0xx_hal_rcc.c ****   else
1166:Drivers/STM32G0xx_HAL_Driver/Src/stm32g0xx_hal_rcc.c ****   {
ARM GAS  /tmp/ccheJOBr.s 			page 53


1167:Drivers/STM32G0xx_HAL_Driver/Src/stm32g0xx_hal_rcc.c ****     sysclockfreq = 0U;
1168:Drivers/STM32G0xx_HAL_Driver/Src/stm32g0xx_hal_rcc.c ****   }
1169:Drivers/STM32G0xx_HAL_Driver/Src/stm32g0xx_hal_rcc.c **** 
1170:Drivers/STM32G0xx_HAL_Driver/Src/stm32g0xx_hal_rcc.c ****   return sysclockfreq;
1171:Drivers/STM32G0xx_HAL_Driver/Src/stm32g0xx_hal_rcc.c **** }
 1422              		.loc 1 1171 1 view .LVU477
 1423              		@ sp needed
 1424 0016 70BD     		pop	{r4, r5, r6, pc}
 1425              	.L134:
1126:Drivers/STM32G0xx_HAL_Driver/Src/stm32g0xx_hal_rcc.c ****   {
 1426              		.loc 1 1126 8 is_stmt 1 view .LVU478
1126:Drivers/STM32G0xx_HAL_Driver/Src/stm32g0xx_hal_rcc.c ****   {
 1427              		.loc 1 1126 12 is_stmt 0 view .LVU479
 1428 0018 A268     		ldr	r2, [r4, #8]
 1429 001a 1A40     		ands	r2, r3
1126:Drivers/STM32G0xx_HAL_Driver/Src/stm32g0xx_hal_rcc.c ****   {
 1430              		.loc 1 1126 11 view .LVU480
 1431 001c 082A     		cmp	r2, #8
 1432 001e 27D0     		beq	.L139
 1433              	.LBB13:
 1434              	.LBI13:
1113:Drivers/STM32G0xx_HAL_Driver/Src/stm32g0xx_hal_rcc.c **** {
 1435              		.loc 1 1113 10 is_stmt 1 view .LVU481
 1436              	.LBB14:
1131:Drivers/STM32G0xx_HAL_Driver/Src/stm32g0xx_hal_rcc.c ****   {
 1437              		.loc 1 1131 8 view .LVU482
1131:Drivers/STM32G0xx_HAL_Driver/Src/stm32g0xx_hal_rcc.c ****   {
 1438              		.loc 1 1131 12 is_stmt 0 view .LVU483
 1439 0020 A268     		ldr	r2, [r4, #8]
 1440 0022 1A40     		ands	r2, r3
1131:Drivers/STM32G0xx_HAL_Driver/Src/stm32g0xx_hal_rcc.c ****   {
 1441              		.loc 1 1131 11 view .LVU484
 1442 0024 102A     		cmp	r2, #16
 1443 0026 17D1     		bne	.L136
1138:Drivers/STM32G0xx_HAL_Driver/Src/stm32g0xx_hal_rcc.c ****     pllm = ((RCC->PLLCFGR & RCC_PLLCFGR_PLLM) >> RCC_PLLCFGR_PLLM_Pos) + 1U ;
 1444              		.loc 1 1138 5 is_stmt 1 view .LVU485
1138:Drivers/STM32G0xx_HAL_Driver/Src/stm32g0xx_hal_rcc.c ****     pllm = ((RCC->PLLCFGR & RCC_PLLCFGR_PLLM) >> RCC_PLLCFGR_PLLM_Pos) + 1U ;
 1445              		.loc 1 1138 21 is_stmt 0 view .LVU486
 1446 0028 E368     		ldr	r3, [r4, #12]
 1447              	.LVL106:
1139:Drivers/STM32G0xx_HAL_Driver/Src/stm32g0xx_hal_rcc.c **** 
 1448              		.loc 1 1139 5 is_stmt 1 view .LVU487
1139:Drivers/STM32G0xx_HAL_Driver/Src/stm32g0xx_hal_rcc.c **** 
 1449              		.loc 1 1139 17 is_stmt 0 view .LVU488
 1450 002a E168     		ldr	r1, [r4, #12]
1138:Drivers/STM32G0xx_HAL_Driver/Src/stm32g0xx_hal_rcc.c ****     pllm = ((RCC->PLLCFGR & RCC_PLLCFGR_PLLM) >> RCC_PLLCFGR_PLLM_Pos) + 1U ;
 1451              		.loc 1 1138 15 view .LVU489
 1452 002c DB43     		mvns	r3, r3
 1453              	.LVL107:
1149:Drivers/STM32G0xx_HAL_Driver/Src/stm32g0xx_hal_rcc.c ****         break;
 1454              		.loc 1 1149 44 view .LVU490
 1455 002e E568     		ldr	r5, [r4, #12]
1139:Drivers/STM32G0xx_HAL_Driver/Src/stm32g0xx_hal_rcc.c **** 
 1456              		.loc 1 1139 47 view .LVU491
 1457 0030 4906     		lsls	r1, r1, #25
 1458 0032 490F     		lsrs	r1, r1, #29
 1459 0034 6F32     		adds	r2, r2, #111
ARM GAS  /tmp/ccheJOBr.s 			page 54


1149:Drivers/STM32G0xx_HAL_Driver/Src/stm32g0xx_hal_rcc.c ****         break;
 1460              		.loc 1 1149 74 view .LVU492
 1461 0036 2D0A     		lsrs	r5, r5, #8
1139:Drivers/STM32G0xx_HAL_Driver/Src/stm32g0xx_hal_rcc.c **** 
 1462              		.loc 1 1139 10 view .LVU493
 1463 0038 0131     		adds	r1, r1, #1
 1464              	.LVL108:
1141:Drivers/STM32G0xx_HAL_Driver/Src/stm32g0xx_hal_rcc.c ****     {
 1465              		.loc 1 1141 5 is_stmt 1 view .LVU494
1149:Drivers/STM32G0xx_HAL_Driver/Src/stm32g0xx_hal_rcc.c ****         break;
 1466              		.loc 1 1149 74 is_stmt 0 view .LVU495
 1467 003a 1540     		ands	r5, r2
1141:Drivers/STM32G0xx_HAL_Driver/Src/stm32g0xx_hal_rcc.c ****     {
 1468              		.loc 1 1141 5 view .LVU496
 1469 003c 9B07     		lsls	r3, r3, #30
 1470 003e 09D1     		bne	.L137
 1471              	.LVL109:
1144:Drivers/STM32G0xx_HAL_Driver/Src/stm32g0xx_hal_rcc.c ****         break;
 1472              		.loc 1 1144 9 is_stmt 1 view .LVU497
1144:Drivers/STM32G0xx_HAL_Driver/Src/stm32g0xx_hal_rcc.c ****         break;
 1473              		.loc 1 1144 29 is_stmt 0 view .LVU498
 1474 0040 1048     		ldr	r0, .L143+8
 1475              	.L142:
1149:Drivers/STM32G0xx_HAL_Driver/Src/stm32g0xx_hal_rcc.c ****         break;
 1476              		.loc 1 1149 29 view .LVU499
 1477 0042 FFF7FEFF 		bl	__aeabi_uidiv
 1478              	.LVL110:
1152:Drivers/STM32G0xx_HAL_Driver/Src/stm32g0xx_hal_rcc.c ****     sysclockfreq = pllvco / pllr;
 1479              		.loc 1 1152 18 view .LVU500
 1480 0046 E168     		ldr	r1, [r4, #12]
1149:Drivers/STM32G0xx_HAL_Driver/Src/stm32g0xx_hal_rcc.c ****         break;
 1481              		.loc 1 1149 16 view .LVU501
 1482 0048 6843     		muls	r0, r5
 1483              	.LVL111:
1150:Drivers/STM32G0xx_HAL_Driver/Src/stm32g0xx_hal_rcc.c ****     }
 1484              		.loc 1 1150 9 is_stmt 1 view .LVU502
1152:Drivers/STM32G0xx_HAL_Driver/Src/stm32g0xx_hal_rcc.c ****     sysclockfreq = pllvco / pllr;
 1485              		.loc 1 1152 5 view .LVU503
1153:Drivers/STM32G0xx_HAL_Driver/Src/stm32g0xx_hal_rcc.c ****   }
 1486              		.loc 1 1153 5 view .LVU504
1152:Drivers/STM32G0xx_HAL_Driver/Src/stm32g0xx_hal_rcc.c ****     sysclockfreq = pllvco / pllr;
 1487              		.loc 1 1152 48 is_stmt 0 view .LVU505
 1488 004a 490F     		lsrs	r1, r1, #29
 1489              	.LVL112:
1152:Drivers/STM32G0xx_HAL_Driver/Src/stm32g0xx_hal_rcc.c ****     sysclockfreq = pllvco / pllr;
 1490              		.loc 1 1152 10 view .LVU506
 1491 004c 0131     		adds	r1, r1, #1
 1492              	.LVL113:
1153:Drivers/STM32G0xx_HAL_Driver/Src/stm32g0xx_hal_rcc.c ****   }
 1493              		.loc 1 1153 18 view .LVU507
 1494 004e FFF7FEFF 		bl	__aeabi_uidiv
 1495              	.LVL114:
1153:Drivers/STM32G0xx_HAL_Driver/Src/stm32g0xx_hal_rcc.c ****   }
 1496              		.loc 1 1153 18 view .LVU508
 1497 0052 E0E7     		b	.L133
 1498              	.LVL115:
 1499              	.L137:
ARM GAS  /tmp/ccheJOBr.s 			page 55


1149:Drivers/STM32G0xx_HAL_Driver/Src/stm32g0xx_hal_rcc.c ****         break;
 1500              		.loc 1 1149 9 is_stmt 1 view .LVU509
1149:Drivers/STM32G0xx_HAL_Driver/Src/stm32g0xx_hal_rcc.c ****         break;
 1501              		.loc 1 1149 29 is_stmt 0 view .LVU510
 1502 0054 0A48     		ldr	r0, .L143+4
 1503 0056 F4E7     		b	.L142
 1504              	.LVL116:
 1505              	.L136:
1155:Drivers/STM32G0xx_HAL_Driver/Src/stm32g0xx_hal_rcc.c ****   {
 1506              		.loc 1 1155 8 is_stmt 1 view .LVU511
1155:Drivers/STM32G0xx_HAL_Driver/Src/stm32g0xx_hal_rcc.c ****   {
 1507              		.loc 1 1155 12 is_stmt 0 view .LVU512
 1508 0058 A268     		ldr	r2, [r4, #8]
 1509 005a 1A40     		ands	r2, r3
1155:Drivers/STM32G0xx_HAL_Driver/Src/stm32g0xx_hal_rcc.c ****   {
 1510              		.loc 1 1155 11 view .LVU513
 1511 005c 202A     		cmp	r2, #32
 1512 005e 09D0     		beq	.L140
1160:Drivers/STM32G0xx_HAL_Driver/Src/stm32g0xx_hal_rcc.c ****   {
 1513              		.loc 1 1160 8 is_stmt 1 view .LVU514
1160:Drivers/STM32G0xx_HAL_Driver/Src/stm32g0xx_hal_rcc.c ****   {
 1514              		.loc 1 1160 12 is_stmt 0 view .LVU515
 1515 0060 A268     		ldr	r2, [r4, #8]
1167:Drivers/STM32G0xx_HAL_Driver/Src/stm32g0xx_hal_rcc.c ****   }
 1516              		.loc 1 1167 18 view .LVU516
 1517 0062 0020     		movs	r0, #0
1160:Drivers/STM32G0xx_HAL_Driver/Src/stm32g0xx_hal_rcc.c ****   {
 1518              		.loc 1 1160 12 view .LVU517
 1519 0064 1340     		ands	r3, r2
1160:Drivers/STM32G0xx_HAL_Driver/Src/stm32g0xx_hal_rcc.c ****   {
 1520              		.loc 1 1160 11 view .LVU518
 1521 0066 182B     		cmp	r3, #24
 1522 0068 D5D1     		bne	.L133
1163:Drivers/STM32G0xx_HAL_Driver/Src/stm32g0xx_hal_rcc.c ****   }
 1523              		.loc 1 1163 18 view .LVU519
 1524 006a FA20     		movs	r0, #250
 1525 006c C001     		lsls	r0, r0, #7
 1526 006e D2E7     		b	.L133
 1527              	.L139:
 1528              	.LBE14:
 1529              	.LBE13:
1129:Drivers/STM32G0xx_HAL_Driver/Src/stm32g0xx_hal_rcc.c ****   }
 1530              		.loc 1 1129 18 view .LVU520
 1531 0070 0448     		ldr	r0, .L143+8
 1532 0072 D0E7     		b	.L133
 1533              	.L140:
 1534              	.LBB16:
 1535              	.LBB15:
1158:Drivers/STM32G0xx_HAL_Driver/Src/stm32g0xx_hal_rcc.c ****   }
 1536              		.loc 1 1158 18 view .LVU521
 1537 0074 8020     		movs	r0, #128
 1538 0076 0002     		lsls	r0, r0, #8
 1539 0078 CDE7     		b	.L133
 1540              	.L144:
 1541 007a C046     		.align	2
 1542              	.L143:
 1543 007c 00100240 		.word	1073876992
ARM GAS  /tmp/ccheJOBr.s 			page 56


 1544 0080 0024F400 		.word	16000000
 1545 0084 00127A00 		.word	8000000
 1546              	.LBE15:
 1547              	.LBE16:
 1548              		.cfi_endproc
 1549              	.LFE424:
 1551              		.section	.text.HAL_RCC_ClockConfig,"ax",%progbits
 1552              		.align	1
 1553              		.global	HAL_RCC_ClockConfig
 1554              		.syntax unified
 1555              		.code	16
 1556              		.thumb_func
 1558              	HAL_RCC_ClockConfig:
 1559              	.LVL117:
 1560              	.LFB422:
 807:Drivers/STM32G0xx_HAL_Driver/Src/stm32g0xx_hal_rcc.c ****   uint32_t tickstart;
 1561              		.loc 1 807 1 is_stmt 1 view -0
 1562              		.cfi_startproc
 1563              		@ args = 0, pretend = 0, frame = 8
 1564              		@ frame_needed = 0, uses_anonymous_args = 0
 808:Drivers/STM32G0xx_HAL_Driver/Src/stm32g0xx_hal_rcc.c **** 
 1565              		.loc 1 808 3 view .LVU523
 811:Drivers/STM32G0xx_HAL_Driver/Src/stm32g0xx_hal_rcc.c ****   {
 1566              		.loc 1 811 3 view .LVU524
 807:Drivers/STM32G0xx_HAL_Driver/Src/stm32g0xx_hal_rcc.c ****   uint32_t tickstart;
 1567              		.loc 1 807 1 is_stmt 0 view .LVU525
 1568 0000 F7B5     		push	{r0, r1, r2, r4, r5, r6, r7, lr}
 1569              	.LCFI6:
 1570              		.cfi_def_cfa_offset 32
 1571              		.cfi_offset 0, -32
 1572              		.cfi_offset 1, -28
 1573              		.cfi_offset 2, -24
 1574              		.cfi_offset 4, -20
 1575              		.cfi_offset 5, -16
 1576              		.cfi_offset 6, -12
 1577              		.cfi_offset 7, -8
 1578              		.cfi_offset 14, -4
 807:Drivers/STM32G0xx_HAL_Driver/Src/stm32g0xx_hal_rcc.c ****   uint32_t tickstart;
 1579              		.loc 1 807 1 view .LVU526
 1580 0002 0400     		movs	r4, r0
 1581 0004 0D00     		movs	r5, r1
 811:Drivers/STM32G0xx_HAL_Driver/Src/stm32g0xx_hal_rcc.c ****   {
 1582              		.loc 1 811 6 view .LVU527
 1583 0006 0028     		cmp	r0, #0
 1584 0008 01D1     		bne	.L146
 1585              	.LVL118:
 1586              	.L164:
 813:Drivers/STM32G0xx_HAL_Driver/Src/stm32g0xx_hal_rcc.c ****   }
 1587              		.loc 1 813 12 view .LVU528
 1588 000a 0120     		movs	r0, #1
 1589              	.LVL119:
 1590              	.L147:
 953:Drivers/STM32G0xx_HAL_Driver/Src/stm32g0xx_hal_rcc.c **** 
 1591              		.loc 1 953 1 view .LVU529
 1592              		@ sp needed
 1593              	.LVL120:
 953:Drivers/STM32G0xx_HAL_Driver/Src/stm32g0xx_hal_rcc.c **** 
ARM GAS  /tmp/ccheJOBr.s 			page 57


 1594              		.loc 1 953 1 view .LVU530
 1595 000c FEBD     		pop	{r1, r2, r3, r4, r5, r6, r7, pc}
 1596              	.LVL121:
 1597              	.L146:
 817:Drivers/STM32G0xx_HAL_Driver/Src/stm32g0xx_hal_rcc.c ****   assert_param(IS_FLASH_LATENCY(FLatency));
 1598              		.loc 1 817 3 is_stmt 1 view .LVU531
 818:Drivers/STM32G0xx_HAL_Driver/Src/stm32g0xx_hal_rcc.c **** 
 1599              		.loc 1 818 3 view .LVU532
 825:Drivers/STM32G0xx_HAL_Driver/Src/stm32g0xx_hal_rcc.c ****   {
 1600              		.loc 1 825 3 view .LVU533
 825:Drivers/STM32G0xx_HAL_Driver/Src/stm32g0xx_hal_rcc.c ****   {
 1601              		.loc 1 825 18 is_stmt 0 view .LVU534
 1602 000e 0727     		movs	r7, #7
 1603 0010 484E     		ldr	r6, .L201
 1604 0012 3368     		ldr	r3, [r6]
 1605 0014 3B40     		ands	r3, r7
 825:Drivers/STM32G0xx_HAL_Driver/Src/stm32g0xx_hal_rcc.c ****   {
 1606              		.loc 1 825 6 view .LVU535
 1607 0016 8B42     		cmp	r3, r1
 1608 0018 2AD3     		bcc	.L148
 1609              	.LVL122:
 1610              	.L153:
 844:Drivers/STM32G0xx_HAL_Driver/Src/stm32g0xx_hal_rcc.c ****   {
 1611              		.loc 1 844 3 is_stmt 1 view .LVU536
 844:Drivers/STM32G0xx_HAL_Driver/Src/stm32g0xx_hal_rcc.c ****   {
 1612              		.loc 1 844 26 is_stmt 0 view .LVU537
 1613 001a 2268     		ldr	r2, [r4]
 844:Drivers/STM32G0xx_HAL_Driver/Src/stm32g0xx_hal_rcc.c ****   {
 1614              		.loc 1 844 6 view .LVU538
 1615 001c 9307     		lsls	r3, r2, #30
 1616 001e 3BD4     		bmi	.L149
 1617              	.L150:
 859:Drivers/STM32G0xx_HAL_Driver/Src/stm32g0xx_hal_rcc.c ****   {
 1618              		.loc 1 859 3 is_stmt 1 view .LVU539
 859:Drivers/STM32G0xx_HAL_Driver/Src/stm32g0xx_hal_rcc.c ****   {
 1619              		.loc 1 859 6 is_stmt 0 view .LVU540
 1620 0020 D207     		lsls	r2, r2, #31
 1621 0022 48D4     		bmi	.L155
 1622              	.L169:
 923:Drivers/STM32G0xx_HAL_Driver/Src/stm32g0xx_hal_rcc.c ****   {
 1623              		.loc 1 923 3 is_stmt 1 view .LVU541
 923:Drivers/STM32G0xx_HAL_Driver/Src/stm32g0xx_hal_rcc.c ****   {
 1624              		.loc 1 923 18 is_stmt 0 view .LVU542
 1625 0024 0727     		movs	r7, #7
 1626 0026 3368     		ldr	r3, [r6]
 1627 0028 3B40     		ands	r3, r7
 923:Drivers/STM32G0xx_HAL_Driver/Src/stm32g0xx_hal_rcc.c ****   {
 1628              		.loc 1 923 6 view .LVU543
 1629 002a AB42     		cmp	r3, r5
 1630 002c 0AD9     		bls	.L157
 926:Drivers/STM32G0xx_HAL_Driver/Src/stm32g0xx_hal_rcc.c **** 
 1631              		.loc 1 926 5 is_stmt 1 view .LVU544
 1632 002e 3368     		ldr	r3, [r6]
 1633 0030 BB43     		bics	r3, r7
 1634 0032 2B43     		orrs	r3, r5
 1635 0034 3360     		str	r3, [r6]
 930:Drivers/STM32G0xx_HAL_Driver/Src/stm32g0xx_hal_rcc.c **** 
ARM GAS  /tmp/ccheJOBr.s 			page 58


 1636              		.loc 1 930 5 view .LVU545
 930:Drivers/STM32G0xx_HAL_Driver/Src/stm32g0xx_hal_rcc.c **** 
 1637              		.loc 1 930 17 is_stmt 0 view .LVU546
 1638 0036 FFF7FEFF 		bl	HAL_GetTick
 1639              	.LVL123:
 1640 003a 0190     		str	r0, [sp, #4]
 1641              	.LVL124:
 932:Drivers/STM32G0xx_HAL_Driver/Src/stm32g0xx_hal_rcc.c ****     {
 1642              		.loc 1 932 5 is_stmt 1 view .LVU547
 1643              	.L172:
 932:Drivers/STM32G0xx_HAL_Driver/Src/stm32g0xx_hal_rcc.c ****     {
 1644              		.loc 1 932 45 view .LVU548
 932:Drivers/STM32G0xx_HAL_Driver/Src/stm32g0xx_hal_rcc.c ****     {
 1645              		.loc 1 932 18 is_stmt 0 view .LVU549
 1646 003c 3368     		ldr	r3, [r6]
 932:Drivers/STM32G0xx_HAL_Driver/Src/stm32g0xx_hal_rcc.c ****     {
 1647              		.loc 1 932 24 view .LVU550
 1648 003e 3B40     		ands	r3, r7
 932:Drivers/STM32G0xx_HAL_Driver/Src/stm32g0xx_hal_rcc.c ****     {
 1649              		.loc 1 932 45 view .LVU551
 1650 0040 AB42     		cmp	r3, r5
 1651 0042 68D1     		bne	.L173
 1652              	.LVL125:
 1653              	.L157:
 942:Drivers/STM32G0xx_HAL_Driver/Src/stm32g0xx_hal_rcc.c ****   {
 1654              		.loc 1 942 3 is_stmt 1 view .LVU552
 942:Drivers/STM32G0xx_HAL_Driver/Src/stm32g0xx_hal_rcc.c ****   {
 1655              		.loc 1 942 39 is_stmt 0 view .LVU553
 1656 0044 2368     		ldr	r3, [r4]
 1657 0046 3C4D     		ldr	r5, .L201+4
 1658              	.LVL126:
 942:Drivers/STM32G0xx_HAL_Driver/Src/stm32g0xx_hal_rcc.c ****   {
 1659              		.loc 1 942 6 view .LVU554
 1660 0048 5B07     		lsls	r3, r3, #29
 1661 004a 6CD4     		bmi	.L170
 1662              	.L171:
 949:Drivers/STM32G0xx_HAL_Driver/Src/stm32g0xx_hal_rcc.c **** 
 1663              		.loc 1 949 3 is_stmt 1 view .LVU555
 949:Drivers/STM32G0xx_HAL_Driver/Src/stm32g0xx_hal_rcc.c **** 
 1664              		.loc 1 949 22 is_stmt 0 view .LVU556
 1665 004c FFF7FEFF 		bl	HAL_RCC_GetSysClockFreq
 1666              	.LVL127:
 949:Drivers/STM32G0xx_HAL_Driver/Src/stm32g0xx_hal_rcc.c **** 
 1667              		.loc 1 949 71 discriminator 1 view .LVU557
 1668 0050 AB68     		ldr	r3, [r5, #8]
 949:Drivers/STM32G0xx_HAL_Driver/Src/stm32g0xx_hal_rcc.c **** 
 1669              		.loc 1 949 66 discriminator 1 view .LVU558
 1670 0052 3A49     		ldr	r1, .L201+8
 949:Drivers/STM32G0xx_HAL_Driver/Src/stm32g0xx_hal_rcc.c **** 
 1671              		.loc 1 949 95 discriminator 1 view .LVU559
 1672 0054 1B05     		lsls	r3, r3, #20
 1673 0056 1B0F     		lsrs	r3, r3, #28
 949:Drivers/STM32G0xx_HAL_Driver/Src/stm32g0xx_hal_rcc.c **** 
 1674              		.loc 1 949 66 discriminator 1 view .LVU560
 1675 0058 9B00     		lsls	r3, r3, #2
 949:Drivers/STM32G0xx_HAL_Driver/Src/stm32g0xx_hal_rcc.c **** 
 1676              		.loc 1 949 118 discriminator 1 view .LVU561
ARM GAS  /tmp/ccheJOBr.s 			page 59


 1677 005a 5B58     		ldr	r3, [r3, r1]
 1678 005c 1F21     		movs	r1, #31
 1679 005e 0B40     		ands	r3, r1
 949:Drivers/STM32G0xx_HAL_Driver/Src/stm32g0xx_hal_rcc.c **** 
 1680              		.loc 1 949 48 discriminator 1 view .LVU562
 1681 0060 D840     		lsrs	r0, r0, r3
 949:Drivers/STM32G0xx_HAL_Driver/Src/stm32g0xx_hal_rcc.c **** 
 1682              		.loc 1 949 19 discriminator 1 view .LVU563
 1683 0062 374A     		ldr	r2, .L201+12
 952:Drivers/STM32G0xx_HAL_Driver/Src/stm32g0xx_hal_rcc.c **** }
 1684              		.loc 1 952 10 view .LVU564
 1685 0064 374B     		ldr	r3, .L201+16
 949:Drivers/STM32G0xx_HAL_Driver/Src/stm32g0xx_hal_rcc.c **** 
 1686              		.loc 1 949 19 discriminator 1 view .LVU565
 1687 0066 1060     		str	r0, [r2]
 952:Drivers/STM32G0xx_HAL_Driver/Src/stm32g0xx_hal_rcc.c **** }
 1688              		.loc 1 952 3 is_stmt 1 view .LVU566
 952:Drivers/STM32G0xx_HAL_Driver/Src/stm32g0xx_hal_rcc.c **** }
 1689              		.loc 1 952 10 is_stmt 0 view .LVU567
 1690 0068 1868     		ldr	r0, [r3]
 1691 006a FFF7FEFF 		bl	HAL_InitTick
 1692              	.LVL128:
 1693 006e CDE7     		b	.L147
 1694              	.LVL129:
 1695              	.L148:
 828:Drivers/STM32G0xx_HAL_Driver/Src/stm32g0xx_hal_rcc.c **** 
 1696              		.loc 1 828 5 is_stmt 1 view .LVU568
 1697 0070 3368     		ldr	r3, [r6]
 1698 0072 BB43     		bics	r3, r7
 1699 0074 0B43     		orrs	r3, r1
 1700 0076 3360     		str	r3, [r6]
 832:Drivers/STM32G0xx_HAL_Driver/Src/stm32g0xx_hal_rcc.c **** 
 1701              		.loc 1 832 5 view .LVU569
 832:Drivers/STM32G0xx_HAL_Driver/Src/stm32g0xx_hal_rcc.c **** 
 1702              		.loc 1 832 17 is_stmt 0 view .LVU570
 1703 0078 FFF7FEFF 		bl	HAL_GetTick
 1704              	.LVL130:
 832:Drivers/STM32G0xx_HAL_Driver/Src/stm32g0xx_hal_rcc.c **** 
 1705              		.loc 1 832 17 view .LVU571
 1706 007c 0190     		str	r0, [sp, #4]
 1707              	.LVL131:
 834:Drivers/STM32G0xx_HAL_Driver/Src/stm32g0xx_hal_rcc.c ****     {
 1708              		.loc 1 834 5 is_stmt 1 view .LVU572
 1709              	.L151:
 834:Drivers/STM32G0xx_HAL_Driver/Src/stm32g0xx_hal_rcc.c ****     {
 1710              		.loc 1 834 45 view .LVU573
 834:Drivers/STM32G0xx_HAL_Driver/Src/stm32g0xx_hal_rcc.c ****     {
 1711              		.loc 1 834 18 is_stmt 0 view .LVU574
 1712 007e 3368     		ldr	r3, [r6]
 834:Drivers/STM32G0xx_HAL_Driver/Src/stm32g0xx_hal_rcc.c ****     {
 1713              		.loc 1 834 24 view .LVU575
 1714 0080 3B40     		ands	r3, r7
 834:Drivers/STM32G0xx_HAL_Driver/Src/stm32g0xx_hal_rcc.c ****     {
 1715              		.loc 1 834 45 view .LVU576
 1716 0082 AB42     		cmp	r3, r5
 1717 0084 C9D0     		beq	.L153
 836:Drivers/STM32G0xx_HAL_Driver/Src/stm32g0xx_hal_rcc.c ****       {
ARM GAS  /tmp/ccheJOBr.s 			page 60


 1718              		.loc 1 836 7 is_stmt 1 view .LVU577
 836:Drivers/STM32G0xx_HAL_Driver/Src/stm32g0xx_hal_rcc.c ****       {
 1719              		.loc 1 836 12 is_stmt 0 view .LVU578
 1720 0086 FFF7FEFF 		bl	HAL_GetTick
 1721              	.LVL132:
 836:Drivers/STM32G0xx_HAL_Driver/Src/stm32g0xx_hal_rcc.c ****       {
 1722              		.loc 1 836 26 discriminator 1 view .LVU579
 1723 008a 019B     		ldr	r3, [sp, #4]
 1724 008c C01A     		subs	r0, r0, r3
 836:Drivers/STM32G0xx_HAL_Driver/Src/stm32g0xx_hal_rcc.c ****       {
 1725              		.loc 1 836 10 discriminator 1 view .LVU580
 1726 008e 2E4B     		ldr	r3, .L201+20
 1727 0090 9842     		cmp	r0, r3
 1728 0092 F4D9     		bls	.L151
 1729              	.L167:
 838:Drivers/STM32G0xx_HAL_Driver/Src/stm32g0xx_hal_rcc.c ****       }
 1730              		.loc 1 838 16 view .LVU581
 1731 0094 0320     		movs	r0, #3
 1732 0096 B9E7     		b	.L147
 1733              	.LVL133:
 1734              	.L149:
 848:Drivers/STM32G0xx_HAL_Driver/Src/stm32g0xx_hal_rcc.c ****     {
 1735              		.loc 1 848 5 is_stmt 1 view .LVU582
 1736 0098 2749     		ldr	r1, .L201+4
 848:Drivers/STM32G0xx_HAL_Driver/Src/stm32g0xx_hal_rcc.c ****     {
 1737              		.loc 1 848 8 is_stmt 0 view .LVU583
 1738 009a 5307     		lsls	r3, r2, #29
 1739 009c 04D5     		bpl	.L154
 850:Drivers/STM32G0xx_HAL_Driver/Src/stm32g0xx_hal_rcc.c ****     }
 1740              		.loc 1 850 7 is_stmt 1 view .LVU584
 1741 009e E023     		movs	r3, #224
 1742 00a0 8868     		ldr	r0, [r1, #8]
 1743 00a2 DB01     		lsls	r3, r3, #7
 1744 00a4 0343     		orrs	r3, r0
 1745 00a6 8B60     		str	r3, [r1, #8]
 1746              	.L154:
 854:Drivers/STM32G0xx_HAL_Driver/Src/stm32g0xx_hal_rcc.c ****     MODIFY_REG(RCC->CFGR, RCC_CFGR_HPRE, RCC_ClkInitStruct->AHBCLKDivider);
 1747              		.loc 1 854 5 view .LVU585
 855:Drivers/STM32G0xx_HAL_Driver/Src/stm32g0xx_hal_rcc.c ****   }
 1748              		.loc 1 855 5 view .LVU586
 1749 00a8 8B68     		ldr	r3, [r1, #8]
 1750 00aa 2848     		ldr	r0, .L201+24
 1751 00ac 0340     		ands	r3, r0
 1752 00ae A068     		ldr	r0, [r4, #8]
 1753 00b0 0343     		orrs	r3, r0
 1754 00b2 8B60     		str	r3, [r1, #8]
 1755 00b4 B4E7     		b	.L150
 1756              	.L155:
 861:Drivers/STM32G0xx_HAL_Driver/Src/stm32g0xx_hal_rcc.c **** 
 1757              		.loc 1 861 5 view .LVU587
 864:Drivers/STM32G0xx_HAL_Driver/Src/stm32g0xx_hal_rcc.c ****     {
 1758              		.loc 1 864 5 view .LVU588
 864:Drivers/STM32G0xx_HAL_Driver/Src/stm32g0xx_hal_rcc.c ****     {
 1759              		.loc 1 864 26 is_stmt 0 view .LVU589
 1760 00b6 6068     		ldr	r0, [r4, #4]
 1761 00b8 1F4F     		ldr	r7, .L201+4
 1762 00ba 0328     		cmp	r0, #3
ARM GAS  /tmp/ccheJOBr.s 			page 61


 1763 00bc 29D8     		bhi	.L158
 1764 00be FFF7FEFF 		bl	__gnu_thumb1_case_uqi
 1765              	.L160:
 1766 00c2 20       		.byte	(.L163-.L160)/2
 1767 00c3 02       		.byte	(.L162-.L160)/2
 1768 00c4 1C       		.byte	(.L161-.L160)/2
 1769 00c5 24       		.byte	(.L159-.L160)/2
 1770              		.p2align 1
 1771              	.L162:
 867:Drivers/STM32G0xx_HAL_Driver/Src/stm32g0xx_hal_rcc.c ****       {
 1772              		.loc 1 867 7 is_stmt 1 view .LVU590
 867:Drivers/STM32G0xx_HAL_Driver/Src/stm32g0xx_hal_rcc.c ****       {
 1773              		.loc 1 867 11 is_stmt 0 view .LVU591
 1774 00c6 3B68     		ldr	r3, [r7]
 867:Drivers/STM32G0xx_HAL_Driver/Src/stm32g0xx_hal_rcc.c ****       {
 1775              		.loc 1 867 10 view .LVU592
 1776 00c8 9B03     		lsls	r3, r3, #14
 1777 00ca 9ED5     		bpl	.L164
 1778              	.L165:
 908:Drivers/STM32G0xx_HAL_Driver/Src/stm32g0xx_hal_rcc.c **** 
 1779              		.loc 1 908 5 is_stmt 1 view .LVU593
 1780 00cc 0722     		movs	r2, #7
 1781 00ce BB68     		ldr	r3, [r7, #8]
 1782 00d0 9343     		bics	r3, r2
 1783 00d2 0343     		orrs	r3, r0
 1784 00d4 BB60     		str	r3, [r7, #8]
 911:Drivers/STM32G0xx_HAL_Driver/Src/stm32g0xx_hal_rcc.c **** 
 1785              		.loc 1 911 5 view .LVU594
 911:Drivers/STM32G0xx_HAL_Driver/Src/stm32g0xx_hal_rcc.c **** 
 1786              		.loc 1 911 17 is_stmt 0 view .LVU595
 1787 00d6 FFF7FEFF 		bl	HAL_GetTick
 1788              	.LVL134:
 1789 00da 0190     		str	r0, [sp, #4]
 1790              	.LVL135:
 913:Drivers/STM32G0xx_HAL_Driver/Src/stm32g0xx_hal_rcc.c ****     {
 1791              		.loc 1 913 5 is_stmt 1 view .LVU596
 1792              	.L166:
 913:Drivers/STM32G0xx_HAL_Driver/Src/stm32g0xx_hal_rcc.c ****     {
 1793              		.loc 1 913 42 view .LVU597
 913:Drivers/STM32G0xx_HAL_Driver/Src/stm32g0xx_hal_rcc.c ****     {
 1794              		.loc 1 913 12 is_stmt 0 view .LVU598
 1795 00dc 3823     		movs	r3, #56
 1796 00de BA68     		ldr	r2, [r7, #8]
 1797 00e0 1A40     		ands	r2, r3
 913:Drivers/STM32G0xx_HAL_Driver/Src/stm32g0xx_hal_rcc.c ****     {
 1798              		.loc 1 913 78 view .LVU599
 1799 00e2 6368     		ldr	r3, [r4, #4]
 1800 00e4 DB00     		lsls	r3, r3, #3
 913:Drivers/STM32G0xx_HAL_Driver/Src/stm32g0xx_hal_rcc.c ****     {
 1801              		.loc 1 913 42 view .LVU600
 1802 00e6 9A42     		cmp	r2, r3
 1803 00e8 9CD0     		beq	.L169
 915:Drivers/STM32G0xx_HAL_Driver/Src/stm32g0xx_hal_rcc.c ****       {
 1804              		.loc 1 915 7 is_stmt 1 view .LVU601
 915:Drivers/STM32G0xx_HAL_Driver/Src/stm32g0xx_hal_rcc.c ****       {
 1805              		.loc 1 915 12 is_stmt 0 view .LVU602
 1806 00ea FFF7FEFF 		bl	HAL_GetTick
ARM GAS  /tmp/ccheJOBr.s 			page 62


 1807              	.LVL136:
 915:Drivers/STM32G0xx_HAL_Driver/Src/stm32g0xx_hal_rcc.c ****       {
 1808              		.loc 1 915 26 discriminator 1 view .LVU603
 1809 00ee 019B     		ldr	r3, [sp, #4]
 1810 00f0 C01A     		subs	r0, r0, r3
 915:Drivers/STM32G0xx_HAL_Driver/Src/stm32g0xx_hal_rcc.c ****       {
 1811              		.loc 1 915 10 discriminator 1 view .LVU604
 1812 00f2 154B     		ldr	r3, .L201+20
 1813 00f4 9842     		cmp	r0, r3
 1814 00f6 F1D9     		bls	.L166
 1815 00f8 CCE7     		b	.L167
 1816              	.LVL137:
 1817              	.L161:
 876:Drivers/STM32G0xx_HAL_Driver/Src/stm32g0xx_hal_rcc.c ****       {
 1818              		.loc 1 876 7 is_stmt 1 view .LVU605
 876:Drivers/STM32G0xx_HAL_Driver/Src/stm32g0xx_hal_rcc.c ****       {
 1819              		.loc 1 876 11 is_stmt 0 view .LVU606
 1820 00fa 3B68     		ldr	r3, [r7]
 876:Drivers/STM32G0xx_HAL_Driver/Src/stm32g0xx_hal_rcc.c ****       {
 1821              		.loc 1 876 10 view .LVU607
 1822 00fc 9B01     		lsls	r3, r3, #6
 1823 00fe E5D4     		bmi	.L165
 1824 0100 83E7     		b	.L164
 1825              	.L163:
 885:Drivers/STM32G0xx_HAL_Driver/Src/stm32g0xx_hal_rcc.c ****       {
 1826              		.loc 1 885 7 is_stmt 1 view .LVU608
 885:Drivers/STM32G0xx_HAL_Driver/Src/stm32g0xx_hal_rcc.c ****       {
 1827              		.loc 1 885 11 is_stmt 0 view .LVU609
 1828 0102 3B68     		ldr	r3, [r7]
 885:Drivers/STM32G0xx_HAL_Driver/Src/stm32g0xx_hal_rcc.c ****       {
 1829              		.loc 1 885 10 view .LVU610
 1830 0104 5B05     		lsls	r3, r3, #21
 1831 0106 E1D4     		bmi	.L165
 1832 0108 7FE7     		b	.L164
 1833              	.L159:
 894:Drivers/STM32G0xx_HAL_Driver/Src/stm32g0xx_hal_rcc.c ****       {
 1834              		.loc 1 894 7 is_stmt 1 view .LVU611
 894:Drivers/STM32G0xx_HAL_Driver/Src/stm32g0xx_hal_rcc.c ****       {
 1835              		.loc 1 894 11 is_stmt 0 view .LVU612
 1836 010a 3B6E     		ldr	r3, [r7, #96]
 1837              	.L200:
 903:Drivers/STM32G0xx_HAL_Driver/Src/stm32g0xx_hal_rcc.c ****       {
 1838              		.loc 1 903 10 view .LVU613
 1839 010c 9B07     		lsls	r3, r3, #30
 1840 010e DDD4     		bmi	.L165
 1841 0110 7BE7     		b	.L164
 1842              	.L158:
 903:Drivers/STM32G0xx_HAL_Driver/Src/stm32g0xx_hal_rcc.c ****       {
 1843              		.loc 1 903 7 is_stmt 1 view .LVU614
 903:Drivers/STM32G0xx_HAL_Driver/Src/stm32g0xx_hal_rcc.c ****       {
 1844              		.loc 1 903 11 is_stmt 0 view .LVU615
 1845 0112 FB6D     		ldr	r3, [r7, #92]
 1846 0114 FAE7     		b	.L200
 1847              	.LVL138:
 1848              	.L173:
 934:Drivers/STM32G0xx_HAL_Driver/Src/stm32g0xx_hal_rcc.c ****       {
 1849              		.loc 1 934 7 is_stmt 1 view .LVU616
ARM GAS  /tmp/ccheJOBr.s 			page 63


 934:Drivers/STM32G0xx_HAL_Driver/Src/stm32g0xx_hal_rcc.c ****       {
 1850              		.loc 1 934 12 is_stmt 0 view .LVU617
 1851 0116 FFF7FEFF 		bl	HAL_GetTick
 1852              	.LVL139:
 934:Drivers/STM32G0xx_HAL_Driver/Src/stm32g0xx_hal_rcc.c ****       {
 1853              		.loc 1 934 26 discriminator 1 view .LVU618
 1854 011a 019B     		ldr	r3, [sp, #4]
 1855 011c C01A     		subs	r0, r0, r3
 934:Drivers/STM32G0xx_HAL_Driver/Src/stm32g0xx_hal_rcc.c ****       {
 1856              		.loc 1 934 10 discriminator 1 view .LVU619
 1857 011e 0A4B     		ldr	r3, .L201+20
 1858 0120 9842     		cmp	r0, r3
 1859 0122 8BD9     		bls	.L172
 1860 0124 B6E7     		b	.L167
 1861              	.LVL140:
 1862              	.L170:
 944:Drivers/STM32G0xx_HAL_Driver/Src/stm32g0xx_hal_rcc.c ****     MODIFY_REG(RCC->CFGR, RCC_CFGR_PPRE, RCC_ClkInitStruct->APB1CLKDivider);
 1863              		.loc 1 944 5 is_stmt 1 view .LVU620
 945:Drivers/STM32G0xx_HAL_Driver/Src/stm32g0xx_hal_rcc.c ****   }
 1864              		.loc 1 945 5 view .LVU621
 1865 0126 AB68     		ldr	r3, [r5, #8]
 1866 0128 094A     		ldr	r2, .L201+28
 1867 012a 1340     		ands	r3, r2
 1868 012c E268     		ldr	r2, [r4, #12]
 1869 012e 1343     		orrs	r3, r2
 1870 0130 AB60     		str	r3, [r5, #8]
 1871 0132 8BE7     		b	.L171
 1872              	.L202:
 1873              		.align	2
 1874              	.L201:
 1875 0134 00200240 		.word	1073881088
 1876 0138 00100240 		.word	1073876992
 1877 013c 00000000 		.word	AHBPrescTable
 1878 0140 00000000 		.word	SystemCoreClock
 1879 0144 00000000 		.word	uwTickPrio
 1880 0148 88130000 		.word	5000
 1881 014c FFF0FFFF 		.word	-3841
 1882 0150 FF8FFFFF 		.word	-28673
 1883              		.cfi_endproc
 1884              	.LFE422:
 1886              		.section	.text.HAL_RCC_GetHCLKFreq,"ax",%progbits
 1887              		.align	1
 1888              		.global	HAL_RCC_GetHCLKFreq
 1889              		.syntax unified
 1890              		.code	16
 1891              		.thumb_func
 1893              	HAL_RCC_GetHCLKFreq:
 1894              	.LFB425:
1172:Drivers/STM32G0xx_HAL_Driver/Src/stm32g0xx_hal_rcc.c **** 
1173:Drivers/STM32G0xx_HAL_Driver/Src/stm32g0xx_hal_rcc.c **** /**
1174:Drivers/STM32G0xx_HAL_Driver/Src/stm32g0xx_hal_rcc.c ****   * @brief  Return the HCLK frequency.
1175:Drivers/STM32G0xx_HAL_Driver/Src/stm32g0xx_hal_rcc.c ****   * @note   Each time HCLK changes, this function must be called to update the
1176:Drivers/STM32G0xx_HAL_Driver/Src/stm32g0xx_hal_rcc.c ****   *         right HCLK value. Otherwise, any configuration based on this function will be incorrect
1177:Drivers/STM32G0xx_HAL_Driver/Src/stm32g0xx_hal_rcc.c ****   *
1178:Drivers/STM32G0xx_HAL_Driver/Src/stm32g0xx_hal_rcc.c ****   * @note   The SystemCoreClock CMSIS variable is used to store System Clock Frequency.
1179:Drivers/STM32G0xx_HAL_Driver/Src/stm32g0xx_hal_rcc.c ****   * @retval HCLK frequency in Hz
1180:Drivers/STM32G0xx_HAL_Driver/Src/stm32g0xx_hal_rcc.c ****   */
ARM GAS  /tmp/ccheJOBr.s 			page 64


1181:Drivers/STM32G0xx_HAL_Driver/Src/stm32g0xx_hal_rcc.c **** uint32_t HAL_RCC_GetHCLKFreq(void)
1182:Drivers/STM32G0xx_HAL_Driver/Src/stm32g0xx_hal_rcc.c **** {
 1895              		.loc 1 1182 1 view -0
 1896              		.cfi_startproc
 1897              		@ args = 0, pretend = 0, frame = 0
 1898              		@ frame_needed = 0, uses_anonymous_args = 0
 1899              		@ link register save eliminated.
1183:Drivers/STM32G0xx_HAL_Driver/Src/stm32g0xx_hal_rcc.c ****   return SystemCoreClock;
 1900              		.loc 1 1183 3 view .LVU623
 1901              		.loc 1 1183 10 is_stmt 0 view .LVU624
 1902 0000 014B     		ldr	r3, .L204
1184:Drivers/STM32G0xx_HAL_Driver/Src/stm32g0xx_hal_rcc.c **** }
 1903              		.loc 1 1184 1 view .LVU625
 1904              		@ sp needed
1183:Drivers/STM32G0xx_HAL_Driver/Src/stm32g0xx_hal_rcc.c ****   return SystemCoreClock;
 1905              		.loc 1 1183 10 discriminator 1 view .LVU626
 1906 0002 1868     		ldr	r0, [r3]
 1907              		.loc 1 1184 1 view .LVU627
 1908 0004 7047     		bx	lr
 1909              	.L205:
 1910 0006 C046     		.align	2
 1911              	.L204:
 1912 0008 00000000 		.word	SystemCoreClock
 1913              		.cfi_endproc
 1914              	.LFE425:
 1916              		.section	.text.HAL_RCC_GetPCLK1Freq,"ax",%progbits
 1917              		.align	1
 1918              		.global	HAL_RCC_GetPCLK1Freq
 1919              		.syntax unified
 1920              		.code	16
 1921              		.thumb_func
 1923              	HAL_RCC_GetPCLK1Freq:
 1924              	.LFB426:
1185:Drivers/STM32G0xx_HAL_Driver/Src/stm32g0xx_hal_rcc.c **** 
1186:Drivers/STM32G0xx_HAL_Driver/Src/stm32g0xx_hal_rcc.c **** /**
1187:Drivers/STM32G0xx_HAL_Driver/Src/stm32g0xx_hal_rcc.c ****   * @brief  Return the PCLK1 frequency.
1188:Drivers/STM32G0xx_HAL_Driver/Src/stm32g0xx_hal_rcc.c ****   * @note   Each time PCLK1 changes, this function must be called to update the
1189:Drivers/STM32G0xx_HAL_Driver/Src/stm32g0xx_hal_rcc.c ****   *         right PCLK1 value. Otherwise, any configuration based on this function will be incorrec
1190:Drivers/STM32G0xx_HAL_Driver/Src/stm32g0xx_hal_rcc.c ****   * @retval PCLK1 frequency in Hz
1191:Drivers/STM32G0xx_HAL_Driver/Src/stm32g0xx_hal_rcc.c ****   */
1192:Drivers/STM32G0xx_HAL_Driver/Src/stm32g0xx_hal_rcc.c **** uint32_t HAL_RCC_GetPCLK1Freq(void)
1193:Drivers/STM32G0xx_HAL_Driver/Src/stm32g0xx_hal_rcc.c **** {
 1925              		.loc 1 1193 1 is_stmt 1 view -0
 1926              		.cfi_startproc
 1927              		@ args = 0, pretend = 0, frame = 0
 1928              		@ frame_needed = 0, uses_anonymous_args = 0
 1929              		@ link register save eliminated.
1194:Drivers/STM32G0xx_HAL_Driver/Src/stm32g0xx_hal_rcc.c ****   /* Get HCLK source and Compute PCLK1 frequency ---------------------------*/
1195:Drivers/STM32G0xx_HAL_Driver/Src/stm32g0xx_hal_rcc.c ****   return ((uint32_t)(__LL_RCC_CALC_PCLK1_FREQ(HAL_RCC_GetHCLKFreq(), LL_RCC_GetAPB1Prescaler())));
 1930              		.loc 1 1195 3 view .LVU629
 1931              	.LBB17:
 1932              	.LBI17:
1181:Drivers/STM32G0xx_HAL_Driver/Src/stm32g0xx_hal_rcc.c **** {
 1933              		.loc 1 1181 10 view .LVU630
 1934              	.LBB18:
1183:Drivers/STM32G0xx_HAL_Driver/Src/stm32g0xx_hal_rcc.c **** }
 1935              		.loc 1 1183 3 view .LVU631
ARM GAS  /tmp/ccheJOBr.s 			page 65


 1936              	.LBE18:
 1937              	.LBE17:
 1938              	.LBB20:
 1939              	.LBI20:
 1940              		.file 2 "Drivers/STM32G0xx_HAL_Driver/Inc/stm32g0xx_ll_rcc.h"
   1:Drivers/STM32G0xx_HAL_Driver/Inc/stm32g0xx_ll_rcc.h **** /**
   2:Drivers/STM32G0xx_HAL_Driver/Inc/stm32g0xx_ll_rcc.h ****   ******************************************************************************
   3:Drivers/STM32G0xx_HAL_Driver/Inc/stm32g0xx_ll_rcc.h ****   * @file    stm32g0xx_ll_rcc.h
   4:Drivers/STM32G0xx_HAL_Driver/Inc/stm32g0xx_ll_rcc.h ****   * @author  MCD Application Team
   5:Drivers/STM32G0xx_HAL_Driver/Inc/stm32g0xx_ll_rcc.h ****   * @brief   Header file of RCC LL module.
   6:Drivers/STM32G0xx_HAL_Driver/Inc/stm32g0xx_ll_rcc.h ****   ******************************************************************************
   7:Drivers/STM32G0xx_HAL_Driver/Inc/stm32g0xx_ll_rcc.h ****   * @attention
   8:Drivers/STM32G0xx_HAL_Driver/Inc/stm32g0xx_ll_rcc.h ****   *
   9:Drivers/STM32G0xx_HAL_Driver/Inc/stm32g0xx_ll_rcc.h ****   * Copyright (c) 2018 STMicroelectronics.
  10:Drivers/STM32G0xx_HAL_Driver/Inc/stm32g0xx_ll_rcc.h ****   * All rights reserved.
  11:Drivers/STM32G0xx_HAL_Driver/Inc/stm32g0xx_ll_rcc.h ****   *
  12:Drivers/STM32G0xx_HAL_Driver/Inc/stm32g0xx_ll_rcc.h ****   * This software is licensed under terms that can be found in the LICENSE file in
  13:Drivers/STM32G0xx_HAL_Driver/Inc/stm32g0xx_ll_rcc.h ****   * the root directory of this software component.
  14:Drivers/STM32G0xx_HAL_Driver/Inc/stm32g0xx_ll_rcc.h ****   * If no LICENSE file comes with this software, it is provided AS-IS.
  15:Drivers/STM32G0xx_HAL_Driver/Inc/stm32g0xx_ll_rcc.h ****   ******************************************************************************
  16:Drivers/STM32G0xx_HAL_Driver/Inc/stm32g0xx_ll_rcc.h ****   */
  17:Drivers/STM32G0xx_HAL_Driver/Inc/stm32g0xx_ll_rcc.h **** 
  18:Drivers/STM32G0xx_HAL_Driver/Inc/stm32g0xx_ll_rcc.h **** /* Define to prevent recursive inclusion -------------------------------------*/
  19:Drivers/STM32G0xx_HAL_Driver/Inc/stm32g0xx_ll_rcc.h **** #ifndef STM32G0xx_LL_RCC_H
  20:Drivers/STM32G0xx_HAL_Driver/Inc/stm32g0xx_ll_rcc.h **** #define STM32G0xx_LL_RCC_H
  21:Drivers/STM32G0xx_HAL_Driver/Inc/stm32g0xx_ll_rcc.h **** 
  22:Drivers/STM32G0xx_HAL_Driver/Inc/stm32g0xx_ll_rcc.h **** #ifdef __cplusplus
  23:Drivers/STM32G0xx_HAL_Driver/Inc/stm32g0xx_ll_rcc.h **** extern "C" {
  24:Drivers/STM32G0xx_HAL_Driver/Inc/stm32g0xx_ll_rcc.h **** #endif
  25:Drivers/STM32G0xx_HAL_Driver/Inc/stm32g0xx_ll_rcc.h **** 
  26:Drivers/STM32G0xx_HAL_Driver/Inc/stm32g0xx_ll_rcc.h **** /* Includes ------------------------------------------------------------------*/
  27:Drivers/STM32G0xx_HAL_Driver/Inc/stm32g0xx_ll_rcc.h **** #include "stm32g0xx.h"
  28:Drivers/STM32G0xx_HAL_Driver/Inc/stm32g0xx_ll_rcc.h **** 
  29:Drivers/STM32G0xx_HAL_Driver/Inc/stm32g0xx_ll_rcc.h **** /** @addtogroup STM32G0xx_LL_Driver
  30:Drivers/STM32G0xx_HAL_Driver/Inc/stm32g0xx_ll_rcc.h ****   * @{
  31:Drivers/STM32G0xx_HAL_Driver/Inc/stm32g0xx_ll_rcc.h ****   */
  32:Drivers/STM32G0xx_HAL_Driver/Inc/stm32g0xx_ll_rcc.h **** 
  33:Drivers/STM32G0xx_HAL_Driver/Inc/stm32g0xx_ll_rcc.h **** #if defined(RCC)
  34:Drivers/STM32G0xx_HAL_Driver/Inc/stm32g0xx_ll_rcc.h **** 
  35:Drivers/STM32G0xx_HAL_Driver/Inc/stm32g0xx_ll_rcc.h **** /** @defgroup RCC_LL RCC
  36:Drivers/STM32G0xx_HAL_Driver/Inc/stm32g0xx_ll_rcc.h ****   * @{
  37:Drivers/STM32G0xx_HAL_Driver/Inc/stm32g0xx_ll_rcc.h ****   */
  38:Drivers/STM32G0xx_HAL_Driver/Inc/stm32g0xx_ll_rcc.h **** 
  39:Drivers/STM32G0xx_HAL_Driver/Inc/stm32g0xx_ll_rcc.h **** /* Private types -------------------------------------------------------------*/
  40:Drivers/STM32G0xx_HAL_Driver/Inc/stm32g0xx_ll_rcc.h **** /* Private variables ---------------------------------------------------------*/
  41:Drivers/STM32G0xx_HAL_Driver/Inc/stm32g0xx_ll_rcc.h **** /** @defgroup RCC_LL_Private_Variables RCC Private Variables
  42:Drivers/STM32G0xx_HAL_Driver/Inc/stm32g0xx_ll_rcc.h ****   * @{
  43:Drivers/STM32G0xx_HAL_Driver/Inc/stm32g0xx_ll_rcc.h ****   */
  44:Drivers/STM32G0xx_HAL_Driver/Inc/stm32g0xx_ll_rcc.h **** 
  45:Drivers/STM32G0xx_HAL_Driver/Inc/stm32g0xx_ll_rcc.h **** 
  46:Drivers/STM32G0xx_HAL_Driver/Inc/stm32g0xx_ll_rcc.h **** /**
  47:Drivers/STM32G0xx_HAL_Driver/Inc/stm32g0xx_ll_rcc.h ****   * @}
  48:Drivers/STM32G0xx_HAL_Driver/Inc/stm32g0xx_ll_rcc.h ****   */
  49:Drivers/STM32G0xx_HAL_Driver/Inc/stm32g0xx_ll_rcc.h **** 
  50:Drivers/STM32G0xx_HAL_Driver/Inc/stm32g0xx_ll_rcc.h **** /* Private constants ---------------------------------------------------------*/
  51:Drivers/STM32G0xx_HAL_Driver/Inc/stm32g0xx_ll_rcc.h **** /* Private macros ------------------------------------------------------------*/
  52:Drivers/STM32G0xx_HAL_Driver/Inc/stm32g0xx_ll_rcc.h **** #if defined(USE_FULL_LL_DRIVER)
ARM GAS  /tmp/ccheJOBr.s 			page 66


  53:Drivers/STM32G0xx_HAL_Driver/Inc/stm32g0xx_ll_rcc.h **** /** @defgroup RCC_LL_Private_Macros RCC Private Macros
  54:Drivers/STM32G0xx_HAL_Driver/Inc/stm32g0xx_ll_rcc.h ****   * @{
  55:Drivers/STM32G0xx_HAL_Driver/Inc/stm32g0xx_ll_rcc.h ****   */
  56:Drivers/STM32G0xx_HAL_Driver/Inc/stm32g0xx_ll_rcc.h **** /**
  57:Drivers/STM32G0xx_HAL_Driver/Inc/stm32g0xx_ll_rcc.h ****   * @}
  58:Drivers/STM32G0xx_HAL_Driver/Inc/stm32g0xx_ll_rcc.h ****   */
  59:Drivers/STM32G0xx_HAL_Driver/Inc/stm32g0xx_ll_rcc.h **** #endif /*USE_FULL_LL_DRIVER*/
  60:Drivers/STM32G0xx_HAL_Driver/Inc/stm32g0xx_ll_rcc.h **** 
  61:Drivers/STM32G0xx_HAL_Driver/Inc/stm32g0xx_ll_rcc.h **** /* Exported types ------------------------------------------------------------*/
  62:Drivers/STM32G0xx_HAL_Driver/Inc/stm32g0xx_ll_rcc.h **** #if defined(USE_FULL_LL_DRIVER)
  63:Drivers/STM32G0xx_HAL_Driver/Inc/stm32g0xx_ll_rcc.h **** /** @defgroup RCC_LL_Exported_Types RCC Exported Types
  64:Drivers/STM32G0xx_HAL_Driver/Inc/stm32g0xx_ll_rcc.h ****   * @{
  65:Drivers/STM32G0xx_HAL_Driver/Inc/stm32g0xx_ll_rcc.h ****   */
  66:Drivers/STM32G0xx_HAL_Driver/Inc/stm32g0xx_ll_rcc.h **** 
  67:Drivers/STM32G0xx_HAL_Driver/Inc/stm32g0xx_ll_rcc.h **** /** @defgroup LL_ES_CLOCK_FREQ Clocks Frequency Structure
  68:Drivers/STM32G0xx_HAL_Driver/Inc/stm32g0xx_ll_rcc.h ****   * @{
  69:Drivers/STM32G0xx_HAL_Driver/Inc/stm32g0xx_ll_rcc.h ****   */
  70:Drivers/STM32G0xx_HAL_Driver/Inc/stm32g0xx_ll_rcc.h **** 
  71:Drivers/STM32G0xx_HAL_Driver/Inc/stm32g0xx_ll_rcc.h **** /**
  72:Drivers/STM32G0xx_HAL_Driver/Inc/stm32g0xx_ll_rcc.h ****   * @brief  RCC Clocks Frequency Structure
  73:Drivers/STM32G0xx_HAL_Driver/Inc/stm32g0xx_ll_rcc.h ****   */
  74:Drivers/STM32G0xx_HAL_Driver/Inc/stm32g0xx_ll_rcc.h **** typedef struct
  75:Drivers/STM32G0xx_HAL_Driver/Inc/stm32g0xx_ll_rcc.h **** {
  76:Drivers/STM32G0xx_HAL_Driver/Inc/stm32g0xx_ll_rcc.h ****   uint32_t SYSCLK_Frequency;        /*!< SYSCLK clock frequency */
  77:Drivers/STM32G0xx_HAL_Driver/Inc/stm32g0xx_ll_rcc.h ****   uint32_t HCLK_Frequency;          /*!< HCLK clock frequency */
  78:Drivers/STM32G0xx_HAL_Driver/Inc/stm32g0xx_ll_rcc.h ****   uint32_t PCLK1_Frequency;         /*!< PCLK1 clock frequency */
  79:Drivers/STM32G0xx_HAL_Driver/Inc/stm32g0xx_ll_rcc.h **** } LL_RCC_ClocksTypeDef;
  80:Drivers/STM32G0xx_HAL_Driver/Inc/stm32g0xx_ll_rcc.h **** 
  81:Drivers/STM32G0xx_HAL_Driver/Inc/stm32g0xx_ll_rcc.h **** /**
  82:Drivers/STM32G0xx_HAL_Driver/Inc/stm32g0xx_ll_rcc.h ****   * @}
  83:Drivers/STM32G0xx_HAL_Driver/Inc/stm32g0xx_ll_rcc.h ****   */
  84:Drivers/STM32G0xx_HAL_Driver/Inc/stm32g0xx_ll_rcc.h **** 
  85:Drivers/STM32G0xx_HAL_Driver/Inc/stm32g0xx_ll_rcc.h **** /**
  86:Drivers/STM32G0xx_HAL_Driver/Inc/stm32g0xx_ll_rcc.h ****   * @}
  87:Drivers/STM32G0xx_HAL_Driver/Inc/stm32g0xx_ll_rcc.h ****   */
  88:Drivers/STM32G0xx_HAL_Driver/Inc/stm32g0xx_ll_rcc.h **** #endif /* USE_FULL_LL_DRIVER */
  89:Drivers/STM32G0xx_HAL_Driver/Inc/stm32g0xx_ll_rcc.h **** 
