ARM GAS  /tmp/ccJL7Kxx.s 			page 1


   1              		.cpu cortex-m0plus
   2              		.arch armv6s-m
   3              		.fpu softvfp
   4              		.eabi_attribute 20, 1
   5              		.eabi_attribute 21, 1
   6              		.eabi_attribute 23, 3
   7              		.eabi_attribute 24, 1
   8              		.eabi_attribute 25, 1
   9              		.eabi_attribute 26, 1
  10              		.eabi_attribute 30, 4
  11              		.eabi_attribute 34, 0
  12              		.eabi_attribute 18, 4
  13              		.file	"system_stm32g0xx.c"
  14              		.text
  15              	.Ltext0:
  16              		.cfi_sections	.debug_frame
  17              		.file 1 "Core/Src/system_stm32g0xx.c"
  18              		.section	.text.SystemInit,"ax",%progbits
  19              		.align	1
  20              		.global	SystemInit
  21              		.syntax unified
  22              		.code	16
  23              		.thumb_func
  25              	SystemInit:
  26              	.LFB420:
   1:Core/Src/system_stm32g0xx.c **** /**
   2:Core/Src/system_stm32g0xx.c ****   ******************************************************************************
   3:Core/Src/system_stm32g0xx.c ****   * @file    system_stm32g0xx.c
   4:Core/Src/system_stm32g0xx.c ****   * @author  MCD Application Team
   5:Core/Src/system_stm32g0xx.c ****   * @brief   CMSIS Cortex-M0+ Device Peripheral Access Layer System Source File
   6:Core/Src/system_stm32g0xx.c ****   *
   7:Core/Src/system_stm32g0xx.c ****   *   This file provides two functions and one global variable to be called from
   8:Core/Src/system_stm32g0xx.c ****   *   user application:
   9:Core/Src/system_stm32g0xx.c ****   *      - SystemInit(): This function is called at startup just after reset and
  10:Core/Src/system_stm32g0xx.c ****   *                      before branch to main program. This call is made inside
  11:Core/Src/system_stm32g0xx.c ****   *                      the "startup_stm32g0xx.s" file.
  12:Core/Src/system_stm32g0xx.c ****   *
  13:Core/Src/system_stm32g0xx.c ****   *      - SystemCoreClock variable: Contains the core clock (HCLK), it can be used
  14:Core/Src/system_stm32g0xx.c ****   *                                  by the user application to setup the SysTick
  15:Core/Src/system_stm32g0xx.c ****   *                                  timer or configure other parameters.
  16:Core/Src/system_stm32g0xx.c ****   *
  17:Core/Src/system_stm32g0xx.c ****   *      - SystemCoreClockUpdate(): Updates the variable SystemCoreClock and must
  18:Core/Src/system_stm32g0xx.c ****   *                                 be called whenever the core clock is changed
  19:Core/Src/system_stm32g0xx.c ****   *                                 during program execution.
  20:Core/Src/system_stm32g0xx.c ****   *
  21:Core/Src/system_stm32g0xx.c ****   *   After each device reset the HSI (8 MHz then 16 MHz) is used as system clock source.
  22:Core/Src/system_stm32g0xx.c ****   *   Then SystemInit() function is called, in "startup_stm32g0xx.s" file, to
  23:Core/Src/system_stm32g0xx.c ****   *   configure the system clock before to branch to main program.
  24:Core/Src/system_stm32g0xx.c ****   *
  25:Core/Src/system_stm32g0xx.c ****   *   This file configures the system clock as follows:
  26:Core/Src/system_stm32g0xx.c ****   *=============================================================================
  27:Core/Src/system_stm32g0xx.c ****   *-----------------------------------------------------------------------------
  28:Core/Src/system_stm32g0xx.c ****   *        System Clock source                    | HSI
  29:Core/Src/system_stm32g0xx.c ****   *-----------------------------------------------------------------------------
  30:Core/Src/system_stm32g0xx.c ****   *        SYSCLK(Hz)                             | 16000000
  31:Core/Src/system_stm32g0xx.c ****   *-----------------------------------------------------------------------------
  32:Core/Src/system_stm32g0xx.c ****   *        HCLK(Hz)                               | 16000000
ARM GAS  /tmp/ccJL7Kxx.s 			page 2


  33:Core/Src/system_stm32g0xx.c ****   *-----------------------------------------------------------------------------
  34:Core/Src/system_stm32g0xx.c ****   *        AHB Prescaler                          | 1
  35:Core/Src/system_stm32g0xx.c ****   *-----------------------------------------------------------------------------
  36:Core/Src/system_stm32g0xx.c ****   *        APB Prescaler                          | 1
  37:Core/Src/system_stm32g0xx.c ****   *-----------------------------------------------------------------------------
  38:Core/Src/system_stm32g0xx.c ****   *        HSI Division factor                    | 1
  39:Core/Src/system_stm32g0xx.c ****   *-----------------------------------------------------------------------------
  40:Core/Src/system_stm32g0xx.c ****   *        PLL_M                                  | 1
  41:Core/Src/system_stm32g0xx.c ****   *-----------------------------------------------------------------------------
  42:Core/Src/system_stm32g0xx.c ****   *        PLL_N                                  | 8
  43:Core/Src/system_stm32g0xx.c ****   *-----------------------------------------------------------------------------
  44:Core/Src/system_stm32g0xx.c ****   *        PLL_P                                  | 7
  45:Core/Src/system_stm32g0xx.c ****   *-----------------------------------------------------------------------------
  46:Core/Src/system_stm32g0xx.c ****   *        PLL_Q                                  | 2
  47:Core/Src/system_stm32g0xx.c ****   *-----------------------------------------------------------------------------
  48:Core/Src/system_stm32g0xx.c ****   *        PLL_R                                  | 2
  49:Core/Src/system_stm32g0xx.c ****   *-----------------------------------------------------------------------------
  50:Core/Src/system_stm32g0xx.c ****   *        Require 48MHz for RNG                  | Disabled
  51:Core/Src/system_stm32g0xx.c ****   *-----------------------------------------------------------------------------
  52:Core/Src/system_stm32g0xx.c ****   *=============================================================================
  53:Core/Src/system_stm32g0xx.c ****   ******************************************************************************
  54:Core/Src/system_stm32g0xx.c ****   * @attention
  55:Core/Src/system_stm32g0xx.c ****   *
  56:Core/Src/system_stm32g0xx.c ****   * Copyright (c) 2018-2021 STMicroelectronics.
  57:Core/Src/system_stm32g0xx.c ****   * All rights reserved.
  58:Core/Src/system_stm32g0xx.c ****   *
  59:Core/Src/system_stm32g0xx.c ****   * This software is licensed under terms that can be found in the LICENSE file
  60:Core/Src/system_stm32g0xx.c ****   * in the root directory of this software component.
  61:Core/Src/system_stm32g0xx.c ****   * If no LICENSE file comes with this software, it is provided AS-IS.
  62:Core/Src/system_stm32g0xx.c ****   *
  63:Core/Src/system_stm32g0xx.c ****   ******************************************************************************
  64:Core/Src/system_stm32g0xx.c ****   */
  65:Core/Src/system_stm32g0xx.c **** /** @addtogroup CMSIS
  66:Core/Src/system_stm32g0xx.c ****   * @{
  67:Core/Src/system_stm32g0xx.c ****   */
  68:Core/Src/system_stm32g0xx.c **** 
  69:Core/Src/system_stm32g0xx.c **** /** @addtogroup stm32g0xx_system
  70:Core/Src/system_stm32g0xx.c ****   * @{
  71:Core/Src/system_stm32g0xx.c ****   */
  72:Core/Src/system_stm32g0xx.c **** 
  73:Core/Src/system_stm32g0xx.c **** /** @addtogroup STM32G0xx_System_Private_Includes
  74:Core/Src/system_stm32g0xx.c ****   * @{
  75:Core/Src/system_stm32g0xx.c ****   */
  76:Core/Src/system_stm32g0xx.c **** 
  77:Core/Src/system_stm32g0xx.c **** #include "stm32g0xx.h"
  78:Core/Src/system_stm32g0xx.c **** 
  79:Core/Src/system_stm32g0xx.c **** #if !defined  (HSE_VALUE)
  80:Core/Src/system_stm32g0xx.c **** #define HSE_VALUE    (8000000UL)    /*!< Value of the External oscillator in Hz */
  81:Core/Src/system_stm32g0xx.c **** #endif /* HSE_VALUE */
  82:Core/Src/system_stm32g0xx.c **** 
  83:Core/Src/system_stm32g0xx.c **** #if !defined  (HSI_VALUE)
  84:Core/Src/system_stm32g0xx.c ****   #define HSI_VALUE  (16000000UL)   /*!< Value of the Internal oscillator in Hz*/
  85:Core/Src/system_stm32g0xx.c **** #endif /* HSI_VALUE */
  86:Core/Src/system_stm32g0xx.c **** 
  87:Core/Src/system_stm32g0xx.c **** #if !defined  (LSI_VALUE)
  88:Core/Src/system_stm32g0xx.c ****  #define LSI_VALUE   (32000UL)     /*!< Value of LSI in Hz*/
  89:Core/Src/system_stm32g0xx.c **** #endif /* LSI_VALUE */
ARM GAS  /tmp/ccJL7Kxx.s 			page 3


  90:Core/Src/system_stm32g0xx.c **** 
  91:Core/Src/system_stm32g0xx.c **** #if !defined  (LSE_VALUE)
  92:Core/Src/system_stm32g0xx.c ****   #define LSE_VALUE  (32768UL)      /*!< Value of LSE in Hz*/
  93:Core/Src/system_stm32g0xx.c **** #endif /* LSE_VALUE */
  94:Core/Src/system_stm32g0xx.c **** 
  95:Core/Src/system_stm32g0xx.c **** /**
  96:Core/Src/system_stm32g0xx.c ****   * @}
  97:Core/Src/system_stm32g0xx.c ****   */
  98:Core/Src/system_stm32g0xx.c **** 
  99:Core/Src/system_stm32g0xx.c **** /** @addtogroup STM32G0xx_System_Private_TypesDefinitions
 100:Core/Src/system_stm32g0xx.c ****   * @{
 101:Core/Src/system_stm32g0xx.c ****   */
 102:Core/Src/system_stm32g0xx.c **** 
 103:Core/Src/system_stm32g0xx.c **** /**
 104:Core/Src/system_stm32g0xx.c ****   * @}
 105:Core/Src/system_stm32g0xx.c ****   */
 106:Core/Src/system_stm32g0xx.c **** 
 107:Core/Src/system_stm32g0xx.c **** /** @addtogroup STM32G0xx_System_Private_Defines
 108:Core/Src/system_stm32g0xx.c ****   * @{
 109:Core/Src/system_stm32g0xx.c ****   */
 110:Core/Src/system_stm32g0xx.c **** 
 111:Core/Src/system_stm32g0xx.c **** /************************* Miscellaneous Configuration ************************/
 112:Core/Src/system_stm32g0xx.c **** /* Note: Following vector table addresses must be defined in line with linker
 113:Core/Src/system_stm32g0xx.c ****          configuration. */
 114:Core/Src/system_stm32g0xx.c **** /*!< Uncomment the following line if you need to relocate the vector table
 115:Core/Src/system_stm32g0xx.c ****      anywhere in Flash or Sram, else the vector table is kept at the automatic
 116:Core/Src/system_stm32g0xx.c ****      remap of boot address selected */
 117:Core/Src/system_stm32g0xx.c **** /* #define USER_VECT_TAB_ADDRESS */
 118:Core/Src/system_stm32g0xx.c **** 
 119:Core/Src/system_stm32g0xx.c **** #if defined(USER_VECT_TAB_ADDRESS)
 120:Core/Src/system_stm32g0xx.c **** /*!< Uncomment the following line if you need to relocate your vector Table
 121:Core/Src/system_stm32g0xx.c ****      in Sram else user remap will be done in Flash. */
 122:Core/Src/system_stm32g0xx.c **** /* #define VECT_TAB_SRAM */
 123:Core/Src/system_stm32g0xx.c **** #if defined(VECT_TAB_SRAM)
 124:Core/Src/system_stm32g0xx.c **** #define VECT_TAB_BASE_ADDRESS   SRAM_BASE       /*!< Vector Table base address field.
 125:Core/Src/system_stm32g0xx.c ****                                                      This value must be a multiple of 0x200. */
 126:Core/Src/system_stm32g0xx.c **** #define VECT_TAB_OFFSET         0x00000000U     /*!< Vector Table base offset field.
 127:Core/Src/system_stm32g0xx.c ****                                                      This value must be a multiple of 0x200. */
 128:Core/Src/system_stm32g0xx.c **** #else
 129:Core/Src/system_stm32g0xx.c **** #define VECT_TAB_BASE_ADDRESS   FLASH_BASE      /*!< Vector Table base address field.
 130:Core/Src/system_stm32g0xx.c ****                                                      This value must be a multiple of 0x200. */
 131:Core/Src/system_stm32g0xx.c **** #define VECT_TAB_OFFSET         0x00000000U     /*!< Vector Table base offset field.
 132:Core/Src/system_stm32g0xx.c ****                                                      This value must be a multiple of 0x200. */
 133:Core/Src/system_stm32g0xx.c **** #endif /* VECT_TAB_SRAM */
 134:Core/Src/system_stm32g0xx.c **** #endif /* USER_VECT_TAB_ADDRESS */
 135:Core/Src/system_stm32g0xx.c **** /******************************************************************************/
 136:Core/Src/system_stm32g0xx.c **** /**
 137:Core/Src/system_stm32g0xx.c ****   * @}
 138:Core/Src/system_stm32g0xx.c ****   */
 139:Core/Src/system_stm32g0xx.c **** 
 140:Core/Src/system_stm32g0xx.c **** /** @addtogroup STM32G0xx_System_Private_Macros
 141:Core/Src/system_stm32g0xx.c ****   * @{
 142:Core/Src/system_stm32g0xx.c ****   */
 143:Core/Src/system_stm32g0xx.c **** 
 144:Core/Src/system_stm32g0xx.c **** /**
 145:Core/Src/system_stm32g0xx.c ****   * @}
 146:Core/Src/system_stm32g0xx.c ****   */
ARM GAS  /tmp/ccJL7Kxx.s 			page 4


 147:Core/Src/system_stm32g0xx.c **** 
 148:Core/Src/system_stm32g0xx.c **** /** @addtogroup STM32G0xx_System_Private_Variables
 149:Core/Src/system_stm32g0xx.c ****   * @{
 150:Core/Src/system_stm32g0xx.c ****   */
 151:Core/Src/system_stm32g0xx.c ****   /* The SystemCoreClock variable is updated in three ways:
 152:Core/Src/system_stm32g0xx.c ****       1) by calling CMSIS function SystemCoreClockUpdate()
 153:Core/Src/system_stm32g0xx.c ****       2) by calling HAL API function HAL_RCC_GetHCLKFreq()
 154:Core/Src/system_stm32g0xx.c ****       3) each time HAL_RCC_ClockConfig() is called to configure the system clock frequency
 155:Core/Src/system_stm32g0xx.c ****          Note: If you use this function to configure the system clock; then there
 156:Core/Src/system_stm32g0xx.c ****                is no need to call the 2 first functions listed above, since SystemCoreClock
 157:Core/Src/system_stm32g0xx.c ****                variable is updated automatically.
 158:Core/Src/system_stm32g0xx.c ****   */
 159:Core/Src/system_stm32g0xx.c ****   uint32_t SystemCoreClock = 16000000UL;
 160:Core/Src/system_stm32g0xx.c **** 
 161:Core/Src/system_stm32g0xx.c ****   const uint32_t AHBPrescTable[16UL] = {0UL, 0UL, 0UL, 0UL, 0UL, 0UL, 0UL, 0UL, 1UL, 2UL, 3UL, 4UL,
 162:Core/Src/system_stm32g0xx.c ****   const uint32_t APBPrescTable[8UL] =  {0UL, 0UL, 0UL, 0UL, 1UL, 2UL, 3UL, 4UL};
 163:Core/Src/system_stm32g0xx.c **** 
 164:Core/Src/system_stm32g0xx.c **** /**
 165:Core/Src/system_stm32g0xx.c ****   * @}
 166:Core/Src/system_stm32g0xx.c ****   */
 167:Core/Src/system_stm32g0xx.c **** 
 168:Core/Src/system_stm32g0xx.c **** /** @addtogroup STM32G0xx_System_Private_FunctionPrototypes
 169:Core/Src/system_stm32g0xx.c ****   * @{
 170:Core/Src/system_stm32g0xx.c ****   */
 171:Core/Src/system_stm32g0xx.c **** 
 172:Core/Src/system_stm32g0xx.c **** /**
 173:Core/Src/system_stm32g0xx.c ****   * @}
 174:Core/Src/system_stm32g0xx.c ****   */
 175:Core/Src/system_stm32g0xx.c **** 
 176:Core/Src/system_stm32g0xx.c **** /** @addtogroup STM32G0xx_System_Private_Functions
 177:Core/Src/system_stm32g0xx.c ****   * @{
 178:Core/Src/system_stm32g0xx.c ****   */
 179:Core/Src/system_stm32g0xx.c **** 
 180:Core/Src/system_stm32g0xx.c **** /**
 181:Core/Src/system_stm32g0xx.c ****   * @brief  Setup the microcontroller system.
 182:Core/Src/system_stm32g0xx.c ****   * @param  None
 183:Core/Src/system_stm32g0xx.c ****   * @retval None
 184:Core/Src/system_stm32g0xx.c ****   */
 185:Core/Src/system_stm32g0xx.c **** void SystemInit(void)
 186:Core/Src/system_stm32g0xx.c **** {
  27              		.loc 1 186 1 view -0
  28              		.cfi_startproc
  29              		@ args = 0, pretend = 0, frame = 0
  30              		@ frame_needed = 0, uses_anonymous_args = 0
  31              		@ link register save eliminated.
 187:Core/Src/system_stm32g0xx.c ****   /* Configure the Vector Table location -------------------------------------*/
 188:Core/Src/system_stm32g0xx.c **** #if defined(USER_VECT_TAB_ADDRESS)
 189:Core/Src/system_stm32g0xx.c ****   SCB->VTOR = VECT_TAB_BASE_ADDRESS | VECT_TAB_OFFSET; /* Vector Table Relocation */
 190:Core/Src/system_stm32g0xx.c **** #endif /* USER_VECT_TAB_ADDRESS */
 191:Core/Src/system_stm32g0xx.c **** }
  32              		.loc 1 191 1 view .LVU1
  33              		@ sp needed
  34 0000 7047     		bx	lr
  35              		.cfi_endproc
  36              	.LFE420:
  38              		.global	__aeabi_uidiv
  39              		.global	__aeabi_idiv
ARM GAS  /tmp/ccJL7Kxx.s 			page 5


  40              		.section	.text.SystemCoreClockUpdate,"ax",%progbits
  41              		.align	1
  42              		.global	SystemCoreClockUpdate
  43              		.syntax unified
  44              		.code	16
  45              		.thumb_func
  47              	SystemCoreClockUpdate:
  48              	.LFB421:
 192:Core/Src/system_stm32g0xx.c **** 
 193:Core/Src/system_stm32g0xx.c **** /**
 194:Core/Src/system_stm32g0xx.c ****   * @brief  Update SystemCoreClock variable according to Clock Register Values.
 195:Core/Src/system_stm32g0xx.c ****   *         The SystemCoreClock variable contains the core clock (HCLK), it can
 196:Core/Src/system_stm32g0xx.c ****   *         be used by the user application to setup the SysTick timer or configure
 197:Core/Src/system_stm32g0xx.c ****   *         other parameters.
 198:Core/Src/system_stm32g0xx.c ****   *
 199:Core/Src/system_stm32g0xx.c ****   * @note   Each time the core clock (HCLK) changes, this function must be called
 200:Core/Src/system_stm32g0xx.c ****   *         to update SystemCoreClock variable value. Otherwise, any configuration
 201:Core/Src/system_stm32g0xx.c ****   *         based on this variable will be incorrect.
 202:Core/Src/system_stm32g0xx.c ****   *
 203:Core/Src/system_stm32g0xx.c ****   * @note   - The system frequency computed by this function is not the real
 204:Core/Src/system_stm32g0xx.c ****   *           frequency in the chip. It is calculated based on the predefined
 205:Core/Src/system_stm32g0xx.c ****   *           constant and the selected clock source:
 206:Core/Src/system_stm32g0xx.c ****   *
 207:Core/Src/system_stm32g0xx.c ****   *           - If SYSCLK source is HSI, SystemCoreClock will contain the HSI_VALUE(**) / HSI divis
 208:Core/Src/system_stm32g0xx.c ****   *
 209:Core/Src/system_stm32g0xx.c ****   *           - If SYSCLK source is HSE, SystemCoreClock will contain the HSE_VALUE(***)
 210:Core/Src/system_stm32g0xx.c ****   *
 211:Core/Src/system_stm32g0xx.c ****   *           - If SYSCLK source is LSI, SystemCoreClock will contain the LSI_VALUE
 212:Core/Src/system_stm32g0xx.c ****   *
 213:Core/Src/system_stm32g0xx.c ****   *           - If SYSCLK source is LSE, SystemCoreClock will contain the LSE_VALUE
 214:Core/Src/system_stm32g0xx.c ****   *
 215:Core/Src/system_stm32g0xx.c ****   *           - If SYSCLK source is PLL, SystemCoreClock will contain the HSE_VALUE(***)
 216:Core/Src/system_stm32g0xx.c ****   *             or HSI_VALUE(*) multiplied/divided by the PLL factors.
 217:Core/Src/system_stm32g0xx.c ****   *
 218:Core/Src/system_stm32g0xx.c ****   *         (**) HSI_VALUE is a constant defined in stm32g0xx_hal_conf.h file (default value
 219:Core/Src/system_stm32g0xx.c ****   *              16 MHz) but the real value may vary depending on the variations
 220:Core/Src/system_stm32g0xx.c ****   *              in voltage and temperature.
 221:Core/Src/system_stm32g0xx.c ****   *
 222:Core/Src/system_stm32g0xx.c ****   *         (***) HSE_VALUE is a constant defined in stm32g0xx_hal_conf.h file (default value
 223:Core/Src/system_stm32g0xx.c ****   *              8 MHz), user has to ensure that HSE_VALUE is same as the real
 224:Core/Src/system_stm32g0xx.c ****   *              frequency of the crystal used. Otherwise, this function may
 225:Core/Src/system_stm32g0xx.c ****   *              have wrong result.
 226:Core/Src/system_stm32g0xx.c ****   *
 227:Core/Src/system_stm32g0xx.c ****   *         - The result of this function could be not correct when using fractional
 228:Core/Src/system_stm32g0xx.c ****   *           value for HSE crystal.
 229:Core/Src/system_stm32g0xx.c ****   *
 230:Core/Src/system_stm32g0xx.c ****   * @param  None
 231:Core/Src/system_stm32g0xx.c ****   * @retval None
 232:Core/Src/system_stm32g0xx.c ****   */
 233:Core/Src/system_stm32g0xx.c **** void SystemCoreClockUpdate(void)
 234:Core/Src/system_stm32g0xx.c **** {
  49              		.loc 1 234 1 view -0
  50              		.cfi_startproc
  51              		@ args = 0, pretend = 0, frame = 0
  52              		@ frame_needed = 0, uses_anonymous_args = 0
 235:Core/Src/system_stm32g0xx.c ****   uint32_t tmp;
  53              		.loc 1 235 3 view .LVU3
ARM GAS  /tmp/ccJL7Kxx.s 			page 6


 236:Core/Src/system_stm32g0xx.c ****   uint32_t pllvco;
  54              		.loc 1 236 3 view .LVU4
 237:Core/Src/system_stm32g0xx.c ****   uint32_t pllr;
  55              		.loc 1 237 3 view .LVU5
 238:Core/Src/system_stm32g0xx.c ****   uint32_t pllsource;
  56              		.loc 1 238 3 view .LVU6
 239:Core/Src/system_stm32g0xx.c ****   uint32_t pllm;
  57              		.loc 1 239 3 view .LVU7
 240:Core/Src/system_stm32g0xx.c ****   uint32_t hsidiv;
  58              		.loc 1 240 3 view .LVU8
 241:Core/Src/system_stm32g0xx.c **** 
 242:Core/Src/system_stm32g0xx.c ****   /* Get SYSCLK source -------------------------------------------------------*/
 243:Core/Src/system_stm32g0xx.c ****   switch (RCC->CFGR & RCC_CFGR_SWS)
  59              		.loc 1 243 3 view .LVU9
  60              		.loc 1 243 21 is_stmt 0 view .LVU10
  61 0000 3822     		movs	r2, #56
 234:Core/Src/system_stm32g0xx.c ****   uint32_t tmp;
  62              		.loc 1 234 1 view .LVU11
  63 0002 10B5     		push	{r4, lr}
  64              	.LCFI0:
  65              		.cfi_def_cfa_offset 8
  66              		.cfi_offset 4, -8
  67              		.cfi_offset 14, -4
  68              		.loc 1 243 14 view .LVU12
  69 0004 1C4C     		ldr	r4, .L13
  70 0006 A368     		ldr	r3, [r4, #8]
  71              		.loc 1 243 21 view .LVU13
  72 0008 1340     		ands	r3, r2
  73              		.loc 1 243 3 view .LVU14
  74 000a 182B     		cmp	r3, #24
  75 000c 2FD0     		beq	.L9
  76 000e 09D8     		bhi	.L4
  77 0010 082B     		cmp	r3, #8
  78 0012 2FD0     		beq	.L10
  79 0014 102B     		cmp	r3, #16
  80 0016 0AD0     		beq	.L5
  81              	.L6:
 244:Core/Src/system_stm32g0xx.c ****   {
 245:Core/Src/system_stm32g0xx.c ****     case RCC_CFGR_SWS_0:                /* HSE used as system clock */
 246:Core/Src/system_stm32g0xx.c ****       SystemCoreClock = HSE_VALUE;
 247:Core/Src/system_stm32g0xx.c ****       break;
 248:Core/Src/system_stm32g0xx.c **** 
 249:Core/Src/system_stm32g0xx.c ****     case (RCC_CFGR_SWS_1 | RCC_CFGR_SWS_0):  /* LSI used as system clock */
 250:Core/Src/system_stm32g0xx.c ****       SystemCoreClock = LSI_VALUE;
 251:Core/Src/system_stm32g0xx.c ****       break;
 252:Core/Src/system_stm32g0xx.c **** 
 253:Core/Src/system_stm32g0xx.c ****     case RCC_CFGR_SWS_2:                /* LSE used as system clock */
 254:Core/Src/system_stm32g0xx.c ****       SystemCoreClock = LSE_VALUE;
 255:Core/Src/system_stm32g0xx.c ****       break;
 256:Core/Src/system_stm32g0xx.c **** 
 257:Core/Src/system_stm32g0xx.c ****     case RCC_CFGR_SWS_1:  /* PLL used as system clock */
 258:Core/Src/system_stm32g0xx.c ****       /* PLL_VCO = (HSE_VALUE or HSI_VALUE / PLLM) * PLLN
 259:Core/Src/system_stm32g0xx.c ****          SYSCLK = PLL_VCO / PLLR
 260:Core/Src/system_stm32g0xx.c ****          */
 261:Core/Src/system_stm32g0xx.c ****       pllsource = (RCC->PLLCFGR & RCC_PLLCFGR_PLLSRC);
 262:Core/Src/system_stm32g0xx.c ****       pllm = ((RCC->PLLCFGR & RCC_PLLCFGR_PLLM) >> RCC_PLLCFGR_PLLM_Pos) + 1UL;
 263:Core/Src/system_stm32g0xx.c **** 
ARM GAS  /tmp/ccJL7Kxx.s 			page 7


 264:Core/Src/system_stm32g0xx.c ****       if(pllsource == 0x03UL)           /* HSE used as PLL clock source */
 265:Core/Src/system_stm32g0xx.c ****       {
 266:Core/Src/system_stm32g0xx.c ****         pllvco = (HSE_VALUE / pllm);
 267:Core/Src/system_stm32g0xx.c ****       }
 268:Core/Src/system_stm32g0xx.c ****       else                              /* HSI used as PLL clock source */
 269:Core/Src/system_stm32g0xx.c ****       {
 270:Core/Src/system_stm32g0xx.c ****           pllvco = (HSI_VALUE / pllm);
 271:Core/Src/system_stm32g0xx.c ****       }
 272:Core/Src/system_stm32g0xx.c ****       pllvco = pllvco * ((RCC->PLLCFGR & RCC_PLLCFGR_PLLN) >> RCC_PLLCFGR_PLLN_Pos);
 273:Core/Src/system_stm32g0xx.c ****       pllr = (((RCC->PLLCFGR & RCC_PLLCFGR_PLLR) >> RCC_PLLCFGR_PLLR_Pos) + 1UL);
 274:Core/Src/system_stm32g0xx.c **** 
 275:Core/Src/system_stm32g0xx.c ****       SystemCoreClock = pllvco/pllr;
 276:Core/Src/system_stm32g0xx.c ****       break;
 277:Core/Src/system_stm32g0xx.c ****       
 278:Core/Src/system_stm32g0xx.c ****     case 0x00000000U:                   /* HSI used as system clock */
 279:Core/Src/system_stm32g0xx.c ****     default:                            /* HSI used as system clock */
 280:Core/Src/system_stm32g0xx.c ****       hsidiv = (1UL << ((READ_BIT(RCC->CR, RCC_CR_HSIDIV))>> RCC_CR_HSIDIV_Pos));
  82              		.loc 1 280 7 is_stmt 1 view .LVU15
  83              		.loc 1 280 26 is_stmt 0 view .LVU16
  84 0018 2368     		ldr	r3, [r4]
  85              	.LVL0:
 281:Core/Src/system_stm32g0xx.c ****       SystemCoreClock = (HSI_VALUE/hsidiv);
  86              		.loc 1 281 7 is_stmt 1 view .LVU17
  87              		.loc 1 281 35 is_stmt 0 view .LVU18
  88 001a 1848     		ldr	r0, .L13+4
 280:Core/Src/system_stm32g0xx.c ****       SystemCoreClock = (HSI_VALUE/hsidiv);
  89              		.loc 1 280 59 view .LVU19
  90 001c 9B04     		lsls	r3, r3, #18
  91              	.LVL1:
 280:Core/Src/system_stm32g0xx.c ****       SystemCoreClock = (HSI_VALUE/hsidiv);
  92              		.loc 1 280 59 view .LVU20
  93 001e 5B0F     		lsrs	r3, r3, #29
  94              		.loc 1 281 35 view .LVU21
  95 0020 D840     		lsrs	r0, r0, r3
 282:Core/Src/system_stm32g0xx.c ****       break;
  96              		.loc 1 282 7 is_stmt 1 view .LVU22
  97 0022 18E0     		b	.L3
  98              	.LVL2:
  99              	.L4:
 243:Core/Src/system_stm32g0xx.c ****   {
 100              		.loc 1 243 3 is_stmt 0 view .LVU23
 101 0024 202B     		cmp	r3, #32
 102 0026 F7D1     		bne	.L6
 103 0028 8020     		movs	r0, #128
 104 002a 0002     		lsls	r0, r0, #8
 105 002c 13E0     		b	.L3
 106              	.L5:
 261:Core/Src/system_stm32g0xx.c ****       pllm = ((RCC->PLLCFGR & RCC_PLLCFGR_PLLM) >> RCC_PLLCFGR_PLLM_Pos) + 1UL;
 107              		.loc 1 261 7 is_stmt 1 view .LVU24
 261:Core/Src/system_stm32g0xx.c ****       pllm = ((RCC->PLLCFGR & RCC_PLLCFGR_PLLM) >> RCC_PLLCFGR_PLLM_Pos) + 1UL;
 108              		.loc 1 261 23 is_stmt 0 view .LVU25
 109 002e E368     		ldr	r3, [r4, #12]
 110              	.LVL3:
 262:Core/Src/system_stm32g0xx.c **** 
 111              		.loc 1 262 7 is_stmt 1 view .LVU26
 262:Core/Src/system_stm32g0xx.c **** 
 112              		.loc 1 262 19 is_stmt 0 view .LVU27
ARM GAS  /tmp/ccJL7Kxx.s 			page 8


 113 0030 E168     		ldr	r1, [r4, #12]
 261:Core/Src/system_stm32g0xx.c ****       pllm = ((RCC->PLLCFGR & RCC_PLLCFGR_PLLM) >> RCC_PLLCFGR_PLLM_Pos) + 1UL;
 114              		.loc 1 261 17 view .LVU28
 115 0032 DB43     		mvns	r3, r3
 116              	.LVL4:
 262:Core/Src/system_stm32g0xx.c **** 
 117              		.loc 1 262 49 view .LVU29
 118 0034 4906     		lsls	r1, r1, #25
 119 0036 490F     		lsrs	r1, r1, #29
 262:Core/Src/system_stm32g0xx.c **** 
 120              		.loc 1 262 12 view .LVU30
 121 0038 0131     		adds	r1, r1, #1
 122              	.LVL5:
 264:Core/Src/system_stm32g0xx.c ****       {
 123              		.loc 1 264 7 is_stmt 1 view .LVU31
 264:Core/Src/system_stm32g0xx.c ****       {
 124              		.loc 1 264 9 is_stmt 0 view .LVU32
 125 003a 9B07     		lsls	r3, r3, #30
 126 003c 15D1     		bne	.L7
 127              	.LVL6:
 266:Core/Src/system_stm32g0xx.c ****       }
 128              		.loc 1 266 9 is_stmt 1 view .LVU33
 266:Core/Src/system_stm32g0xx.c ****       }
 129              		.loc 1 266 16 is_stmt 0 view .LVU34
 130 003e 1048     		ldr	r0, .L13+8
 131              	.L12:
 270:Core/Src/system_stm32g0xx.c ****       }
 132              		.loc 1 270 18 view .LVU35
 133 0040 FFF7FEFF 		bl	__aeabi_uidiv
 134              	.LVL7:
 272:Core/Src/system_stm32g0xx.c ****       pllr = (((RCC->PLLCFGR & RCC_PLLCFGR_PLLR) >> RCC_PLLCFGR_PLLR_Pos) + 1UL);
 135              		.loc 1 272 7 is_stmt 1 view .LVU36
 272:Core/Src/system_stm32g0xx.c ****       pllr = (((RCC->PLLCFGR & RCC_PLLCFGR_PLLR) >> RCC_PLLCFGR_PLLR_Pos) + 1UL);
 136              		.loc 1 272 30 is_stmt 0 view .LVU37
 137 0044 E368     		ldr	r3, [r4, #12]
 138              	.LVL8:
 273:Core/Src/system_stm32g0xx.c **** 
 139              		.loc 1 273 7 is_stmt 1 view .LVU38
 273:Core/Src/system_stm32g0xx.c **** 
 140              		.loc 1 273 20 is_stmt 0 view .LVU39
 141 0046 E168     		ldr	r1, [r4, #12]
 142              	.LVL9:
 275:Core/Src/system_stm32g0xx.c ****       break;
 143              		.loc 1 275 7 is_stmt 1 view .LVU40
 272:Core/Src/system_stm32g0xx.c ****       pllr = (((RCC->PLLCFGR & RCC_PLLCFGR_PLLR) >> RCC_PLLCFGR_PLLR_Pos) + 1UL);
 144              		.loc 1 272 60 is_stmt 0 view .LVU41
 145 0048 5B04     		lsls	r3, r3, #17
 146              	.LVL10:
 272:Core/Src/system_stm32g0xx.c ****       pllr = (((RCC->PLLCFGR & RCC_PLLCFGR_PLLR) >> RCC_PLLCFGR_PLLR_Pos) + 1UL);
 147              		.loc 1 272 60 view .LVU42
 148 004a 5B0E     		lsrs	r3, r3, #25
 273:Core/Src/system_stm32g0xx.c **** 
 149              		.loc 1 273 50 view .LVU43
 150 004c 490F     		lsrs	r1, r1, #29
 151              	.LVL11:
 272:Core/Src/system_stm32g0xx.c ****       pllr = (((RCC->PLLCFGR & RCC_PLLCFGR_PLLR) >> RCC_PLLCFGR_PLLR_Pos) + 1UL);
 152              		.loc 1 272 14 view .LVU44
ARM GAS  /tmp/ccJL7Kxx.s 			page 9


 153 004e 5843     		muls	r0, r3
 273:Core/Src/system_stm32g0xx.c **** 
 154              		.loc 1 273 12 view .LVU45
 155 0050 0131     		adds	r1, r1, #1
 156              	.LVL12:
 275:Core/Src/system_stm32g0xx.c ****       break;
 157              		.loc 1 275 31 view .LVU46
 158 0052 FFF7FEFF 		bl	__aeabi_uidiv
 159              	.LVL13:
 276:Core/Src/system_stm32g0xx.c ****       
 160              		.loc 1 276 7 is_stmt 1 view .LVU47
 161              	.L3:
 283:Core/Src/system_stm32g0xx.c ****   }
 284:Core/Src/system_stm32g0xx.c ****   /* Compute HCLK clock frequency --------------------------------------------*/
 285:Core/Src/system_stm32g0xx.c ****   /* Get HCLK prescaler */
 286:Core/Src/system_stm32g0xx.c ****   tmp = AHBPrescTable[((RCC->CFGR & RCC_CFGR_HPRE) >> RCC_CFGR_HPRE_Pos)];
 162              		.loc 1 286 3 view .LVU48
 287:Core/Src/system_stm32g0xx.c ****   /* HCLK clock frequency */
 288:Core/Src/system_stm32g0xx.c ****   SystemCoreClock >>= tmp;
 289:Core/Src/system_stm32g0xx.c **** }
 163              		.loc 1 289 1 is_stmt 0 view .LVU49
 164              		@ sp needed
 286:Core/Src/system_stm32g0xx.c ****   /* HCLK clock frequency */
 165              		.loc 1 286 28 view .LVU50
 166 0056 A368     		ldr	r3, [r4, #8]
 167              	.LVL14:
 288:Core/Src/system_stm32g0xx.c **** }
 168              		.loc 1 288 3 is_stmt 1 view .LVU51
 286:Core/Src/system_stm32g0xx.c ****   /* HCLK clock frequency */
 169              		.loc 1 286 7 is_stmt 0 view .LVU52
 170 0058 0A4A     		ldr	r2, .L13+12
 286:Core/Src/system_stm32g0xx.c ****   /* HCLK clock frequency */
 171              		.loc 1 286 52 view .LVU53
 172 005a 1B05     		lsls	r3, r3, #20
 173              	.LVL15:
 286:Core/Src/system_stm32g0xx.c ****   /* HCLK clock frequency */
 174              		.loc 1 286 52 view .LVU54
 175 005c 1B0F     		lsrs	r3, r3, #28
 286:Core/Src/system_stm32g0xx.c ****   /* HCLK clock frequency */
 176              		.loc 1 286 7 view .LVU55
 177 005e 9B00     		lsls	r3, r3, #2
 288:Core/Src/system_stm32g0xx.c **** }
 178              		.loc 1 288 19 view .LVU56
 179 0060 9B58     		ldr	r3, [r3, r2]
 180 0062 0949     		ldr	r1, .L13+16
 181 0064 D840     		lsrs	r0, r0, r3
 182 0066 0860     		str	r0, [r1]
 183              		.loc 1 289 1 view .LVU57
 184 0068 10BD     		pop	{r4, pc}
 185              	.LVL16:
 186              	.L7:
 270:Core/Src/system_stm32g0xx.c ****       }
 187              		.loc 1 270 11 is_stmt 1 view .LVU58
 270:Core/Src/system_stm32g0xx.c ****       }
 188              		.loc 1 270 18 is_stmt 0 view .LVU59
 189 006a 0448     		ldr	r0, .L13+4
 190 006c E8E7     		b	.L12
ARM GAS  /tmp/ccJL7Kxx.s 			page 10


 191              	.LVL17:
 192              	.L9:
 243:Core/Src/system_stm32g0xx.c ****   {
 193              		.loc 1 243 3 view .LVU60
 194 006e FA20     		movs	r0, #250
 195 0070 C001     		lsls	r0, r0, #7
 196 0072 F0E7     		b	.L3
 197              	.L10:
 198 0074 0248     		ldr	r0, .L13+8
 199 0076 EEE7     		b	.L3
 200              	.L14:
 201              		.align	2
 202              	.L13:
 203 0078 00100240 		.word	1073876992
 204 007c 0024F400 		.word	16000000
 205 0080 00127A00 		.word	8000000
 206 0084 00000000 		.word	AHBPrescTable
 207 0088 00000000 		.word	SystemCoreClock
 208              		.cfi_endproc
 209              	.LFE421:
 211              		.global	APBPrescTable
 212              		.section	.rodata.APBPrescTable,"a"
 213              		.align	2
 216              	APBPrescTable:
 217 0000 00000000 		.word	0
 218 0004 00000000 		.word	0
 219 0008 00000000 		.word	0
 220 000c 00000000 		.word	0
 221 0010 01000000 		.word	1
 222 0014 02000000 		.word	2
 223 0018 03000000 		.word	3
 224 001c 04000000 		.word	4
 225              		.global	AHBPrescTable
 226              		.section	.rodata.AHBPrescTable,"a"
 227              		.align	2
 230              	AHBPrescTable:
 231 0000 00000000 		.word	0
 232 0004 00000000 		.word	0
 233 0008 00000000 		.word	0
 234 000c 00000000 		.word	0
 235 0010 00000000 		.word	0
 236 0014 00000000 		.word	0
 237 0018 00000000 		.word	0
 238 001c 00000000 		.word	0
 239 0020 01000000 		.word	1
 240 0024 02000000 		.word	2
 241 0028 03000000 		.word	3
 242 002c 04000000 		.word	4
 243 0030 06000000 		.word	6
 244 0034 07000000 		.word	7
 245 0038 08000000 		.word	8
 246 003c 09000000 		.word	9
 247              		.global	SystemCoreClock
 248              		.section	.data.SystemCoreClock,"aw"
 249              		.align	2
 252              	SystemCoreClock:
 253 0000 0024F400 		.word	16000000
ARM GAS  /tmp/ccJL7Kxx.s 			page 11


 254              		.text
 255              	.Letext0:
 256              		.file 2 "/usr/arm-none-eabi/include/machine/_default_types.h"
 257              		.file 3 "/usr/arm-none-eabi/include/sys/_stdint.h"
 258              		.file 4 "Drivers/CMSIS/Device/ST/STM32G0xx/Include/system_stm32g0xx.h"
 259              		.file 5 "Drivers/CMSIS/Device/ST/STM32G0xx/Include/stm32g030xx.h"
 260              		.file 6 "Drivers/STM32G0xx_HAL_Driver/Inc/stm32g0xx_ll_dma.h"
ARM GAS  /tmp/ccJL7Kxx.s 			page 12


DEFINED SYMBOLS
                            *ABS*:00000000 system_stm32g0xx.c
     /tmp/ccJL7Kxx.s:19     .text.SystemInit:00000000 $t
     /tmp/ccJL7Kxx.s:25     .text.SystemInit:00000000 SystemInit
     /tmp/ccJL7Kxx.s:41     .text.SystemCoreClockUpdate:00000000 $t
     /tmp/ccJL7Kxx.s:47     .text.SystemCoreClockUpdate:00000000 SystemCoreClockUpdate
     /tmp/ccJL7Kxx.s:203    .text.SystemCoreClockUpdate:00000078 $d
     /tmp/ccJL7Kxx.s:230    .rodata.AHBPrescTable:00000000 AHBPrescTable
     /tmp/ccJL7Kxx.s:252    .data.SystemCoreClock:00000000 SystemCoreClock
     /tmp/ccJL7Kxx.s:216    .rodata.APBPrescTable:00000000 APBPrescTable
     /tmp/ccJL7Kxx.s:213    .rodata.APBPrescTable:00000000 $d
     /tmp/ccJL7Kxx.s:227    .rodata.AHBPrescTable:00000000 $d
     /tmp/ccJL7Kxx.s:249    .data.SystemCoreClock:00000000 $d

UNDEFINED SYMBOLS
__aeabi_uidiv
__aeabi_idiv
